ARM GAS  C:\Users\guill\AppData\Local\Temp\ccQeRK4K.s 			page 1


   1              		.syntax unified
   2              		.cpu cortex-m4
   3              		.eabi_attribute 27, 1
   4              		.fpu fpv4-sp-d16
   5              		.eabi_attribute 20, 1
   6              		.eabi_attribute 21, 1
   7              		.eabi_attribute 23, 3
   8              		.eabi_attribute 24, 1
   9              		.eabi_attribute 25, 1
  10              		.eabi_attribute 26, 1
  11              		.eabi_attribute 30, 1
  12              		.eabi_attribute 34, 1
  13              		.eabi_attribute 18, 4
  14              		.thumb
  15              		.syntax unified
  16              		.file	"ipc_communication_cm0p.c"
  17              		.text
  18              	.Ltext0:
  19              		.cfi_sections	.debug_frame
  20              		.section	.text.user_ipc_pipe_isr_cm0,"ax",%progbits
  21              		.align	2
  22              		.global	user_ipc_pipe_isr_cm0
  23              		.thumb
  24              		.thumb_func
  25              		.type	user_ipc_pipe_isr_cm0, %function
  26              	user_ipc_pipe_isr_cm0:
  27              	.LFB688:
  28              		.file 1 "ipc_communication_cm0p.c"
   1:ipc_communication_cm0p.c **** /******************************************************************************
   2:ipc_communication_cm0p.c **** * File Name:   ipc_communication_cm0p.c
   3:ipc_communication_cm0p.c **** *
   4:ipc_communication_cm0p.c **** * Description: This file contains function definitions for setting up system
   5:ipc_communication_cm0p.c **** *              IPC communication and user IPC pipe.
   6:ipc_communication_cm0p.c **** *
   7:ipc_communication_cm0p.c **** * Related Document: See README.md
   8:ipc_communication_cm0p.c **** *
   9:ipc_communication_cm0p.c **** *
  10:ipc_communication_cm0p.c **** *******************************************************************************
  11:ipc_communication_cm0p.c **** * Copyright 2020-2021, Cypress Semiconductor Corporation (an Infineon company) or
  12:ipc_communication_cm0p.c **** * an affiliate of Cypress Semiconductor Corporation.  All rights reserved.
  13:ipc_communication_cm0p.c **** *
  14:ipc_communication_cm0p.c **** * This software, including source code, documentation and related
  15:ipc_communication_cm0p.c **** * materials ("Software") is owned by Cypress Semiconductor Corporation
  16:ipc_communication_cm0p.c **** * or one of its affiliates ("Cypress") and is protected by and subject to
  17:ipc_communication_cm0p.c **** * worldwide patent protection (United States and foreign),
  18:ipc_communication_cm0p.c **** * United States copyright laws and international treaty provisions.
  19:ipc_communication_cm0p.c **** * Therefore, you may use this Software only as provided in the license
  20:ipc_communication_cm0p.c **** * agreement accompanying the software package from which you
  21:ipc_communication_cm0p.c **** * obtained this Software ("EULA").
  22:ipc_communication_cm0p.c **** * If no EULA applies, Cypress hereby grants you a personal, non-exclusive,
  23:ipc_communication_cm0p.c **** * non-transferable license to copy, modify, and compile the Software
  24:ipc_communication_cm0p.c **** * source code solely for use in connection with Cypress's
  25:ipc_communication_cm0p.c **** * integrated circuit products.  Any reproduction, modification, translation,
  26:ipc_communication_cm0p.c **** * compilation, or representation of this Software except as specified
  27:ipc_communication_cm0p.c **** * above is prohibited without the express written permission of Cypress.
  28:ipc_communication_cm0p.c **** *
  29:ipc_communication_cm0p.c **** * Disclaimer: THIS SOFTWARE IS PROVIDED AS-IS, WITH NO WARRANTY OF ANY KIND,
ARM GAS  C:\Users\guill\AppData\Local\Temp\ccQeRK4K.s 			page 2


  30:ipc_communication_cm0p.c **** * EXPRESS OR IMPLIED, INCLUDING, BUT NOT LIMITED TO, NONINFRINGEMENT, IMPLIED
  31:ipc_communication_cm0p.c **** * WARRANTIES OF MERCHANTABILITY AND FITNESS FOR A PARTICULAR PURPOSE. Cypress
  32:ipc_communication_cm0p.c **** * reserves the right to make changes to the Software without notice. Cypress
  33:ipc_communication_cm0p.c **** * does not assume any liability arising out of the application or use of the
  34:ipc_communication_cm0p.c **** * Software or any product or circuit described in the Software. Cypress does
  35:ipc_communication_cm0p.c **** * not authorize its products for use in any products where a malfunction or
  36:ipc_communication_cm0p.c **** * failure of the Cypress product may reasonably be expected to result in
  37:ipc_communication_cm0p.c **** * significant property damage, injury or death ("High Risk Product"). By
  38:ipc_communication_cm0p.c **** * including Cypress's product in a High Risk Product, the manufacturer
  39:ipc_communication_cm0p.c **** * of such system or application assumes all risk of such use and in doing
  40:ipc_communication_cm0p.c **** * so agrees to indemnify Cypress against all liability.
  41:ipc_communication_cm0p.c **** *******************************************************************************/
  42:ipc_communication_cm0p.c **** 
  43:ipc_communication_cm0p.c **** 
  44:ipc_communication_cm0p.c **** /*******************************************************************************
  45:ipc_communication_cm0p.c ****  * Include header files
  46:ipc_communication_cm0p.c ****  ******************************************************************************/
  47:ipc_communication_cm0p.c **** #include "project.h"
  48:ipc_communication_cm0p.c **** #include "ipc_communication.h"
  49:ipc_communication_cm0p.c **** #include "system_psoc6.h"
  50:ipc_communication_cm0p.c **** 
  51:ipc_communication_cm0p.c **** 
  52:ipc_communication_cm0p.c **** /*******************************************************************************
  53:ipc_communication_cm0p.c ****  * Function definitions
  54:ipc_communication_cm0p.c ****  ******************************************************************************/
  55:ipc_communication_cm0p.c **** 
  56:ipc_communication_cm0p.c **** 
  57:ipc_communication_cm0p.c **** /*******************************************************************************
  58:ipc_communication_cm0p.c **** * Function Name: setup_ipc_communication_cm0
  59:ipc_communication_cm0p.c **** ********************************************************************************
  60:ipc_communication_cm0p.c **** * Summary:
  61:ipc_communication_cm0p.c **** *        - Initializes IPC Semaphore.
  62:ipc_communication_cm0p.c **** *        - Configures CY_PIPE used for System calls, Flash, and BLE.
  63:ipc_communication_cm0p.c **** *        - Configures USER_PIPE used in the example for sending CapSense touch
  64:ipc_communication_cm0p.c **** *          detection data.
  65:ipc_communication_cm0p.c **** *        - Initializes both CY_PIPE and USER_PIPE.
  66:ipc_communication_cm0p.c **** *        - Initializes flash after CY_PIPE is initialized.
  67:ipc_communication_cm0p.c **** *
  68:ipc_communication_cm0p.c **** *******************************************************************************/
  69:ipc_communication_cm0p.c **** void setup_ipc_communication_cm0(void)
  70:ipc_communication_cm0p.c **** {
  71:ipc_communication_cm0p.c ****      /* Allocate and initialize semaphores for the system operations. */
  72:ipc_communication_cm0p.c ****     CY_SECTION(".cy_sharedmem")
  73:ipc_communication_cm0p.c ****     static uint32_t ipcSemaArray[CY_IPC_SEMA_COUNT / CY_IPC_SEMA_PER_WORD];
  74:ipc_communication_cm0p.c **** 
  75:ipc_communication_cm0p.c ****     (void) Cy_IPC_Sema_Init(CY_IPC_CHAN_SEMA, CY_IPC_SEMA_COUNT, ipcSemaArray);
  76:ipc_communication_cm0p.c **** 
  77:ipc_communication_cm0p.c ****     /* Create an array of endpoint structures */
  78:ipc_communication_cm0p.c ****     static cy_stc_ipc_pipe_ep_t systemIpcPipeEpArray[CY_IPC_MAX_ENDPOINTS];
  79:ipc_communication_cm0p.c **** 
  80:ipc_communication_cm0p.c ****     Cy_IPC_Pipe_Config(systemIpcPipeEpArray);
  81:ipc_communication_cm0p.c **** 
  82:ipc_communication_cm0p.c ****     static cy_ipc_pipe_callback_ptr_t systemIpcPipeSysCbArray[CY_SYS_CYPIPE_CLIENT_CNT];
  83:ipc_communication_cm0p.c **** 
  84:ipc_communication_cm0p.c ****     static const cy_stc_ipc_pipe_config_t systemIpcPipeConfigCm0 =
  85:ipc_communication_cm0p.c ****     {
  86:ipc_communication_cm0p.c ****     /* .ep0ConfigData */
ARM GAS  C:\Users\guill\AppData\Local\Temp\ccQeRK4K.s 			page 3


  87:ipc_communication_cm0p.c ****         {
  88:ipc_communication_cm0p.c ****             CY_IPC_INTR_CYPIPE_EP0,       /* .ipcNotifierNumber    */
  89:ipc_communication_cm0p.c ****             CY_SYS_INTR_CYPIPE_PRIOR_EP0, /* .ipcNotifierPriority  */
  90:ipc_communication_cm0p.c ****             CY_SYS_INTR_CYPIPE_MUX_EP0,   /* .ipcNotifierMuxNumber */
  91:ipc_communication_cm0p.c ****             CY_IPC_EP_CYPIPE_CM0_ADDR,    /* .epAddress            */
  92:ipc_communication_cm0p.c ****             CY_SYS_CYPIPE_CONFIG_EP0      /* .epConfig             */
  93:ipc_communication_cm0p.c ****         },
  94:ipc_communication_cm0p.c ****     /* .ep1ConfigData */
  95:ipc_communication_cm0p.c ****         {
  96:ipc_communication_cm0p.c ****             CY_IPC_INTR_CYPIPE_EP1,       /* .ipcNotifierNumber    */
  97:ipc_communication_cm0p.c ****             CY_SYS_INTR_CYPIPE_PRIOR_EP1, /* .ipcNotifierPriority  */
  98:ipc_communication_cm0p.c ****             0u,                           /* .ipcNotifierMuxNumber */
  99:ipc_communication_cm0p.c ****             CY_IPC_EP_CYPIPE_CM4_ADDR,    /* .epAddress            */
 100:ipc_communication_cm0p.c ****             CY_SYS_CYPIPE_CONFIG_EP1      /* .epConfig             */
 101:ipc_communication_cm0p.c ****         },
 102:ipc_communication_cm0p.c ****       CY_SYS_CYPIPE_CLIENT_CNT,           /* .endpointClientsCount     */ 
 103:ipc_communication_cm0p.c ****       systemIpcPipeSysCbArray,            /* .endpointsCallbacksArray  */ 
 104:ipc_communication_cm0p.c ****       &Cy_SysIpcPipeIsrCm0                /* .userPipeIsrHandler       */
 105:ipc_communication_cm0p.c ****     };
 106:ipc_communication_cm0p.c **** 
 107:ipc_communication_cm0p.c ****     static cy_ipc_pipe_callback_ptr_t user_ipc_pipe_cb_array[USER_IPC_PIPE_CLIENT_CNT];
 108:ipc_communication_cm0p.c **** 
 109:ipc_communication_cm0p.c ****     static const cy_stc_ipc_pipe_config_t user_ipc_pipe_config_cm0 =
 110:ipc_communication_cm0p.c ****     {
 111:ipc_communication_cm0p.c ****         /* .ep2ConfigData */
 112:ipc_communication_cm0p.c ****         {
 113:ipc_communication_cm0p.c ****             USER_IPC_PIPE_INTR_EP0,        /* .ipcNotifierNumber       */
 114:ipc_communication_cm0p.c ****             1UL,                           /* .ipcNotifierPriority     */
 115:ipc_communication_cm0p.c ****             USER_IPC_PIPE_INTR_MUX_EP0,    /* .ipcNotifierMuxNumber    */
 116:ipc_communication_cm0p.c ****             USER_IPC_PIPE_EP_ADDR_CM0,     /* .epAddress               */
 117:ipc_communication_cm0p.c ****             USER_IPC_PIPE_EP0_CONFIG       /* .epConfig                */
 118:ipc_communication_cm0p.c ****         },
 119:ipc_communication_cm0p.c ****         /* .ep3ConfigData */
 120:ipc_communication_cm0p.c ****         {
 121:ipc_communication_cm0p.c ****             USER_IPC_PIPE_INTR_EP1,        /* .ipcNotifierNumber       */
 122:ipc_communication_cm0p.c ****             1UL,                           /* .ipcNotifierPriority     */
 123:ipc_communication_cm0p.c ****             0UL,                           /* .ipcNotifierMuxNumber    */
 124:ipc_communication_cm0p.c ****             USER_IPC_PIPE_EP_ADDR_CM4,     /* .epAddress               */
 125:ipc_communication_cm0p.c ****             USER_IPC_PIPE_EP1_CONFIG       /* .epConfig                */
 126:ipc_communication_cm0p.c ****         },
 127:ipc_communication_cm0p.c ****         USER_IPC_PIPE_CLIENT_CNT,          /* .endpointClientsCount     */  
 128:ipc_communication_cm0p.c ****         user_ipc_pipe_cb_array,            /* .endpointsCallbacksArray  */  
 129:ipc_communication_cm0p.c ****         &user_ipc_pipe_isr_cm0             /* .userPipeIsrHandler       */  
 130:ipc_communication_cm0p.c ****     };
 131:ipc_communication_cm0p.c **** 
 132:ipc_communication_cm0p.c ****     Cy_IPC_Pipe_Init(&systemIpcPipeConfigCm0);
 133:ipc_communication_cm0p.c **** 
 134:ipc_communication_cm0p.c **** #if defined(CY_DEVICE_PSOC6ABLE2)
 135:ipc_communication_cm0p.c ****     Cy_Flash_Init();
 136:ipc_communication_cm0p.c **** #endif /* defined(CY_DEVICE_PSOC6ABLE2) */
 137:ipc_communication_cm0p.c **** 
 138:ipc_communication_cm0p.c ****     Cy_IPC_Pipe_Init(&user_ipc_pipe_config_cm0);
 139:ipc_communication_cm0p.c **** }
 140:ipc_communication_cm0p.c **** 
 141:ipc_communication_cm0p.c **** 
 142:ipc_communication_cm0p.c **** ///*******************************************************************************
 143:ipc_communication_cm0p.c **** //* Function Name: Cy_SysIpcPipeIsrCm0
ARM GAS  C:\Users\guill\AppData\Local\Temp\ccQeRK4K.s 			page 4


 144:ipc_communication_cm0p.c **** //********************************************************************************
 145:ipc_communication_cm0p.c **** //* Summary: User IRQ handler function that is called when IPC receives data from
 146:ipc_communication_cm0p.c **** //*          CM4 to CM0+ through USER_PIPE.
 147:ipc_communication_cm0p.c **** //*
 148:ipc_communication_cm0p.c **** //*******************************************************************************/
 149:ipc_communication_cm0p.c **** //void Cy_SysIpcPipeIsrCm0(void)
 150:ipc_communication_cm0p.c **** //{
 151:ipc_communication_cm0p.c **** //    Cy_IPC_Pipe_ExecuteCallback(CY_IPC_EP_CYPIPE_CM0_ADDR);
 152:ipc_communication_cm0p.c **** //}
 153:ipc_communication_cm0p.c **** 
 154:ipc_communication_cm0p.c **** 
 155:ipc_communication_cm0p.c **** /*******************************************************************************
 156:ipc_communication_cm0p.c **** * Function Name: user_ipc_pipe_isr_cm0
 157:ipc_communication_cm0p.c **** ********************************************************************************
 158:ipc_communication_cm0p.c **** * This is the interrupt service routine for the system pipe.
 159:ipc_communication_cm0p.c **** *
 160:ipc_communication_cm0p.c **** *******************************************************************************/
 161:ipc_communication_cm0p.c **** void user_ipc_pipe_isr_cm0(void)
 162:ipc_communication_cm0p.c **** {
  29              		.loc 1 162 0
  30              		.cfi_startproc
  31              		@ args = 0, pretend = 0, frame = 0
  32              		@ frame_needed = 0, uses_anonymous_args = 0
  33 0000 08B5     		push	{r3, lr}
  34              		.cfi_def_cfa_offset 8
  35              		.cfi_offset 3, -8
  36              		.cfi_offset 14, -4
 163:ipc_communication_cm0p.c ****     Cy_IPC_Pipe_ExecuteCallback(USER_IPC_PIPE_EP_ADDR);
  37              		.loc 1 163 0
  38 0002 0320     		movs	r0, #3
  39 0004 FFF7FEFF 		bl	Cy_IPC_Pipe_ExecuteCallback
  40              	.LVL0:
  41 0008 08BD     		pop	{r3, pc}
  42              		.cfi_endproc
  43              	.LFE688:
  44              		.size	user_ipc_pipe_isr_cm0, .-user_ipc_pipe_isr_cm0
  45 000a 00BF     		.section	.text.setup_ipc_communication_cm0,"ax",%progbits
  46              		.align	2
  47              		.global	setup_ipc_communication_cm0
  48              		.thumb
  49              		.thumb_func
  50              		.type	setup_ipc_communication_cm0, %function
  51              	setup_ipc_communication_cm0:
  52              	.LFB687:
  70:ipc_communication_cm0p.c ****      /* Allocate and initialize semaphores for the system operations. */
  53              		.loc 1 70 0
  54              		.cfi_startproc
  55              		@ args = 0, pretend = 0, frame = 0
  56              		@ frame_needed = 0, uses_anonymous_args = 0
  57 0000 10B5     		push	{r4, lr}
  58              		.cfi_def_cfa_offset 8
  59              		.cfi_offset 4, -8
  60              		.cfi_offset 14, -4
  75:ipc_communication_cm0p.c **** 
  61              		.loc 1 75 0
  62 0002 094A     		ldr	r2, .L5
  63 0004 8021     		movs	r1, #128
ARM GAS  C:\Users\guill\AppData\Local\Temp\ccQeRK4K.s 			page 5


  64 0006 0420     		movs	r0, #4
  65 0008 FFF7FEFF 		bl	Cy_IPC_Sema_Init
  66              	.LVL1:
  80:ipc_communication_cm0p.c **** 
  67              		.loc 1 80 0
  68 000c 0748     		ldr	r0, .L5+4
  69 000e FFF7FEFF 		bl	Cy_IPC_Pipe_Config
  70              	.LVL2:
 132:ipc_communication_cm0p.c **** 
  71              		.loc 1 132 0
  72 0012 074C     		ldr	r4, .L5+8
  73 0014 2046     		mov	r0, r4
  74 0016 FFF7FEFF 		bl	Cy_IPC_Pipe_Init
  75              	.LVL3:
 135:ipc_communication_cm0p.c **** #endif /* defined(CY_DEVICE_PSOC6ABLE2) */
  76              		.loc 1 135 0
  77 001a FFF7FEFF 		bl	Cy_Flash_Init
  78              	.LVL4:
 138:ipc_communication_cm0p.c **** }
  79              		.loc 1 138 0
  80 001e 04F13400 		add	r0, r4, #52
  81 0022 FFF7FEFF 		bl	Cy_IPC_Pipe_Init
  82              	.LVL5:
  83 0026 10BD     		pop	{r4, pc}
  84              	.L6:
  85              		.align	2
  86              	.L5:
  87 0028 00000000 		.word	.LANCHOR0
  88 002c 00000000 		.word	.LANCHOR1
  89 0030 00000000 		.word	.LANCHOR2
  90              		.cfi_endproc
  91              	.LFE687:
  92              		.size	setup_ipc_communication_cm0, .-setup_ipc_communication_cm0
  93              		.section	.rodata
  94              		.align	2
  95              		.set	.LANCHOR2,. + 0
  96              		.type	systemIpcPipeConfigCm0.18146, %object
  97              		.size	systemIpcPipeConfigCm0.18146, 52
  98              	systemIpcPipeConfigCm0.18146:
  99 0000 03000000 		.word	3
 100 0004 01000000 		.word	1
 101 0008 01000000 		.word	1
 102 000c 00000000 		.word	0
 103 0010 05036000 		.word	6292229
 104 0014 04000000 		.word	4
 105 0018 01000000 		.word	1
 106 001c 00000000 		.word	0
 107 0020 01000000 		.word	1
 108 0024 06046000 		.word	6292486
 109 0028 08000000 		.word	8
 110 002c 60010000 		.word	systemIpcPipeSysCbArray.18145
 111 0030 00000000 		.word	Cy_SysIpcPipeIsrCm0
 112              		.type	user_ipc_pipe_config_cm0.18148, %object
 113              		.size	user_ipc_pipe_config_cm0.18148, 52
 114              	user_ipc_pipe_config_cm0.18148:
 115 0034 08000000 		.word	8
 116 0038 01000000 		.word	1
ARM GAS  C:\Users\guill\AppData\Local\Temp\ccQeRK4K.s 			page 6


 117 003c 02000000 		.word	2
 118 0040 02000000 		.word	2
 119 0044 08080003 		.word	50333704
 120 0048 09000000 		.word	9
 121 004c 01000000 		.word	1
 122 0050 00000000 		.word	0
 123 0054 03000000 		.word	3
 124 0058 09090003 		.word	50333961
 125 005c 04000000 		.word	4
 126 0060 80010000 		.word	user_ipc_pipe_cb_array.18147
 127 0064 00000000 		.word	user_ipc_pipe_isr_cm0
 128              		.section	.cy_sharedmem,"aw",%progbits
 129              		.align	2
 130              		.set	.LANCHOR0,. + 0
 131              		.type	ipcSemaArray.18143, %object
 132              		.size	ipcSemaArray.18143, 16
 133              	ipcSemaArray.18143:
 134 0000 00000000 		.space	16
 134      00000000 
 134      00000000 
 134      00000000 
 135              		.bss
 136              		.align	2
 137              		.set	.LANCHOR1,. + 0
 138              		.type	systemIpcPipeEpArray.18144, %object
 139              		.size	systemIpcPipeEpArray.18144, 352
 140              	systemIpcPipeEpArray.18144:
 141 0000 00000000 		.space	352
 141      00000000 
 141      00000000 
 141      00000000 
 141      00000000 
 142              		.type	systemIpcPipeSysCbArray.18145, %object
 143              		.size	systemIpcPipeSysCbArray.18145, 32
 144              	systemIpcPipeSysCbArray.18145:
 145 0160 00000000 		.space	32
 145      00000000 
 145      00000000 
 145      00000000 
 145      00000000 
 146              		.type	user_ipc_pipe_cb_array.18147, %object
 147              		.size	user_ipc_pipe_cb_array.18147, 16
 148              	user_ipc_pipe_cb_array.18147:
 149 0180 00000000 		.space	16
 149      00000000 
 149      00000000 
 149      00000000 
 150              		.text
 151              	.Letext0:
 152              		.file 2 "Generated_Source\\PSoC6\\pdl\\devices/psoc6/include/cyble_416045_02.h"
 153              		.file 3 "c:\\program files (x86)\\cypress\\psoc creator\\4.4\\psoc creator\\import\\gnu\\arm\\5.4.
 154              		.file 4 "c:\\program files (x86)\\cypress\\psoc creator\\4.4\\psoc creator\\import\\gnu\\arm\\5.4.
 155              		.file 5 "Generated_Source\\PSoC6\\pdl\\devices/psoc6/include/ip/cyip_ipc.h"
 156              		.file 6 "Generated_Source\\PSoC6\\pdl\\devices/psoc6/include/psoc6_01_config.h"
 157              		.file 7 "Generated_Source\\PSoC6\\pdl\\drivers/peripheral/device/cy_device.h"
 158              		.file 8 "Generated_Source\\PSoC6\\pdl\\drivers/peripheral/syslib/cy_syslib.h"
 159              		.file 9 "Generated_Source\\PSoC6\\pdl\\drivers/peripheral/ipc/cy_ipc_pipe.h"
ARM GAS  C:\Users\guill\AppData\Local\Temp\ccQeRK4K.s 			page 7


 160              		.file 10 "Generated_Source\\PSoC6\\pdl\\drivers/peripheral/scb/cy_scb_i2c.h"
 161              		.file 11 "Generated_Source\\PSoC6\\pdl\\drivers/peripheral/scb/cy_scb_uart.h"
 162              		.file 12 "Generated_Source\\PSoC6\\pdl\\drivers/peripheral/tcpwm/cy_tcpwm_counter.h"
 163              		.file 13 "Generated_Source\\PSoC6\\pdl\\drivers/peripheral/tcpwm/cy_tcpwm_pwm.h"
 164              		.file 14 "Generated_Source\\PSoC6\\pdl\\middleware/ble/cy_ble_stack_host_main.h"
 165              		.file 15 "Generated_Source\\PSoC6\\pdl\\middleware/ble/cy_ble_gap.h"
 166              		.file 16 "Generated_Source\\PSoC6\\pdl\\cmsis/include/core_cm4.h"
 167              		.file 17 "Generated_Source\\PSoC6/UART.h"
 168              		.file 18 "Generated_Source\\PSoC6/PWM_Blue.h"
 169              		.file 19 "Generated_Source\\PSoC6/PWM_Green.h"
 170              		.file 20 "Generated_Source\\PSoC6/I2C.h"
 171              		.file 21 "Generated_Source\\PSoC6/Timer_Echo.h"
 172              		.file 22 "Generated_Source\\PSoC6/PWM_Trigger.h"
 173              		.file 23 "Generated_Source\\PSoC6\\pdl\\drivers/peripheral/ipc/cy_ipc_sema.h"
 174              		.file 24 "Generated_Source\\PSoC6\\pdl\\drivers/peripheral/flash/cy_flash.h"