ARM GAS  C:\Users\guill\AppData\Local\Temp\cci29Dkw.s 			page 1


   1              		.syntax unified
   2              		.cpu cortex-m4
   3              		.eabi_attribute 27, 1
   4              		.fpu fpv4-sp-d16
   5              		.eabi_attribute 20, 1
   6              		.eabi_attribute 21, 1
   7              		.eabi_attribute 23, 3
   8              		.eabi_attribute 24, 1
   9              		.eabi_attribute 25, 1
  10              		.eabi_attribute 26, 1
  11              		.eabi_attribute 30, 1
  12              		.eabi_attribute 34, 1
  13              		.eabi_attribute 18, 4
  14              		.thumb
  15              		.syntax unified
  16              		.file	"main_cm4.c"
  17              		.text
  18              	.Ltext0:
  19              		.cfi_sections	.debug_frame
  20              		.section	.text.main,"ax",%progbits
  21              		.align	2
  22              		.global	main
  23              		.thumb
  24              		.thumb_func
  25              		.type	main, %function
  26              	main:
  27              	.LFB509:
  28              		.file 1 "main_cm4.c"
   1:main_cm4.c    **** #include "project.h" 
   2:main_cm4.c    **** #include "DRF0554.h" 
   3:main_cm4.c    **** #include <stdio.h> 
   4:main_cm4.c    **** #include <string.h> 
   5:main_cm4.c    ****  
   6:main_cm4.c    **** int main(void) 
   7:main_cm4.c    **** { 
  29              		.loc 1 7 0
  30              		.cfi_startproc
  31              		@ args = 0, pretend = 0, frame = 24
  32              		@ frame_needed = 0, uses_anonymous_args = 0
  33 0000 2DE9F043 		push	{r4, r5, r6, r7, r8, r9, lr}
  34              		.cfi_def_cfa_offset 28
  35              		.cfi_offset 4, -28
  36              		.cfi_offset 5, -24
  37              		.cfi_offset 6, -20
  38              		.cfi_offset 7, -16
  39              		.cfi_offset 8, -12
  40              		.cfi_offset 9, -8
  41              		.cfi_offset 14, -4
  42 0004 87B0     		sub	sp, sp, #28
  43              		.cfi_def_cfa_offset 56
   8:main_cm4.c    ****   UART_Start(); 
  44              		.loc 1 8 0
  45 0006 FFF7FEFF 		bl	UART_Start
  46              	.LVL0:
   9:main_cm4.c    ****   printf("CSE121 Lab 3.3 DFR0554 Library\r\n"); 
  47              		.loc 1 9 0
  48 000a 4948     		ldr	r0, .L17
ARM GAS  C:\Users\guill\AppData\Local\Temp\cci29Dkw.s 			page 2


  49 000c FFF7FEFF 		bl	puts
  50              	.LVL1:
  10:main_cm4.c    ****  
  11:main_cm4.c    ****   I2C_Start(); 
  51              		.loc 1 11 0
  52 0010 FFF7FEFF 		bl	I2C_Start
  53              	.LVL2:
  12:main_cm4.c    ****   LCD_Start(I2C_HW, &I2C_context); 
  54              		.loc 1 12 0
  55 0014 4749     		ldr	r1, .L17+4
  56 0016 4848     		ldr	r0, .L17+8
  57 0018 FFF7FEFF 		bl	LCD_Start
  58              	.LVL3:
  13:main_cm4.c    ****  
  14:main_cm4.c    ****   LCD_SetColor(Blue); 
  59              		.loc 1 14 0
  60 001c 0320     		movs	r0, #3
  61 001e FFF7FEFF 		bl	LCD_SetColor
  62              	.LVL4:
  15:main_cm4.c    ****   LCD_Print("Hello CSE121"); 
  63              		.loc 1 15 0
  64 0022 4648     		ldr	r0, .L17+12
  65 0024 FFF7FEFF 		bl	LCD_Print
  66              	.LVL5:
  16:main_cm4.c    ****   LCD_SetRGB(52, 152, 219);
  67              		.loc 1 16 0
  68 0028 DB22     		movs	r2, #219
  69 002a 9821     		movs	r1, #152
  70 002c 3420     		movs	r0, #52
  71 002e FFF7FEFF 		bl	LCD_SetRGB
  72              	.LVL6:
  17:main_cm4.c    ****   char c;
  18:main_cm4.c    ****   
  19:main_cm4.c    ****   char buf[16]; 
  20:main_cm4.c    ****   uint16_t cnt = 0; 
  21:main_cm4.c    ****  // bool a = false;
  22:main_cm4.c    ****   bool b = false;
  23:main_cm4.c    ****   bool cur = false;
  24:main_cm4.c    ****   bool d = false;
  25:main_cm4.c    ****   bool e = false;
  26:main_cm4.c    ****   
  27:main_cm4.c    ****   setvbuf(stdin,NULL,_IONBF,0);
  73              		.loc 1 27 0
  74 0032 434B     		ldr	r3, .L17+16
  75 0034 1868     		ldr	r0, [r3]
  76 0036 0023     		movs	r3, #0
  77 0038 0222     		movs	r2, #2
  78 003a 1946     		mov	r1, r3
  79 003c 4068     		ldr	r0, [r0, #4]
  80 003e FFF7FEFF 		bl	setvbuf
  81              	.LVL7:
  25:main_cm4.c    ****   
  82              		.loc 1 25 0
  83 0042 4FF00009 		mov	r9, #0
  24:main_cm4.c    ****   bool e = false;
  84              		.loc 1 24 0
  85 0046 C846     		mov	r8, r9
ARM GAS  C:\Users\guill\AppData\Local\Temp\cci29Dkw.s 			page 3


  23:main_cm4.c    ****   bool d = false;
  86              		.loc 1 23 0
  87 0048 4F46     		mov	r7, r9
  22:main_cm4.c    ****   bool cur = false;
  88              		.loc 1 22 0
  89 004a 4E46     		mov	r6, r9
  20:main_cm4.c    ****  // bool a = false;
  90              		.loc 1 20 0
  91 004c 4D46     		mov	r5, r9
  92              	.LVL8:
  93              	.L15:
  28:main_cm4.c    ****   for (;;) { 
  29:main_cm4.c    ****     scanf(" %c", &c);
  94              		.loc 1 29 0
  95 004e 0DF11701 		add	r1, sp, #23
  96 0052 3C48     		ldr	r0, .L17+20
  97 0054 FFF7FEFF 		bl	scanf
  98              	.LVL9:
  30:main_cm4.c    ****     if(c== 'a'){
  99              		.loc 1 30 0
 100 0058 9DF81730 		ldrb	r3, [sp, #23]	@ zero_extendqisi2
 101 005c 612B     		cmp	r3, #97
 102 005e 03D1     		bne	.L2
  31:main_cm4.c    ****         
  32:main_cm4.c    ****             LCD_Autoscroll(On);
 103              		.loc 1 32 0
 104 0060 0120     		movs	r0, #1
 105 0062 FFF7FEFF 		bl	LCD_Autoscroll
 106              	.LVL10:
 107 0066 4FE0     		b	.L3
 108              	.L2:
  33:main_cm4.c    ****     }
  34:main_cm4.c    ****     else if (c == 'b'){
 109              		.loc 1 34 0
 110 0068 622B     		cmp	r3, #98
 111 006a 0AD1     		bne	.L4
  35:main_cm4.c    ****          if(b==false){
 112              		.loc 1 35 0
 113 006c 26B9     		cbnz	r6, .L5
  36:main_cm4.c    ****             LCD_Blink(On);
 114              		.loc 1 36 0
 115 006e 0120     		movs	r0, #1
 116 0070 FFF7FEFF 		bl	LCD_Blink
 117              	.LVL11:
  37:main_cm4.c    ****             b=true;
 118              		.loc 1 37 0
 119 0074 0126     		movs	r6, #1
 120 0076 47E0     		b	.L3
 121              	.LVL12:
 122              	.L5:
  38:main_cm4.c    ****         }
  39:main_cm4.c    ****         else{
  40:main_cm4.c    ****           LCD_Blink(Off);
 123              		.loc 1 40 0
 124 0078 0020     		movs	r0, #0
 125 007a FFF7FEFF 		bl	LCD_Blink
 126              	.LVL13:
ARM GAS  C:\Users\guill\AppData\Local\Temp\cci29Dkw.s 			page 4


  41:main_cm4.c    ****           b = false;
 127              		.loc 1 41 0
 128 007e 0026     		movs	r6, #0
 129 0080 42E0     		b	.L3
 130              	.LVL14:
 131              	.L4:
  42:main_cm4.c    ****         }
  43:main_cm4.c    ****          
  44:main_cm4.c    ****     }
  45:main_cm4.c    ****     else if (c == 'c'){
 132              		.loc 1 45 0
 133 0082 632B     		cmp	r3, #99
 134 0084 0AD1     		bne	.L6
  46:main_cm4.c    ****         if(cur==false){
 135              		.loc 1 46 0
 136 0086 27B9     		cbnz	r7, .L7
  47:main_cm4.c    ****             LCD_Cursor(On);
 137              		.loc 1 47 0
 138 0088 0120     		movs	r0, #1
 139 008a FFF7FEFF 		bl	LCD_Cursor
 140              	.LVL15:
  48:main_cm4.c    ****             cur=true;
 141              		.loc 1 48 0
 142 008e 0127     		movs	r7, #1
 143 0090 3AE0     		b	.L3
 144              	.LVL16:
 145              	.L7:
  49:main_cm4.c    ****         }
  50:main_cm4.c    ****         else{
  51:main_cm4.c    ****           LCD_Cursor(Off);
 146              		.loc 1 51 0
 147 0092 0020     		movs	r0, #0
 148 0094 FFF7FEFF 		bl	LCD_Cursor
 149              	.LVL17:
  52:main_cm4.c    ****           cur = false;
 150              		.loc 1 52 0
 151 0098 0027     		movs	r7, #0
 152 009a 35E0     		b	.L3
 153              	.LVL18:
 154              	.L6:
  53:main_cm4.c    ****         }
  54:main_cm4.c    ****     }
  55:main_cm4.c    ****     else if(c=='d'){
 155              		.loc 1 55 0
 156 009c 642B     		cmp	r3, #100
 157 009e 0ED1     		bne	.L8
  56:main_cm4.c    ****         if(d==false){
 158              		.loc 1 56 0
 159 00a0 B8F1000F 		cmp	r8, #0
 160 00a4 05D1     		bne	.L9
  57:main_cm4.c    ****             LCD_Display(On);
 161              		.loc 1 57 0
 162 00a6 0120     		movs	r0, #1
 163 00a8 FFF7FEFF 		bl	LCD_Display
 164              	.LVL19:
  58:main_cm4.c    ****             d=true;
 165              		.loc 1 58 0
ARM GAS  C:\Users\guill\AppData\Local\Temp\cci29Dkw.s 			page 5


 166 00ac 4FF00108 		mov	r8, #1
 167 00b0 2AE0     		b	.L3
 168              	.LVL20:
 169              	.L9:
  59:main_cm4.c    ****         }
  60:main_cm4.c    ****         else{
  61:main_cm4.c    ****           LCD_Display(Off);
 170              		.loc 1 61 0
 171 00b2 0020     		movs	r0, #0
 172 00b4 FFF7FEFF 		bl	LCD_Display
 173              	.LVL21:
  62:main_cm4.c    ****           d = false;
 174              		.loc 1 62 0
 175 00b8 4FF00008 		mov	r8, #0
 176 00bc 24E0     		b	.L3
 177              	.LVL22:
 178              	.L8:
  63:main_cm4.c    ****         }
  64:main_cm4.c    ****     }
  65:main_cm4.c    ****     else if(c=='e'){
 179              		.loc 1 65 0
 180 00be 652B     		cmp	r3, #101
 181 00c0 0ED1     		bne	.L10
  66:main_cm4.c    ****          if(e==false){
 182              		.loc 1 66 0
 183 00c2 B9F1000F 		cmp	r9, #0
 184 00c6 05D1     		bne	.L11
  67:main_cm4.c    ****              LCD_SetColor(Green);
 185              		.loc 1 67 0
 186 00c8 0220     		movs	r0, #2
 187 00ca FFF7FEFF 		bl	LCD_SetColor
 188              	.LVL23:
  68:main_cm4.c    ****             e=true;
 189              		.loc 1 68 0
 190 00ce 4FF00109 		mov	r9, #1
 191 00d2 19E0     		b	.L3
 192              	.LVL24:
 193              	.L11:
  69:main_cm4.c    ****         }
  70:main_cm4.c    ****         else{
  71:main_cm4.c    ****           LCD_SetColor(Blue);
 194              		.loc 1 71 0
 195 00d4 0320     		movs	r0, #3
 196 00d6 FFF7FEFF 		bl	LCD_SetColor
 197              	.LVL25:
  72:main_cm4.c    ****           e = false;
 198              		.loc 1 72 0
 199 00da 4FF00009 		mov	r9, #0
 200 00de 13E0     		b	.L3
 201              	.LVL26:
 202              	.L10:
  73:main_cm4.c    ****         }
  74:main_cm4.c    ****     }
  75:main_cm4.c    ****     else if(c=='l'){
 203              		.loc 1 75 0
 204 00e0 6C2B     		cmp	r3, #108
 205 00e2 03D1     		bne	.L12
ARM GAS  C:\Users\guill\AppData\Local\Temp\cci29Dkw.s 			page 6


  76:main_cm4.c    ****         LCD_Scroll(Left);
 206              		.loc 1 76 0
 207 00e4 0020     		movs	r0, #0
 208 00e6 FFF7FEFF 		bl	LCD_Scroll
 209              	.LVL27:
 210 00ea 0DE0     		b	.L3
 211              	.L12:
  77:main_cm4.c    ****     }
  78:main_cm4.c    ****     else if(c=='r'){
 212              		.loc 1 78 0
 213 00ec 722B     		cmp	r3, #114
 214 00ee 03D1     		bne	.L13
  79:main_cm4.c    ****         LCD_Scroll(Right);
 215              		.loc 1 79 0
 216 00f0 0120     		movs	r0, #1
 217 00f2 FFF7FEFF 		bl	LCD_Scroll
 218              	.LVL28:
 219 00f6 07E0     		b	.L3
 220              	.L13:
  80:main_cm4.c    ****     }
  81:main_cm4.c    ****     else if(c=='z'){
 221              		.loc 1 81 0
 222 00f8 7A2B     		cmp	r3, #122
 223 00fa 02D1     		bne	.L14
  82:main_cm4.c    ****         LCD_Clear();
 224              		.loc 1 82 0
 225 00fc FFF7FEFF 		bl	LCD_Clear
 226              	.LVL29:
 227 0100 02E0     		b	.L3
 228              	.L14:
  83:main_cm4.c    ****     }
  84:main_cm4.c    ****     else{
  85:main_cm4.c    ****         printf("Please, enter a valid option!\r\n");
 229              		.loc 1 85 0
 230 0102 1148     		ldr	r0, .L17+24
 231 0104 FFF7FEFF 		bl	puts
 232              	.LVL30:
 233              	.L3:
  86:main_cm4.c    ****     }
  87:main_cm4.c    ****     LCD_SetCursor(0, 1); 
 234              		.loc 1 87 0
 235 0108 0121     		movs	r1, #1
 236 010a 0020     		movs	r0, #0
 237 010c FFF7FEFF 		bl	LCD_SetCursor
 238              	.LVL31:
  88:main_cm4.c    ****     sprintf(buf, "%u", cnt++); 
 239              		.loc 1 88 0
 240 0110 6C1C     		adds	r4, r5, #1
 241 0112 A4B2     		uxth	r4, r4
 242              	.LVL32:
 243 0114 2A46     		mov	r2, r5
 244 0116 0D49     		ldr	r1, .L17+28
 245 0118 01A8     		add	r0, sp, #4
 246 011a FFF7FEFF 		bl	sprintf
 247              	.LVL33:
  89:main_cm4.c    ****     LCD_Print(buf); 
 248              		.loc 1 89 0
ARM GAS  C:\Users\guill\AppData\Local\Temp\cci29Dkw.s 			page 7


 249 011e 01A8     		add	r0, sp, #4
 250 0120 FFF7FEFF 		bl	LCD_Print
 251              	.LVL34:
  90:main_cm4.c    ****     CyDelay(1000); 
 252              		.loc 1 90 0
 253 0124 4FF47A70 		mov	r0, #1000
 254 0128 FFF7FEFF 		bl	Cy_SysLib_Delay
 255              	.LVL35:
  88:main_cm4.c    ****     sprintf(buf, "%u", cnt++); 
 256              		.loc 1 88 0
 257 012c 2546     		mov	r5, r4
  91:main_cm4.c    ****   } 
 258              		.loc 1 91 0
 259 012e 8EE7     		b	.L15
 260              	.L18:
 261              		.align	2
 262              	.L17:
 263 0130 00000000 		.word	.LC0
 264 0134 00000000 		.word	I2C_context
 265 0138 00006740 		.word	1080492032
 266 013c 20000000 		.word	.LC1
 267 0140 00000000 		.word	_impure_ptr
 268 0144 30000000 		.word	.LC2
 269 0148 34000000 		.word	.LC3
 270 014c 54000000 		.word	.LC4
 271              		.cfi_endproc
 272              	.LFE509:
 273              		.size	main, .-main
 274              		.section	.rodata.str1.4,"aMS",%progbits,1
 275              		.align	2
 276              	.LC0:
 277 0000 43534531 		.ascii	"CSE121 Lab 3.3 DFR0554 Library\015\000"
 277      3231204C 
 277      61622033 
 277      2E332044 
 277      46523035 
 278              	.LC1:
 279 0020 48656C6C 		.ascii	"Hello CSE121\000"
 279      6F204353 
 279      45313231 
 279      00
 280 002d 000000   		.space	3
 281              	.LC2:
 282 0030 20256300 		.ascii	" %c\000"
 283              	.LC3:
 284 0034 506C6561 		.ascii	"Please, enter a valid option!\015\000"
 284      73652C20 
 284      656E7465 
 284      72206120 
 284      76616C69 
 285 0053 00       		.space	1
 286              	.LC4:
 287 0054 257500   		.ascii	"%u\000"
 288              		.text
 289              	.Letext0:
 290              		.file 2 "c:\\program files (x86)\\cypress\\psoc creator\\4.4\\psoc creator\\import\\gnu\\arm\\5.4.
 291              		.file 3 "c:\\program files (x86)\\cypress\\psoc creator\\4.4\\psoc creator\\import\\gnu\\arm\\5.4.
ARM GAS  C:\Users\guill\AppData\Local\Temp\cci29Dkw.s 			page 8


 292              		.file 4 "Generated_Source\\PSoC6\\pdl\\devices/psoc6/include/ip/cyip_scb.h"
 293              		.file 5 "Generated_Source\\PSoC6\\pdl\\devices/psoc6/include/psoc6_01_config.h"
 294              		.file 6 "Generated_Source\\PSoC6\\pdl\\drivers/peripheral/device/cy_device.h"
 295              		.file 7 "Generated_Source\\PSoC6\\pdl\\drivers/peripheral/scb/cy_scb_i2c.h"
 296              		.file 8 "Generated_Source\\PSoC6\\pdl\\drivers/peripheral/scb/cy_scb_uart.h"
 297              		.file 9 "DRF0554.h"
 298              		.file 10 "c:\\program files (x86)\\cypress\\psoc creator\\4.4\\psoc creator\\import\\gnu\\arm\\5.4
 299              		.file 11 "c:\\program files (x86)\\cypress\\psoc creator\\4.4\\psoc creator\\import\\gnu\\arm\\5.4
 300              		.file 12 "c:\\program files (x86)\\cypress\\psoc creator\\4.4\\psoc creator\\import\\gnu\\arm\\5.4
 301              		.file 13 "c:\\program files (x86)\\cypress\\psoc creator\\4.4\\psoc creator\\import\\gnu\\arm\\5.4
 302              		.file 14 "Generated_Source\\PSoC6\\pdl\\cmsis/include/core_cm4.h"
 303              		.file 15 "Generated_Source\\PSoC6/UART.h"
 304              		.file 16 "Generated_Source\\PSoC6/I2C.h"
 305              		.file 17 "c:\\program files (x86)\\cypress\\psoc creator\\4.4\\psoc creator\\import\\gnu\\arm\\5.4
 306              		.file 18 "Generated_Source\\PSoC6\\pdl\\drivers/peripheral/syslib/cy_syslib.h"
 307              		.file 19 "<built-in>"