ARM GAS  C:\Users\guill\AppData\Local\Temp\ccMMFZdi.s 			page 1


   1              		.syntax unified
   2              		.cpu cortex-m4
   3              		.eabi_attribute 27, 1
   4              		.fpu fpv4-sp-d16
   5              		.eabi_attribute 20, 1
   6              		.eabi_attribute 21, 1
   7              		.eabi_attribute 23, 3
   8              		.eabi_attribute 24, 1
   9              		.eabi_attribute 25, 1
  10              		.eabi_attribute 26, 1
  11              		.eabi_attribute 30, 1
  12              		.eabi_attribute 34, 1
  13              		.eabi_attribute 18, 4
  14              		.thumb
  15              		.syntax unified
  16              		.file	"ipc_communication_cm4.c"
  17              		.text
  18              	.Ltext0:
  19              		.cfi_sections	.debug_frame
  20              		.section	.text.user_ipc_pipe_isr_cm4,"ax",%progbits
  21              		.align	2
  22              		.global	user_ipc_pipe_isr_cm4
  23              		.thumb
  24              		.thumb_func
  25              		.type	user_ipc_pipe_isr_cm4, %function
  26              	user_ipc_pipe_isr_cm4:
  27              	.LFB688:
  28              		.file 1 "ipc_communication_cm4.c"
   1:ipc_communication_cm4.c **** /******************************************************************************
   2:ipc_communication_cm4.c **** * File Name:   ipc_communication_cm4.c
   3:ipc_communication_cm4.c **** *
   4:ipc_communication_cm4.c **** * Description: This file contains function definitions for setting up system
   5:ipc_communication_cm4.c **** *              IPC communication and user IPC pipe.
   6:ipc_communication_cm4.c **** *
   7:ipc_communication_cm4.c **** * Related Document: See README.md
   8:ipc_communication_cm4.c **** *
   9:ipc_communication_cm4.c **** *
  10:ipc_communication_cm4.c **** *******************************************************************************
  11:ipc_communication_cm4.c **** * Copyright 2020-2021, Cypress Semiconductor Corporation (an Infineon company) or
  12:ipc_communication_cm4.c **** * an affiliate of Cypress Semiconductor Corporation.  All rights reserved.
  13:ipc_communication_cm4.c **** *
  14:ipc_communication_cm4.c **** * This software, including source code, documentation and related
  15:ipc_communication_cm4.c **** * materials ("Software") is owned by Cypress Semiconductor Corporation
  16:ipc_communication_cm4.c **** * or one of its affiliates ("Cypress") and is protected by and subject to
  17:ipc_communication_cm4.c **** * worldwide patent protection (United States and foreign),
  18:ipc_communication_cm4.c **** * United States copyright laws and international treaty provisions.
  19:ipc_communication_cm4.c **** * Therefore, you may use this Software only as provided in the license
  20:ipc_communication_cm4.c **** * agreement accompanying the software package from which you
  21:ipc_communication_cm4.c **** * obtained this Software ("EULA").
  22:ipc_communication_cm4.c **** * If no EULA applies, Cypress hereby grants you a personal, non-exclusive,
  23:ipc_communication_cm4.c **** * non-transferable license to copy, modify, and compile the Software
  24:ipc_communication_cm4.c **** * source code solely for use in connection with Cypress's
  25:ipc_communication_cm4.c **** * integrated circuit products.  Any reproduction, modification, translation,
  26:ipc_communication_cm4.c **** * compilation, or representation of this Software except as specified
  27:ipc_communication_cm4.c **** * above is prohibited without the express written permission of Cypress.
  28:ipc_communication_cm4.c **** *
  29:ipc_communication_cm4.c **** * Disclaimer: THIS SOFTWARE IS PROVIDED AS-IS, WITH NO WARRANTY OF ANY KIND,
ARM GAS  C:\Users\guill\AppData\Local\Temp\ccMMFZdi.s 			page 2


  30:ipc_communication_cm4.c **** * EXPRESS OR IMPLIED, INCLUDING, BUT NOT LIMITED TO, NONINFRINGEMENT, IMPLIED
  31:ipc_communication_cm4.c **** * WARRANTIES OF MERCHANTABILITY AND FITNESS FOR A PARTICULAR PURPOSE. Cypress
  32:ipc_communication_cm4.c **** * reserves the right to make changes to the Software without notice. Cypress
  33:ipc_communication_cm4.c **** * does not assume any liability arising out of the application or use of the
  34:ipc_communication_cm4.c **** * Software or any product or circuit described in the Software. Cypress does
  35:ipc_communication_cm4.c **** * not authorize its products for use in any products where a malfunction or
  36:ipc_communication_cm4.c **** * failure of the Cypress product may reasonably be expected to result in
  37:ipc_communication_cm4.c **** * significant property damage, injury or death ("High Risk Product"). By
  38:ipc_communication_cm4.c **** * including Cypress's product in a High Risk Product, the manufacturer
  39:ipc_communication_cm4.c **** * of such system or application assumes all risk of such use and in doing
  40:ipc_communication_cm4.c **** * so agrees to indemnify Cypress against all liability.
  41:ipc_communication_cm4.c **** *******************************************************************************/
  42:ipc_communication_cm4.c **** 
  43:ipc_communication_cm4.c **** 
  44:ipc_communication_cm4.c **** /*******************************************************************************
  45:ipc_communication_cm4.c ****  * Include header files
  46:ipc_communication_cm4.c ****  ******************************************************************************/
  47:ipc_communication_cm4.c **** #include "project.h"
  48:ipc_communication_cm4.c **** #include "ipc_communication.h"
  49:ipc_communication_cm4.c **** #include "system_psoc6.h"
  50:ipc_communication_cm4.c **** 
  51:ipc_communication_cm4.c **** 
  52:ipc_communication_cm4.c **** /*******************************************************************************
  53:ipc_communication_cm4.c ****  * Function definitions
  54:ipc_communication_cm4.c ****  ******************************************************************************/
  55:ipc_communication_cm4.c **** 
  56:ipc_communication_cm4.c **** 
  57:ipc_communication_cm4.c **** /*******************************************************************************
  58:ipc_communication_cm4.c **** * Function Name: setup_ipc_communication_cm4
  59:ipc_communication_cm4.c **** ********************************************************************************
  60:ipc_communication_cm4.c **** * Summary:
  61:ipc_communication_cm4.c **** *        - Initializes IPC Semaphore.
  62:ipc_communication_cm4.c **** *        - Configures CY_PIPE used for System calls, Flash, and BLE.
  63:ipc_communication_cm4.c **** *        - Configures USER_PIPE used in the example for sending CapSense touch
  64:ipc_communication_cm4.c **** *          detection data.
  65:ipc_communication_cm4.c **** *        - Initializes both CY_PIPE and USER_PIPE.
  66:ipc_communication_cm4.c **** *        - Initializes flash after CY_PIPE is initialized.
  67:ipc_communication_cm4.c **** *
  68:ipc_communication_cm4.c **** *******************************************************************************/
  69:ipc_communication_cm4.c **** void setup_ipc_communication_cm4(void)
  70:ipc_communication_cm4.c **** {
  71:ipc_communication_cm4.c ****     #ifdef __CM0P_PRESENT
  72:ipc_communication_cm4.c ****     #if (__CM0P_PRESENT == 0)
  73:ipc_communication_cm4.c ****         /* Allocate and initialize semaphores for the system operations. */
  74:ipc_communication_cm4.c ****         static uint32_t ipcSemaArray[CY_IPC_SEMA_COUNT / CY_IPC_SEMA_PER_WORD];
  75:ipc_communication_cm4.c ****         (void) Cy_IPC_Sema_Init(CY_IPC_CHAN_SEMA, CY_IPC_SEMA_COUNT, ipcSemaArray);
  76:ipc_communication_cm4.c ****     #else
  77:ipc_communication_cm4.c ****         (void) Cy_IPC_Sema_Init(CY_IPC_CHAN_SEMA, 0ul, NULL);
  78:ipc_communication_cm4.c ****     #endif /* (__CM0P_PRESENT) */
  79:ipc_communication_cm4.c **** #else
  80:ipc_communication_cm4.c ****     (void) Cy_IPC_Sema_Init(CY_IPC_CHAN_SEMA, 0ul, NULL);
  81:ipc_communication_cm4.c **** #endif /* __CM0P_PRESENT */
  82:ipc_communication_cm4.c **** 
  83:ipc_communication_cm4.c ****     /* Create an array of endpoint structures */
  84:ipc_communication_cm4.c ****     static cy_stc_ipc_pipe_ep_t systemIpcPipeEpArray[CY_IPC_MAX_ENDPOINTS];
  85:ipc_communication_cm4.c **** 
  86:ipc_communication_cm4.c ****     Cy_IPC_Pipe_Config(systemIpcPipeEpArray);
ARM GAS  C:\Users\guill\AppData\Local\Temp\ccMMFZdi.s 			page 3


  87:ipc_communication_cm4.c **** 
  88:ipc_communication_cm4.c ****     static cy_ipc_pipe_callback_ptr_t systemIpcPipeSysCbArray[CY_SYS_CYPIPE_CLIENT_CNT];
  89:ipc_communication_cm4.c **** 
  90:ipc_communication_cm4.c ****     static const cy_stc_ipc_pipe_config_t systemIpcPipeConfigCm4 =
  91:ipc_communication_cm4.c ****     {
  92:ipc_communication_cm4.c ****     /* .ep0ConfigData */
  93:ipc_communication_cm4.c ****         {
  94:ipc_communication_cm4.c ****             CY_IPC_INTR_CYPIPE_EP0,         /* .ipcNotifierNumber    */  
  95:ipc_communication_cm4.c ****             CY_SYS_INTR_CYPIPE_PRIOR_EP0,   /* .ipcNotifierPriority  */  
  96:ipc_communication_cm4.c ****             CY_SYS_INTR_CYPIPE_MUX_EP0,     /* .ipcNotifierMuxNumber */  
  97:ipc_communication_cm4.c ****             CY_IPC_EP_CYPIPE_CM0_ADDR,      /* .epAddress            */  
  98:ipc_communication_cm4.c ****             CY_SYS_CYPIPE_CONFIG_EP0        /* .epConfig             */  
  99:ipc_communication_cm4.c ****         },
 100:ipc_communication_cm4.c ****     /* .ep1ConfigData */
 101:ipc_communication_cm4.c ****         {
 102:ipc_communication_cm4.c ****             CY_IPC_INTR_CYPIPE_EP1,         /* .ipcNotifierNumber    */
 103:ipc_communication_cm4.c ****             CY_SYS_INTR_CYPIPE_PRIOR_EP1,   /* .ipcNotifierPriority  */
 104:ipc_communication_cm4.c ****             0u,                             /* .ipcNotifierMuxNumber */
 105:ipc_communication_cm4.c ****             CY_IPC_EP_CYPIPE_CM4_ADDR,      /* .epAddress            */
 106:ipc_communication_cm4.c ****             CY_SYS_CYPIPE_CONFIG_EP1        /* .epConfig             */
 107:ipc_communication_cm4.c ****         },
 108:ipc_communication_cm4.c ****         CY_SYS_CYPIPE_CLIENT_CNT,           /* .endpointClientsCount     */   
 109:ipc_communication_cm4.c ****         systemIpcPipeSysCbArray,            /* .endpointsCallbacksArray  */   
 110:ipc_communication_cm4.c ****         &Cy_SysIpcPipeIsrCm4                /* .userPipeIsrHandler       */  
 111:ipc_communication_cm4.c ****     };
 112:ipc_communication_cm4.c **** 
 113:ipc_communication_cm4.c ****     static cy_ipc_pipe_callback_ptr_t user_ipc_pipe_cb_array[USER_IPC_PIPE_CLIENT_CNT];
 114:ipc_communication_cm4.c **** 
 115:ipc_communication_cm4.c ****     static const cy_stc_ipc_pipe_config_t user_ipc_pipe_config_cm4 =
 116:ipc_communication_cm4.c ****     {
 117:ipc_communication_cm4.c ****         /* .ep2ConfigData */
 118:ipc_communication_cm4.c ****         {
 119:ipc_communication_cm4.c ****             USER_IPC_PIPE_INTR_EP0,        /* .ipcNotifierNumber       */
 120:ipc_communication_cm4.c ****             1UL,                           /* .ipcNotifierPriority     */
 121:ipc_communication_cm4.c ****             USER_IPC_PIPE_INTR_MUX_EP0,    /* .ipcNotifierMuxNumber    */
 122:ipc_communication_cm4.c ****             USER_IPC_PIPE_EP_ADDR_CM0,     /* .epAddress               */
 123:ipc_communication_cm4.c ****             USER_IPC_PIPE_EP0_CONFIG       /* .epConfig                */
 124:ipc_communication_cm4.c ****         },
 125:ipc_communication_cm4.c ****         /* .ep3ConfigData */
 126:ipc_communication_cm4.c ****         {
 127:ipc_communication_cm4.c ****             USER_IPC_PIPE_INTR_EP1,        /* .ipcNotifierNumber       */
 128:ipc_communication_cm4.c ****             1UL,                           /* .ipcNotifierPriority     */
 129:ipc_communication_cm4.c ****             0UL,                           /* .ipcNotifierMuxNumber    */
 130:ipc_communication_cm4.c ****             USER_IPC_PIPE_EP_ADDR_CM4,     /* .epAddress               */
 131:ipc_communication_cm4.c ****             USER_IPC_PIPE_EP1_CONFIG       /* .epConfig                */
 132:ipc_communication_cm4.c ****         },
 133:ipc_communication_cm4.c ****         USER_IPC_PIPE_CLIENT_CNT,          /* .endpointClientsCount     */  
 134:ipc_communication_cm4.c ****         user_ipc_pipe_cb_array,           /* .endpointsCallbacksArray  */  
 135:ipc_communication_cm4.c ****         &user_ipc_pipe_isr_cm4               /* .userPipeIsrHandler       */  
 136:ipc_communication_cm4.c ****     };
 137:ipc_communication_cm4.c **** 
 138:ipc_communication_cm4.c ****     
 139:ipc_communication_cm4.c ****     Cy_IPC_Pipe_Init(&systemIpcPipeConfigCm4);
 140:ipc_communication_cm4.c **** 
 141:ipc_communication_cm4.c **** #if defined(CY_DEVICE_PSOC6ABLE2)
 142:ipc_communication_cm4.c ****     Cy_Flash_Init();
 143:ipc_communication_cm4.c **** #endif /* defined(CY_DEVICE_PSOC6ABLE2) */
ARM GAS  C:\Users\guill\AppData\Local\Temp\ccMMFZdi.s 			page 4


 144:ipc_communication_cm4.c **** 
 145:ipc_communication_cm4.c ****     Cy_IPC_Pipe_Init(&user_ipc_pipe_config_cm4);
 146:ipc_communication_cm4.c **** }
 147:ipc_communication_cm4.c **** 
 148:ipc_communication_cm4.c **** 
 149:ipc_communication_cm4.c **** ///*******************************************************************************
 150:ipc_communication_cm4.c **** //* Function Name: Cy_SysIpcPipeIsrCm4
 151:ipc_communication_cm4.c **** //****************************************************************************//**
 152:ipc_communication_cm4.c **** //*
 153:ipc_communication_cm4.c **** //* This is the interrupt service routine for the system pipe.
 154:ipc_communication_cm4.c **** //*
 155:ipc_communication_cm4.c **** //*******************************************************************************/
 156:ipc_communication_cm4.c **** //void Cy_SysIpcPipeIsrCm4(void)
 157:ipc_communication_cm4.c **** //{
 158:ipc_communication_cm4.c **** //    Cy_IPC_Pipe_ExecuteCallback(CY_IPC_EP_CYPIPE_CM4_ADDR);
 159:ipc_communication_cm4.c **** //}
 160:ipc_communication_cm4.c **** 
 161:ipc_communication_cm4.c **** 
 162:ipc_communication_cm4.c **** /*******************************************************************************
 163:ipc_communication_cm4.c **** * Function Name: user_ipc_pipe_isr_cm4
 164:ipc_communication_cm4.c **** ********************************************************************************
 165:ipc_communication_cm4.c **** * Summary: User IRQ handler function that is called when IPC receives data from
 166:ipc_communication_cm4.c **** *          CM0+ to CM4 through USER_PIPE.
 167:ipc_communication_cm4.c **** *
 168:ipc_communication_cm4.c **** *******************************************************************************/
 169:ipc_communication_cm4.c **** void user_ipc_pipe_isr_cm4(void)
 170:ipc_communication_cm4.c **** {
  29              		.loc 1 170 0
  30              		.cfi_startproc
  31              		@ args = 0, pretend = 0, frame = 0
  32              		@ frame_needed = 0, uses_anonymous_args = 0
  33 0000 08B5     		push	{r3, lr}
  34              		.cfi_def_cfa_offset 8
  35              		.cfi_offset 3, -8
  36              		.cfi_offset 14, -4
 171:ipc_communication_cm4.c ****     Cy_IPC_Pipe_ExecuteCallback(USER_IPC_PIPE_EP_ADDR);
  37              		.loc 1 171 0
  38 0002 0320     		movs	r0, #3
  39 0004 FFF7FEFF 		bl	Cy_IPC_Pipe_ExecuteCallback
  40              	.LVL0:
  41 0008 08BD     		pop	{r3, pc}
  42              		.cfi_endproc
  43              	.LFE688:
  44              		.size	user_ipc_pipe_isr_cm4, .-user_ipc_pipe_isr_cm4
  45 000a 00BF     		.section	.text.setup_ipc_communication_cm4,"ax",%progbits
  46              		.align	2
  47              		.global	setup_ipc_communication_cm4
  48              		.thumb
  49              		.thumb_func
  50              		.type	setup_ipc_communication_cm4, %function
  51              	setup_ipc_communication_cm4:
  52              	.LFB687:
  70:ipc_communication_cm4.c ****     #ifdef __CM0P_PRESENT
  53              		.loc 1 70 0
  54              		.cfi_startproc
  55              		@ args = 0, pretend = 0, frame = 0
  56              		@ frame_needed = 0, uses_anonymous_args = 0
ARM GAS  C:\Users\guill\AppData\Local\Temp\ccMMFZdi.s 			page 5


  57 0000 10B5     		push	{r4, lr}
  58              		.cfi_def_cfa_offset 8
  59              		.cfi_offset 4, -8
  60              		.cfi_offset 14, -4
  77:ipc_communication_cm4.c ****     #endif /* (__CM0P_PRESENT) */
  61              		.loc 1 77 0
  62 0002 0022     		movs	r2, #0
  63 0004 1146     		mov	r1, r2
  64 0006 0420     		movs	r0, #4
  65 0008 FFF7FEFF 		bl	Cy_IPC_Sema_Init
  66              	.LVL1:
  86:ipc_communication_cm4.c **** 
  67              		.loc 1 86 0
  68 000c 0648     		ldr	r0, .L5
  69 000e FFF7FEFF 		bl	Cy_IPC_Pipe_Config
  70              	.LVL2:
 139:ipc_communication_cm4.c **** 
  71              		.loc 1 139 0
  72 0012 064C     		ldr	r4, .L5+4
  73 0014 2046     		mov	r0, r4
  74 0016 FFF7FEFF 		bl	Cy_IPC_Pipe_Init
  75              	.LVL3:
 142:ipc_communication_cm4.c **** #endif /* defined(CY_DEVICE_PSOC6ABLE2) */
  76              		.loc 1 142 0
  77 001a FFF7FEFF 		bl	Cy_Flash_Init
  78              	.LVL4:
 145:ipc_communication_cm4.c **** }
  79              		.loc 1 145 0
  80 001e 04F13400 		add	r0, r4, #52
  81 0022 FFF7FEFF 		bl	Cy_IPC_Pipe_Init
  82              	.LVL5:
  83 0026 10BD     		pop	{r4, pc}
  84              	.L6:
  85              		.align	2
  86              	.L5:
  87 0028 00000000 		.word	.LANCHOR0
  88 002c 00000000 		.word	.LANCHOR1
  89              		.cfi_endproc
  90              	.LFE687:
  91              		.size	setup_ipc_communication_cm4, .-setup_ipc_communication_cm4
  92              		.section	.rodata
  93              		.align	2
  94              		.set	.LANCHOR1,. + 0
  95              		.type	systemIpcPipeConfigCm4.18145, %object
  96              		.size	systemIpcPipeConfigCm4.18145, 52
  97              	systemIpcPipeConfigCm4.18145:
  98 0000 03000000 		.word	3
  99 0004 01000000 		.word	1
 100 0008 01000000 		.word	1
 101 000c 00000000 		.word	0
 102 0010 05036000 		.word	6292229
 103 0014 04000000 		.word	4
 104 0018 01000000 		.word	1
 105 001c 00000000 		.word	0
 106 0020 01000000 		.word	1
 107 0024 06046000 		.word	6292486
 108 0028 08000000 		.word	8
ARM GAS  C:\Users\guill\AppData\Local\Temp\ccMMFZdi.s 			page 6


 109 002c 60010000 		.word	systemIpcPipeSysCbArray.18144
 110 0030 00000000 		.word	Cy_SysIpcPipeIsrCm4
 111              		.type	user_ipc_pipe_config_cm4.18147, %object
 112              		.size	user_ipc_pipe_config_cm4.18147, 52
 113              	user_ipc_pipe_config_cm4.18147:
 114 0034 08000000 		.word	8
 115 0038 01000000 		.word	1
 116 003c 02000000 		.word	2
 117 0040 02000000 		.word	2
 118 0044 08080003 		.word	50333704
 119 0048 09000000 		.word	9
 120 004c 01000000 		.word	1
 121 0050 00000000 		.word	0
 122 0054 03000000 		.word	3
 123 0058 09090003 		.word	50333961
 124 005c 04000000 		.word	4
 125 0060 80010000 		.word	user_ipc_pipe_cb_array.18146
 126 0064 00000000 		.word	user_ipc_pipe_isr_cm4
 127              		.bss
 128              		.align	2
 129              		.set	.LANCHOR0,. + 0
 130              		.type	systemIpcPipeEpArray.18143, %object
 131              		.size	systemIpcPipeEpArray.18143, 352
 132              	systemIpcPipeEpArray.18143:
 133 0000 00000000 		.space	352
 133      00000000 
 133      00000000 
 133      00000000 
 133      00000000 
 134              		.type	systemIpcPipeSysCbArray.18144, %object
 135              		.size	systemIpcPipeSysCbArray.18144, 32
 136              	systemIpcPipeSysCbArray.18144:
 137 0160 00000000 		.space	32
 137      00000000 
 137      00000000 
 137      00000000 
 137      00000000 
 138              		.type	user_ipc_pipe_cb_array.18146, %object
 139              		.size	user_ipc_pipe_cb_array.18146, 16
 140              	user_ipc_pipe_cb_array.18146:
 141 0180 00000000 		.space	16
 141      00000000 
 141      00000000 
 141      00000000 
 142              		.text
 143              	.Letext0:
 144              		.file 2 "Generated_Source\\PSoC6\\pdl\\devices/psoc6/include/cyble_416045_02.h"
 145              		.file 3 "c:\\program files (x86)\\cypress\\psoc creator\\4.4\\psoc creator\\import\\gnu\\arm\\5.4.
 146              		.file 4 "c:\\program files (x86)\\cypress\\psoc creator\\4.4\\psoc creator\\import\\gnu\\arm\\5.4.
 147              		.file 5 "Generated_Source\\PSoC6\\pdl\\devices/psoc6/include/ip/cyip_ipc.h"
 148              		.file 6 "Generated_Source\\PSoC6\\pdl\\devices/psoc6/include/psoc6_01_config.h"
 149              		.file 7 "Generated_Source\\PSoC6\\pdl\\drivers/peripheral/device/cy_device.h"
 150              		.file 8 "Generated_Source\\PSoC6\\pdl\\drivers/peripheral/syslib/cy_syslib.h"
 151              		.file 9 "Generated_Source\\PSoC6\\pdl\\drivers/peripheral/ipc/cy_ipc_pipe.h"
 152              		.file 10 "Generated_Source\\PSoC6\\pdl\\drivers/peripheral/scb/cy_scb_i2c.h"
 153              		.file 11 "Generated_Source\\PSoC6\\pdl\\drivers/peripheral/scb/cy_scb_uart.h"
 154              		.file 12 "Generated_Source\\PSoC6\\pdl\\drivers/peripheral/tcpwm/cy_tcpwm_counter.h"
ARM GAS  C:\Users\guill\AppData\Local\Temp\ccMMFZdi.s 			page 7


 155              		.file 13 "Generated_Source\\PSoC6\\pdl\\drivers/peripheral/tcpwm/cy_tcpwm_pwm.h"
 156              		.file 14 "Generated_Source\\PSoC6\\pdl\\middleware/ble/cy_ble_stack_host_main.h"
 157              		.file 15 "Generated_Source\\PSoC6\\pdl\\middleware/ble/cy_ble_gap.h"
 158              		.file 16 "Generated_Source\\PSoC6\\pdl\\cmsis/include/core_cm4.h"
 159              		.file 17 "Generated_Source\\PSoC6/UART.h"
 160              		.file 18 "Generated_Source\\PSoC6/PWM_Blue.h"
 161              		.file 19 "Generated_Source\\PSoC6/PWM_Green.h"
 162              		.file 20 "Generated_Source\\PSoC6/I2C.h"
 163              		.file 21 "Generated_Source\\PSoC6/Timer_Echo.h"
 164              		.file 22 "Generated_Source\\PSoC6/PWM_Trigger.h"
 165              		.file 23 "Generated_Source\\PSoC6\\pdl\\drivers/peripheral/ipc/cy_ipc_sema.h"
 166              		.file 24 "Generated_Source\\PSoC6\\pdl\\drivers/peripheral/flash/cy_flash.h"