ARM GAS  C:\Users\guill\AppData\Local\Temp\ccSz7NWo.s 			page 1


   1              		.syntax unified
   2              		.cpu cortex-m4
   3              		.eabi_attribute 27, 1
   4              		.fpu fpv4-sp-d16
   5              		.eabi_attribute 20, 1
   6              		.eabi_attribute 21, 1
   7              		.eabi_attribute 23, 3
   8              		.eabi_attribute 24, 1
   9              		.eabi_attribute 25, 1
  10              		.eabi_attribute 26, 1
  11              		.eabi_attribute 30, 1
  12              		.eabi_attribute 34, 1
  13              		.eabi_attribute 18, 4
  14              		.thumb
  15              		.syntax unified
  16              		.file	"cy_ble_hal_pvt.c"
  17              		.text
  18              	.Ltext0:
  19              		.cfi_sections	.debug_frame
  20              		.section	.text.Cy_BLE_HAL_RadioCalibrationRead,"ax",%progbits
  21              		.align	2
  22              		.global	Cy_BLE_HAL_RadioCalibrationRead
  23              		.thumb
  24              		.thumb_func
  25              		.type	Cy_BLE_HAL_RadioCalibrationRead, %function
  26              	Cy_BLE_HAL_RadioCalibrationRead:
  27              	.LFB257:
  28              		.file 1 "Generated_Source\\PSoC6\\pdl\\middleware\\ble\\cy_ble_hal_pvt.c"
   1:Generated_Source\PSoC6\pdl\middleware\ble/cy_ble_hal_pvt.c **** /***************************************************************************//**
   2:Generated_Source\PSoC6\pdl\middleware\ble/cy_ble_hal_pvt.c **** * \file cy_ble_hal_pvt.c
   3:Generated_Source\PSoC6\pdl\middleware\ble/cy_ble_hal_pvt.c **** * \version 2.60
   4:Generated_Source\PSoC6\pdl\middleware\ble/cy_ble_hal_pvt.c **** *
   5:Generated_Source\PSoC6\pdl\middleware\ble/cy_ble_hal_pvt.c **** * \brief
   6:Generated_Source\PSoC6\pdl\middleware\ble/cy_ble_hal_pvt.c **** *  This file contains the source code for the HAL section of the BLE Middleware.
   7:Generated_Source\PSoC6\pdl\middleware\ble/cy_ble_hal_pvt.c **** *
   8:Generated_Source\PSoC6\pdl\middleware\ble/cy_ble_hal_pvt.c **** ********************************************************************************
   9:Generated_Source\PSoC6\pdl\middleware\ble/cy_ble_hal_pvt.c **** * \copyright
  10:Generated_Source\PSoC6\pdl\middleware\ble/cy_ble_hal_pvt.c **** * Copyright 2017-2020, Cypress Semiconductor Corporation.  All rights reserved.
  11:Generated_Source\PSoC6\pdl\middleware\ble/cy_ble_hal_pvt.c **** * You may use this file only in accordance with the license, terms, conditions,
  12:Generated_Source\PSoC6\pdl\middleware\ble/cy_ble_hal_pvt.c **** * disclaimers, and limitations in the end user license agreement accompanying
  13:Generated_Source\PSoC6\pdl\middleware\ble/cy_ble_hal_pvt.c **** * the software package with which this file was provided.
  14:Generated_Source\PSoC6\pdl\middleware\ble/cy_ble_hal_pvt.c **** *******************************************************************************/
  15:Generated_Source\PSoC6\pdl\middleware\ble/cy_ble_hal_pvt.c **** 
  16:Generated_Source\PSoC6\pdl\middleware\ble/cy_ble_hal_pvt.c **** #include "cy_ble_event_handler.h"
  17:Generated_Source\PSoC6\pdl\middleware\ble/cy_ble_hal_pvt.c **** #include "cy_ble_hal_pvt.h"
  18:Generated_Source\PSoC6\pdl\middleware\ble/cy_ble_hal_pvt.c **** #include "ipc/cy_ipc_sema.h"
  19:Generated_Source\PSoC6\pdl\middleware\ble/cy_ble_hal_pvt.c **** #include <math.h>
  20:Generated_Source\PSoC6\pdl\middleware\ble/cy_ble_hal_pvt.c **** #include <stdlib.h>
  21:Generated_Source\PSoC6\pdl\middleware\ble/cy_ble_hal_pvt.c **** 
  22:Generated_Source\PSoC6\pdl\middleware\ble/cy_ble_hal_pvt.c **** /* C binding of definitions if building with C++ compiler */
  23:Generated_Source\PSoC6\pdl\middleware\ble/cy_ble_hal_pvt.c **** #ifdef __cplusplus
  24:Generated_Source\PSoC6\pdl\middleware\ble/cy_ble_hal_pvt.c **** extern "C" {
  25:Generated_Source\PSoC6\pdl\middleware\ble/cy_ble_hal_pvt.c **** #endif /* __cplusplus */
  26:Generated_Source\PSoC6\pdl\middleware\ble/cy_ble_hal_pvt.c **** 
  27:Generated_Source\PSoC6\pdl\middleware\ble/cy_ble_hal_pvt.c **** #if (CY_BLE_HOST_CORE)
  28:Generated_Source\PSoC6\pdl\middleware\ble/cy_ble_hal_pvt.c **** cy_ble_intr_callback_t Cy_BLE_InterruptCallback = NULL;
  29:Generated_Source\PSoC6\pdl\middleware\ble/cy_ble_hal_pvt.c **** #endif /* (CY_BLE_HOST_CORE) */
ARM GAS  C:\Users\guill\AppData\Local\Temp\ccSz7NWo.s 			page 2


  30:Generated_Source\PSoC6\pdl\middleware\ble/cy_ble_hal_pvt.c **** 
  31:Generated_Source\PSoC6\pdl\middleware\ble/cy_ble_hal_pvt.c **** #if (CY_BLE_HOST_CONTR_CORE)
  32:Generated_Source\PSoC6\pdl\middleware\ble/cy_ble_hal_pvt.c **** /* Nominal trim step size */    
  33:Generated_Source\PSoC6\pdl\middleware\ble/cy_ble_hal_pvt.c **** static uint32 piloTrimStepSize = CY_BLE_PILO_TRIM_STEP;
  34:Generated_Source\PSoC6\pdl\middleware\ble/cy_ble_hal_pvt.c ****     
  35:Generated_Source\PSoC6\pdl\middleware\ble/cy_ble_hal_pvt.c **** #if (CY_BLE_STACK_MODE_HOST_UART)
  36:Generated_Source\PSoC6\pdl\middleware\ble/cy_ble_hal_pvt.c ****     
  37:Generated_Source\PSoC6\pdl\middleware\ble/cy_ble_hal_pvt.c **** /*******************************************************************************
  38:Generated_Source\PSoC6\pdl\middleware\ble/cy_ble_hal_pvt.c **** * Function Name: Cy_BLE_HAL_HOST_UART_Start
  39:Generated_Source\PSoC6\pdl\middleware\ble/cy_ble_hal_pvt.c **** ****************************************************************************//**
  40:Generated_Source\PSoC6\pdl\middleware\ble/cy_ble_hal_pvt.c **** *
  41:Generated_Source\PSoC6\pdl\middleware\ble/cy_ble_hal_pvt.c **** *  Enables the platform UART TX and RX interrupts and then enables the UART.
  42:Generated_Source\PSoC6\pdl\middleware\ble/cy_ble_hal_pvt.c **** *
  43:Generated_Source\PSoC6\pdl\middleware\ble/cy_ble_hal_pvt.c **** * \return
  44:Generated_Source\PSoC6\pdl\middleware\ble/cy_ble_hal_pvt.c **** *  None
  45:Generated_Source\PSoC6\pdl\middleware\ble/cy_ble_hal_pvt.c **** *
  46:Generated_Source\PSoC6\pdl\middleware\ble/cy_ble_hal_pvt.c **** *******************************************************************************/
  47:Generated_Source\PSoC6\pdl\middleware\ble/cy_ble_hal_pvt.c **** void Cy_BLE_HAL_HOST_UART_Start(void)
  48:Generated_Source\PSoC6\pdl\middleware\ble/cy_ble_hal_pvt.c **** {
  49:Generated_Source\PSoC6\pdl\middleware\ble/cy_ble_hal_pvt.c ****     /* Setup ISR */
  50:Generated_Source\PSoC6\pdl\middleware\ble/cy_ble_hal_pvt.c ****     Cy_SysInt_Init(cy_ble_configPtr->uartHostIsrConfig, &Cy_BLE_HAL_HOST_UART_Interrupt);
  51:Generated_Source\PSoC6\pdl\middleware\ble/cy_ble_hal_pvt.c ****     NVIC_EnableIRQ((IRQn_Type)cy_ble_configPtr->uartHostIsrConfig->intrSrc);
  52:Generated_Source\PSoC6\pdl\middleware\ble/cy_ble_hal_pvt.c **** 
  53:Generated_Source\PSoC6\pdl\middleware\ble/cy_ble_hal_pvt.c ****     (void)Cy_SCB_UART_Init(cy_ble_configPtr->uartHostHw, cy_ble_configPtr->uartHostConfig, NULL);
  54:Generated_Source\PSoC6\pdl\middleware\ble/cy_ble_hal_pvt.c ****     /* Configure interrupt sources. */
  55:Generated_Source\PSoC6\pdl\middleware\ble/cy_ble_hal_pvt.c ****     Cy_SCB_SetRxInterruptMask(cy_ble_configPtr->uartHostHw, CY_SCB_RX_INTR_NOT_EMPTY | CY_SCB_RX_IN
  56:Generated_Source\PSoC6\pdl\middleware\ble/cy_ble_hal_pvt.c ****                               CY_SCB_RX_INTR_UNDERFLOW);
  57:Generated_Source\PSoC6\pdl\middleware\ble/cy_ble_hal_pvt.c ****     Cy_SCB_SetTxInterruptMask(cy_ble_configPtr->uartHostHw, CY_SCB_TX_INTR_OVERFLOW | CY_SCB_TX_INT
  58:Generated_Source\PSoC6\pdl\middleware\ble/cy_ble_hal_pvt.c **** 
  59:Generated_Source\PSoC6\pdl\middleware\ble/cy_ble_hal_pvt.c ****     Cy_SCB_UART_Enable(cy_ble_configPtr->uartHostHw);
  60:Generated_Source\PSoC6\pdl\middleware\ble/cy_ble_hal_pvt.c **** }
  61:Generated_Source\PSoC6\pdl\middleware\ble/cy_ble_hal_pvt.c **** 
  62:Generated_Source\PSoC6\pdl\middleware\ble/cy_ble_hal_pvt.c **** 
  63:Generated_Source\PSoC6\pdl\middleware\ble/cy_ble_hal_pvt.c **** /*******************************************************************************
  64:Generated_Source\PSoC6\pdl\middleware\ble/cy_ble_hal_pvt.c **** * Function Name: Cy_BLE_HAL_HOST_UART_Stop
  65:Generated_Source\PSoC6\pdl\middleware\ble/cy_ble_hal_pvt.c **** ****************************************************************************//**
  66:Generated_Source\PSoC6\pdl\middleware\ble/cy_ble_hal_pvt.c **** *
  67:Generated_Source\PSoC6\pdl\middleware\ble/cy_ble_hal_pvt.c **** *  Disables the UART, clears all pending interrupts and disables the UART TX
  68:Generated_Source\PSoC6\pdl\middleware\ble/cy_ble_hal_pvt.c **** *  and RX interrupts. This will also empty out the FIFOs.
  69:Generated_Source\PSoC6\pdl\middleware\ble/cy_ble_hal_pvt.c **** *
  70:Generated_Source\PSoC6\pdl\middleware\ble/cy_ble_hal_pvt.c **** * \return
  71:Generated_Source\PSoC6\pdl\middleware\ble/cy_ble_hal_pvt.c **** *  None
  72:Generated_Source\PSoC6\pdl\middleware\ble/cy_ble_hal_pvt.c **** *
  73:Generated_Source\PSoC6\pdl\middleware\ble/cy_ble_hal_pvt.c **** *******************************************************************************/
  74:Generated_Source\PSoC6\pdl\middleware\ble/cy_ble_hal_pvt.c **** void Cy_BLE_HAL_HOST_UART_Stop(void)
  75:Generated_Source\PSoC6\pdl\middleware\ble/cy_ble_hal_pvt.c **** {
  76:Generated_Source\PSoC6\pdl\middleware\ble/cy_ble_hal_pvt.c ****     /* Stop interrupt and UART */
  77:Generated_Source\PSoC6\pdl\middleware\ble/cy_ble_hal_pvt.c ****     NVIC_DisableIRQ((IRQn_Type)cy_ble_configPtr->uartHostIsrConfig->intrSrc);
  78:Generated_Source\PSoC6\pdl\middleware\ble/cy_ble_hal_pvt.c **** 
  79:Generated_Source\PSoC6\pdl\middleware\ble/cy_ble_hal_pvt.c ****     Cy_SCB_UART_Disable(cy_ble_configPtr->uartHostHw, NULL);
  80:Generated_Source\PSoC6\pdl\middleware\ble/cy_ble_hal_pvt.c **** }
  81:Generated_Source\PSoC6\pdl\middleware\ble/cy_ble_hal_pvt.c **** 
  82:Generated_Source\PSoC6\pdl\middleware\ble/cy_ble_hal_pvt.c **** 
  83:Generated_Source\PSoC6\pdl\middleware\ble/cy_ble_hal_pvt.c **** /*******************************************************************************
  84:Generated_Source\PSoC6\pdl\middleware\ble/cy_ble_hal_pvt.c **** * Function Name: Cy_BLE_HAL_HOST_UART_Transmit
  85:Generated_Source\PSoC6\pdl\middleware\ble/cy_ble_hal_pvt.c **** ****************************************************************************//**
  86:Generated_Source\PSoC6\pdl\middleware\ble/cy_ble_hal_pvt.c **** *
ARM GAS  C:\Users\guill\AppData\Local\Temp\ccSz7NWo.s 			page 3


  87:Generated_Source\PSoC6\pdl\middleware\ble/cy_ble_hal_pvt.c **** *  Sends the data to UART TX FIFO. The function handles data length up to the
  88:Generated_Source\PSoC6\pdl\middleware\ble/cy_ble_hal_pvt.c **** *  supported TX FIFO length of the UART hardware module.
  89:Generated_Source\PSoC6\pdl\middleware\ble/cy_ble_hal_pvt.c **** *
  90:Generated_Source\PSoC6\pdl\middleware\ble/cy_ble_hal_pvt.c **** *  \param data: Pointer to the data to send through the UART
  91:Generated_Source\PSoC6\pdl\middleware\ble/cy_ble_hal_pvt.c **** *  \param length: the length of data to transmit in bytes
  92:Generated_Source\PSoC6\pdl\middleware\ble/cy_ble_hal_pvt.c **** *
  93:Generated_Source\PSoC6\pdl\middleware\ble/cy_ble_hal_pvt.c **** * \return
  94:Generated_Source\PSoC6\pdl\middleware\ble/cy_ble_hal_pvt.c **** *  None
  95:Generated_Source\PSoC6\pdl\middleware\ble/cy_ble_hal_pvt.c **** *
  96:Generated_Source\PSoC6\pdl\middleware\ble/cy_ble_hal_pvt.c **** *******************************************************************************/
  97:Generated_Source\PSoC6\pdl\middleware\ble/cy_ble_hal_pvt.c **** void Cy_BLE_HAL_HOST_UART_Transmit(const uint8_t *dataBuf,
  98:Generated_Source\PSoC6\pdl\middleware\ble/cy_ble_hal_pvt.c ****                                    uint8_t length)
  99:Generated_Source\PSoC6\pdl\middleware\ble/cy_ble_hal_pvt.c **** {
 100:Generated_Source\PSoC6\pdl\middleware\ble/cy_ble_hal_pvt.c ****     Cy_SCB_UART_PutArrayBlocking(cy_ble_configPtr->uartHostHw, (uint8_t*)dataBuf, (uint32_t)length)
 101:Generated_Source\PSoC6\pdl\middleware\ble/cy_ble_hal_pvt.c **** }
 102:Generated_Source\PSoC6\pdl\middleware\ble/cy_ble_hal_pvt.c **** 
 103:Generated_Source\PSoC6\pdl\middleware\ble/cy_ble_hal_pvt.c **** 
 104:Generated_Source\PSoC6\pdl\middleware\ble/cy_ble_hal_pvt.c **** /*******************************************************************************
 105:Generated_Source\PSoC6\pdl\middleware\ble/cy_ble_hal_pvt.c **** * Function Name: Cy_BLE_HAL_HOST_UART_IsrEnable
 106:Generated_Source\PSoC6\pdl\middleware\ble/cy_ble_hal_pvt.c **** ****************************************************************************//**
 107:Generated_Source\PSoC6\pdl\middleware\ble/cy_ble_hal_pvt.c **** *
 108:Generated_Source\PSoC6\pdl\middleware\ble/cy_ble_hal_pvt.c **** *   Enables the UART interrupt to the interrupt controller.
 109:Generated_Source\PSoC6\pdl\middleware\ble/cy_ble_hal_pvt.c **** *   Do not call this function unless Cy_BLE_HAL_HOST_UART_Start() has been called or the
 110:Generated_Source\PSoC6\pdl\middleware\ble/cy_ble_hal_pvt.c **** *   functionality of the Cy_SysInt_Init() function, which sets the vector and the
 111:Generated_Source\PSoC6\pdl\middleware\ble/cy_ble_hal_pvt.c **** *   priority, has been called.
 112:Generated_Source\PSoC6\pdl\middleware\ble/cy_ble_hal_pvt.c **** *
 113:Generated_Source\PSoC6\pdl\middleware\ble/cy_ble_hal_pvt.c **** *******************************************************************************/
 114:Generated_Source\PSoC6\pdl\middleware\ble/cy_ble_hal_pvt.c **** void Cy_BLE_HAL_HOST_UART_IsrEnable(void)
 115:Generated_Source\PSoC6\pdl\middleware\ble/cy_ble_hal_pvt.c **** {
 116:Generated_Source\PSoC6\pdl\middleware\ble/cy_ble_hal_pvt.c ****     NVIC_EnableIRQ((IRQn_Type)cy_ble_configPtr->uartHostIsrConfig->intrSrc);
 117:Generated_Source\PSoC6\pdl\middleware\ble/cy_ble_hal_pvt.c **** }
 118:Generated_Source\PSoC6\pdl\middleware\ble/cy_ble_hal_pvt.c **** 
 119:Generated_Source\PSoC6\pdl\middleware\ble/cy_ble_hal_pvt.c **** 
 120:Generated_Source\PSoC6\pdl\middleware\ble/cy_ble_hal_pvt.c **** /*******************************************************************************
 121:Generated_Source\PSoC6\pdl\middleware\ble/cy_ble_hal_pvt.c **** * Function Name: Cy_BLE_HAL_HOST_UART_IsrDisable
 122:Generated_Source\PSoC6\pdl\middleware\ble/cy_ble_hal_pvt.c **** ****************************************************************************//**
 123:Generated_Source\PSoC6\pdl\middleware\ble/cy_ble_hal_pvt.c **** *
 124:Generated_Source\PSoC6\pdl\middleware\ble/cy_ble_hal_pvt.c **** *   Disables the UART Interrupt in the interrupt controller.
 125:Generated_Source\PSoC6\pdl\middleware\ble/cy_ble_hal_pvt.c **** *
 126:Generated_Source\PSoC6\pdl\middleware\ble/cy_ble_hal_pvt.c **** *******************************************************************************/
 127:Generated_Source\PSoC6\pdl\middleware\ble/cy_ble_hal_pvt.c **** void Cy_BLE_HAL_HOST_UART_IsrDisable(void)
 128:Generated_Source\PSoC6\pdl\middleware\ble/cy_ble_hal_pvt.c **** {
 129:Generated_Source\PSoC6\pdl\middleware\ble/cy_ble_hal_pvt.c ****     NVIC_DisableIRQ((IRQn_Type)cy_ble_configPtr->uartHostIsrConfig->intrSrc);
 130:Generated_Source\PSoC6\pdl\middleware\ble/cy_ble_hal_pvt.c **** }
 131:Generated_Source\PSoC6\pdl\middleware\ble/cy_ble_hal_pvt.c **** #endif /* (CY_BLE_STACK_MODE_HOST_UART) */
 132:Generated_Source\PSoC6\pdl\middleware\ble/cy_ble_hal_pvt.c **** 
 133:Generated_Source\PSoC6\pdl\middleware\ble/cy_ble_hal_pvt.c **** 
 134:Generated_Source\PSoC6\pdl\middleware\ble/cy_ble_hal_pvt.c **** #if(CY_BLE_STACK_MODE_CONTR_UART)
 135:Generated_Source\PSoC6\pdl\middleware\ble/cy_ble_hal_pvt.c **** 
 136:Generated_Source\PSoC6\pdl\middleware\ble/cy_ble_hal_pvt.c **** /*******************************************************************************
 137:Generated_Source\PSoC6\pdl\middleware\ble/cy_ble_hal_pvt.c **** * Function Name: Cy_BLE_HAL_UART_Interrupt
 138:Generated_Source\PSoC6\pdl\middleware\ble/cy_ble_hal_pvt.c **** ****************************************************************************//**
 139:Generated_Source\PSoC6\pdl\middleware\ble/cy_ble_hal_pvt.c **** *
 140:Generated_Source\PSoC6\pdl\middleware\ble/cy_ble_hal_pvt.c **** *  Handles the Interrupt Service Routine for the UART.
 141:Generated_Source\PSoC6\pdl\middleware\ble/cy_ble_hal_pvt.c **** *
 142:Generated_Source\PSoC6\pdl\middleware\ble/cy_ble_hal_pvt.c **** * \return
 143:Generated_Source\PSoC6\pdl\middleware\ble/cy_ble_hal_pvt.c **** *  None
ARM GAS  C:\Users\guill\AppData\Local\Temp\ccSz7NWo.s 			page 4


 144:Generated_Source\PSoC6\pdl\middleware\ble/cy_ble_hal_pvt.c **** *
 145:Generated_Source\PSoC6\pdl\middleware\ble/cy_ble_hal_pvt.c **** *******************************************************************************/
 146:Generated_Source\PSoC6\pdl\middleware\ble/cy_ble_hal_pvt.c **** void Cy_BLE_HAL_UART_Interrupt(void)
 147:Generated_Source\PSoC6\pdl\middleware\ble/cy_ble_hal_pvt.c **** {
 148:Generated_Source\PSoC6\pdl\middleware\ble/cy_ble_hal_pvt.c ****     uint8_t uartTxStatus = CY_BLE_INTR_TX_SUCCESS;
 149:Generated_Source\PSoC6\pdl\middleware\ble/cy_ble_hal_pvt.c ****     uint32_t srcInterrupt;
 150:Generated_Source\PSoC6\pdl\middleware\ble/cy_ble_hal_pvt.c **** 
 151:Generated_Source\PSoC6\pdl\middleware\ble/cy_ble_hal_pvt.c ****     uint8_t length = 0u;
 152:Generated_Source\PSoC6\pdl\middleware\ble/cy_ble_hal_pvt.c ****     uint8_t srcCount = 0u;
 153:Generated_Source\PSoC6\pdl\middleware\ble/cy_ble_hal_pvt.c ****     uint8_t uartRxStatus = CY_BLE_INTR_RX_SUCCESS;
 154:Generated_Source\PSoC6\pdl\middleware\ble/cy_ble_hal_pvt.c ****     uint8_t receivedData;
 155:Generated_Source\PSoC6\pdl\middleware\ble/cy_ble_hal_pvt.c **** 
 156:Generated_Source\PSoC6\pdl\middleware\ble/cy_ble_hal_pvt.c ****     /* Evaluate RX interrupt event */
 157:Generated_Source\PSoC6\pdl\middleware\ble/cy_ble_hal_pvt.c ****     srcInterrupt = Cy_SCB_GetRxInterruptStatusMasked(cy_ble_configPtr->uartHw);
 158:Generated_Source\PSoC6\pdl\middleware\ble/cy_ble_hal_pvt.c **** 
 159:Generated_Source\PSoC6\pdl\middleware\ble/cy_ble_hal_pvt.c ****     if(0u != (srcInterrupt & CY_SCB_RX_INTR_NOT_EMPTY))
 160:Generated_Source\PSoC6\pdl\middleware\ble/cy_ble_hal_pvt.c ****     {
 161:Generated_Source\PSoC6\pdl\middleware\ble/cy_ble_hal_pvt.c ****         if(0u != (srcInterrupt & CY_SCB_RX_INTR_UART_PARITY_ERROR))
 162:Generated_Source\PSoC6\pdl\middleware\ble/cy_ble_hal_pvt.c ****         {
 163:Generated_Source\PSoC6\pdl\middleware\ble/cy_ble_hal_pvt.c ****             uartRxStatus |= CY_BLE_INTR_RX_PARITY_ERROR;
 164:Generated_Source\PSoC6\pdl\middleware\ble/cy_ble_hal_pvt.c ****         }
 165:Generated_Source\PSoC6\pdl\middleware\ble/cy_ble_hal_pvt.c ****         if(0u != (srcInterrupt & CY_SCB_RX_INTR_UART_FRAME_ERROR))
 166:Generated_Source\PSoC6\pdl\middleware\ble/cy_ble_hal_pvt.c ****         {
 167:Generated_Source\PSoC6\pdl\middleware\ble/cy_ble_hal_pvt.c ****             uartRxStatus |= CY_BLE_INTR_RX_FRAME_ERROR;
 168:Generated_Source\PSoC6\pdl\middleware\ble/cy_ble_hal_pvt.c ****         }
 169:Generated_Source\PSoC6\pdl\middleware\ble/cy_ble_hal_pvt.c ****         if(0u != (srcInterrupt & CY_SCB_RX_INTR_OVERFLOW))
 170:Generated_Source\PSoC6\pdl\middleware\ble/cy_ble_hal_pvt.c ****         {
 171:Generated_Source\PSoC6\pdl\middleware\ble/cy_ble_hal_pvt.c ****             uartRxStatus |= CY_BLE_INTR_RX_OVERFLOW;
 172:Generated_Source\PSoC6\pdl\middleware\ble/cy_ble_hal_pvt.c ****         }
 173:Generated_Source\PSoC6\pdl\middleware\ble/cy_ble_hal_pvt.c ****         if(uartRxStatus == CY_BLE_INTR_RX_SUCCESS)
 174:Generated_Source\PSoC6\pdl\middleware\ble/cy_ble_hal_pvt.c ****         {
 175:Generated_Source\PSoC6\pdl\middleware\ble/cy_ble_hal_pvt.c ****             length = (uint8_t)Cy_SCB_GetNumInRxFifo(cy_ble_configPtr->uartHw);
 176:Generated_Source\PSoC6\pdl\middleware\ble/cy_ble_hal_pvt.c ****             for(srcCount = 0u; srcCount < length; srcCount++)
 177:Generated_Source\PSoC6\pdl\middleware\ble/cy_ble_hal_pvt.c ****             {
 178:Generated_Source\PSoC6\pdl\middleware\ble/cy_ble_hal_pvt.c ****                 receivedData = (uint8_t)Cy_SCB_ReadRxFifo(cy_ble_configPtr->uartHw);
 179:Generated_Source\PSoC6\pdl\middleware\ble/cy_ble_hal_pvt.c ****                 Cy_BLE_HAL_UartRxDataHandler(receivedData);
 180:Generated_Source\PSoC6\pdl\middleware\ble/cy_ble_hal_pvt.c ****             }
 181:Generated_Source\PSoC6\pdl\middleware\ble/cy_ble_hal_pvt.c ****         }
 182:Generated_Source\PSoC6\pdl\middleware\ble/cy_ble_hal_pvt.c ****         else
 183:Generated_Source\PSoC6\pdl\middleware\ble/cy_ble_hal_pvt.c ****         {
 184:Generated_Source\PSoC6\pdl\middleware\ble/cy_ble_hal_pvt.c ****             Cy_SCB_ClearRxFifo(cy_ble_configPtr->uartHw);
 185:Generated_Source\PSoC6\pdl\middleware\ble/cy_ble_hal_pvt.c ****         }
 186:Generated_Source\PSoC6\pdl\middleware\ble/cy_ble_hal_pvt.c ****         Cy_SCB_ClearRxInterrupt(cy_ble_configPtr->uartHw, srcInterrupt);
 187:Generated_Source\PSoC6\pdl\middleware\ble/cy_ble_hal_pvt.c ****     }
 188:Generated_Source\PSoC6\pdl\middleware\ble/cy_ble_hal_pvt.c ****     else
 189:Generated_Source\PSoC6\pdl\middleware\ble/cy_ble_hal_pvt.c ****     {
 190:Generated_Source\PSoC6\pdl\middleware\ble/cy_ble_hal_pvt.c ****         /* No RX interrupt. Do nothing. */
 191:Generated_Source\PSoC6\pdl\middleware\ble/cy_ble_hal_pvt.c ****     }
 192:Generated_Source\PSoC6\pdl\middleware\ble/cy_ble_hal_pvt.c **** 
 193:Generated_Source\PSoC6\pdl\middleware\ble/cy_ble_hal_pvt.c ****     /* Evaluate TX interrupt event in sequence */
 194:Generated_Source\PSoC6\pdl\middleware\ble/cy_ble_hal_pvt.c ****     srcInterrupt = Cy_SCB_GetTxInterruptStatusMasked(cy_ble_configPtr->uartHw);
 195:Generated_Source\PSoC6\pdl\middleware\ble/cy_ble_hal_pvt.c **** 
 196:Generated_Source\PSoC6\pdl\middleware\ble/cy_ble_hal_pvt.c ****     /* BLE Stack manager TX UART complete */
 197:Generated_Source\PSoC6\pdl\middleware\ble/cy_ble_hal_pvt.c ****     if(0u != (srcInterrupt & CY_SCB_TX_INTR_UART_DONE))
 198:Generated_Source\PSoC6\pdl\middleware\ble/cy_ble_hal_pvt.c ****     {
 199:Generated_Source\PSoC6\pdl\middleware\ble/cy_ble_hal_pvt.c ****         if(0u != (srcInterrupt & CY_SCB_TX_INTR_OVERFLOW))
 200:Generated_Source\PSoC6\pdl\middleware\ble/cy_ble_hal_pvt.c ****         {
ARM GAS  C:\Users\guill\AppData\Local\Temp\ccSz7NWo.s 			page 5


 201:Generated_Source\PSoC6\pdl\middleware\ble/cy_ble_hal_pvt.c ****             /*Stack manager TX UART error */
 202:Generated_Source\PSoC6\pdl\middleware\ble/cy_ble_hal_pvt.c ****             uartTxStatus |= CY_BLE_INTR_TX_OVERFLOW;
 203:Generated_Source\PSoC6\pdl\middleware\ble/cy_ble_hal_pvt.c ****         }
 204:Generated_Source\PSoC6\pdl\middleware\ble/cy_ble_hal_pvt.c ****         Cy_BLE_HAL_UartTxCompltHandler();
 205:Generated_Source\PSoC6\pdl\middleware\ble/cy_ble_hal_pvt.c ****         Cy_SCB_ClearTxInterrupt(cy_ble_configPtr->uartHw, srcInterrupt);
 206:Generated_Source\PSoC6\pdl\middleware\ble/cy_ble_hal_pvt.c ****     }
 207:Generated_Source\PSoC6\pdl\middleware\ble/cy_ble_hal_pvt.c ****     else
 208:Generated_Source\PSoC6\pdl\middleware\ble/cy_ble_hal_pvt.c ****     {
 209:Generated_Source\PSoC6\pdl\middleware\ble/cy_ble_hal_pvt.c ****         /* No TX interrupt. Do nothing. */
 210:Generated_Source\PSoC6\pdl\middleware\ble/cy_ble_hal_pvt.c ****     }
 211:Generated_Source\PSoC6\pdl\middleware\ble/cy_ble_hal_pvt.c **** }
 212:Generated_Source\PSoC6\pdl\middleware\ble/cy_ble_hal_pvt.c **** 
 213:Generated_Source\PSoC6\pdl\middleware\ble/cy_ble_hal_pvt.c **** /*******************************************************************************
 214:Generated_Source\PSoC6\pdl\middleware\ble/cy_ble_hal_pvt.c **** * Function Name: Cy_BLE_HAL_UART_Start
 215:Generated_Source\PSoC6\pdl\middleware\ble/cy_ble_hal_pvt.c **** ****************************************************************************//**
 216:Generated_Source\PSoC6\pdl\middleware\ble/cy_ble_hal_pvt.c **** *
 217:Generated_Source\PSoC6\pdl\middleware\ble/cy_ble_hal_pvt.c **** *  Enables the platform UART TX and RX interrupts and then enables the UART.
 218:Generated_Source\PSoC6\pdl\middleware\ble/cy_ble_hal_pvt.c **** *
 219:Generated_Source\PSoC6\pdl\middleware\ble/cy_ble_hal_pvt.c **** * \return
 220:Generated_Source\PSoC6\pdl\middleware\ble/cy_ble_hal_pvt.c **** *  None
 221:Generated_Source\PSoC6\pdl\middleware\ble/cy_ble_hal_pvt.c **** *
 222:Generated_Source\PSoC6\pdl\middleware\ble/cy_ble_hal_pvt.c **** *******************************************************************************/
 223:Generated_Source\PSoC6\pdl\middleware\ble/cy_ble_hal_pvt.c **** void Cy_BLE_HAL_UART_Start(void)
 224:Generated_Source\PSoC6\pdl\middleware\ble/cy_ble_hal_pvt.c **** {
 225:Generated_Source\PSoC6\pdl\middleware\ble/cy_ble_hal_pvt.c ****     /* Setup ISR */
 226:Generated_Source\PSoC6\pdl\middleware\ble/cy_ble_hal_pvt.c ****     Cy_SysInt_Init(cy_ble_configPtr->uartIsrConfig, &Cy_BLE_HAL_UART_Interrupt);
 227:Generated_Source\PSoC6\pdl\middleware\ble/cy_ble_hal_pvt.c ****     NVIC_EnableIRQ((IRQn_Type)cy_ble_configPtr->uartIsrConfig->intrSrc);
 228:Generated_Source\PSoC6\pdl\middleware\ble/cy_ble_hal_pvt.c **** 
 229:Generated_Source\PSoC6\pdl\middleware\ble/cy_ble_hal_pvt.c ****     (void)Cy_SCB_UART_Init(cy_ble_configPtr->uartHw, cy_ble_configPtr->uartConfig, NULL);
 230:Generated_Source\PSoC6\pdl\middleware\ble/cy_ble_hal_pvt.c ****     /* Configure interrupt sources. */
 231:Generated_Source\PSoC6\pdl\middleware\ble/cy_ble_hal_pvt.c ****     Cy_SCB_SetRxInterruptMask(cy_ble_configPtr->uartHw,
 232:Generated_Source\PSoC6\pdl\middleware\ble/cy_ble_hal_pvt.c ****                               CY_SCB_RX_INTR_NOT_EMPTY | CY_SCB_RX_INTR_OVERFLOW | CY_SCB_RX_INTR_U
 233:Generated_Source\PSoC6\pdl\middleware\ble/cy_ble_hal_pvt.c ****     Cy_SCB_SetTxInterruptMask(cy_ble_configPtr->uartHw, CY_SCB_TX_INTR_OVERFLOW | CY_SCB_TX_INTR_UA
 234:Generated_Source\PSoC6\pdl\middleware\ble/cy_ble_hal_pvt.c **** 
 235:Generated_Source\PSoC6\pdl\middleware\ble/cy_ble_hal_pvt.c ****     Cy_SCB_UART_Enable(cy_ble_configPtr->uartHw);
 236:Generated_Source\PSoC6\pdl\middleware\ble/cy_ble_hal_pvt.c **** }
 237:Generated_Source\PSoC6\pdl\middleware\ble/cy_ble_hal_pvt.c **** 
 238:Generated_Source\PSoC6\pdl\middleware\ble/cy_ble_hal_pvt.c **** 
 239:Generated_Source\PSoC6\pdl\middleware\ble/cy_ble_hal_pvt.c **** /*******************************************************************************
 240:Generated_Source\PSoC6\pdl\middleware\ble/cy_ble_hal_pvt.c **** * Function Name: Cy_BLE_HAL_UART_Stop
 241:Generated_Source\PSoC6\pdl\middleware\ble/cy_ble_hal_pvt.c **** ****************************************************************************//**
 242:Generated_Source\PSoC6\pdl\middleware\ble/cy_ble_hal_pvt.c **** *
 243:Generated_Source\PSoC6\pdl\middleware\ble/cy_ble_hal_pvt.c **** *  Disables the UART, clears all pending interrupts and disables the UART TX
 244:Generated_Source\PSoC6\pdl\middleware\ble/cy_ble_hal_pvt.c **** *  and RX interrupts. This will also empty out the FIFOs.
 245:Generated_Source\PSoC6\pdl\middleware\ble/cy_ble_hal_pvt.c **** *
 246:Generated_Source\PSoC6\pdl\middleware\ble/cy_ble_hal_pvt.c **** * \return
 247:Generated_Source\PSoC6\pdl\middleware\ble/cy_ble_hal_pvt.c **** *  None
 248:Generated_Source\PSoC6\pdl\middleware\ble/cy_ble_hal_pvt.c **** *
 249:Generated_Source\PSoC6\pdl\middleware\ble/cy_ble_hal_pvt.c **** *******************************************************************************/
 250:Generated_Source\PSoC6\pdl\middleware\ble/cy_ble_hal_pvt.c **** void Cy_BLE_HAL_UART_Stop(void)
 251:Generated_Source\PSoC6\pdl\middleware\ble/cy_ble_hal_pvt.c **** {
 252:Generated_Source\PSoC6\pdl\middleware\ble/cy_ble_hal_pvt.c ****     /* Stop interrupt and UART */
 253:Generated_Source\PSoC6\pdl\middleware\ble/cy_ble_hal_pvt.c ****     NVIC_DisableIRQ((IRQn_Type)cy_ble_configPtr->uartIsrConfig->intrSrc);
 254:Generated_Source\PSoC6\pdl\middleware\ble/cy_ble_hal_pvt.c **** 
 255:Generated_Source\PSoC6\pdl\middleware\ble/cy_ble_hal_pvt.c ****     Cy_SCB_UART_Disable(cy_ble_configPtr->uartHw, NULL);
 256:Generated_Source\PSoC6\pdl\middleware\ble/cy_ble_hal_pvt.c **** }
 257:Generated_Source\PSoC6\pdl\middleware\ble/cy_ble_hal_pvt.c **** 
ARM GAS  C:\Users\guill\AppData\Local\Temp\ccSz7NWo.s 			page 6


 258:Generated_Source\PSoC6\pdl\middleware\ble/cy_ble_hal_pvt.c **** 
 259:Generated_Source\PSoC6\pdl\middleware\ble/cy_ble_hal_pvt.c **** /*******************************************************************************
 260:Generated_Source\PSoC6\pdl\middleware\ble/cy_ble_hal_pvt.c **** * Function Name: Cy_BLE_HAL_UART_Transmit
 261:Generated_Source\PSoC6\pdl\middleware\ble/cy_ble_hal_pvt.c **** ****************************************************************************//**
 262:Generated_Source\PSoC6\pdl\middleware\ble/cy_ble_hal_pvt.c **** *
 263:Generated_Source\PSoC6\pdl\middleware\ble/cy_ble_hal_pvt.c **** *  Sends the data to UART TX FIFO. The function handles data length up to the
 264:Generated_Source\PSoC6\pdl\middleware\ble/cy_ble_hal_pvt.c **** *  supported TX FIFO length of the UART hardware module.
 265:Generated_Source\PSoC6\pdl\middleware\ble/cy_ble_hal_pvt.c **** *
 266:Generated_Source\PSoC6\pdl\middleware\ble/cy_ble_hal_pvt.c **** *  \param data: Pointer to the data to send through the UART
 267:Generated_Source\PSoC6\pdl\middleware\ble/cy_ble_hal_pvt.c **** *  \param length: the length of data to transmit in bytes
 268:Generated_Source\PSoC6\pdl\middleware\ble/cy_ble_hal_pvt.c **** *
 269:Generated_Source\PSoC6\pdl\middleware\ble/cy_ble_hal_pvt.c **** * \return
 270:Generated_Source\PSoC6\pdl\middleware\ble/cy_ble_hal_pvt.c **** *  None
 271:Generated_Source\PSoC6\pdl\middleware\ble/cy_ble_hal_pvt.c **** *
 272:Generated_Source\PSoC6\pdl\middleware\ble/cy_ble_hal_pvt.c **** *******************************************************************************/
 273:Generated_Source\PSoC6\pdl\middleware\ble/cy_ble_hal_pvt.c **** void Cy_BLE_HAL_UART_Transmit(uint8_t *dataBuf,
 274:Generated_Source\PSoC6\pdl\middleware\ble/cy_ble_hal_pvt.c ****                               uint8_t length)
 275:Generated_Source\PSoC6\pdl\middleware\ble/cy_ble_hal_pvt.c **** {
 276:Generated_Source\PSoC6\pdl\middleware\ble/cy_ble_hal_pvt.c ****     Cy_SCB_UART_PutArrayBlocking(cy_ble_configPtr->uartHw, dataBuf, (uint32_t)length);
 277:Generated_Source\PSoC6\pdl\middleware\ble/cy_ble_hal_pvt.c **** }
 278:Generated_Source\PSoC6\pdl\middleware\ble/cy_ble_hal_pvt.c **** 
 279:Generated_Source\PSoC6\pdl\middleware\ble/cy_ble_hal_pvt.c **** 
 280:Generated_Source\PSoC6\pdl\middleware\ble/cy_ble_hal_pvt.c **** /*******************************************************************************
 281:Generated_Source\PSoC6\pdl\middleware\ble/cy_ble_hal_pvt.c **** * Function Name: Cy_BLE_HAL_UART_EnableInterrupt
 282:Generated_Source\PSoC6\pdl\middleware\ble/cy_ble_hal_pvt.c **** ****************************************************************************//**
 283:Generated_Source\PSoC6\pdl\middleware\ble/cy_ble_hal_pvt.c **** *
 284:Generated_Source\PSoC6\pdl\middleware\ble/cy_ble_hal_pvt.c **** *   Enables the UART interrupt to the interrupt controller.
 285:Generated_Source\PSoC6\pdl\middleware\ble/cy_ble_hal_pvt.c **** *   Do not call this function unless Cy_BLE_HAL_UART_Start() has been called or the
 286:Generated_Source\PSoC6\pdl\middleware\ble/cy_ble_hal_pvt.c **** *   functionality of the Cy_SysInt_Init() function, which sets the vector and the
 287:Generated_Source\PSoC6\pdl\middleware\ble/cy_ble_hal_pvt.c **** *   priority, has been called.
 288:Generated_Source\PSoC6\pdl\middleware\ble/cy_ble_hal_pvt.c **** *
 289:Generated_Source\PSoC6\pdl\middleware\ble/cy_ble_hal_pvt.c **** *******************************************************************************/
 290:Generated_Source\PSoC6\pdl\middleware\ble/cy_ble_hal_pvt.c **** void Cy_BLE_HAL_UART_EnableInterrupt(void)
 291:Generated_Source\PSoC6\pdl\middleware\ble/cy_ble_hal_pvt.c **** {
 292:Generated_Source\PSoC6\pdl\middleware\ble/cy_ble_hal_pvt.c ****     NVIC_EnableIRQ((IRQn_Type)cy_ble_configPtr->uartIsrConfig->intrSrc);
 293:Generated_Source\PSoC6\pdl\middleware\ble/cy_ble_hal_pvt.c **** }
 294:Generated_Source\PSoC6\pdl\middleware\ble/cy_ble_hal_pvt.c **** 
 295:Generated_Source\PSoC6\pdl\middleware\ble/cy_ble_hal_pvt.c **** 
 296:Generated_Source\PSoC6\pdl\middleware\ble/cy_ble_hal_pvt.c **** /*******************************************************************************
 297:Generated_Source\PSoC6\pdl\middleware\ble/cy_ble_hal_pvt.c **** * Function Name: Cy_BLE_HAL_UART_DisableInterrupt
 298:Generated_Source\PSoC6\pdl\middleware\ble/cy_ble_hal_pvt.c **** ****************************************************************************//**
 299:Generated_Source\PSoC6\pdl\middleware\ble/cy_ble_hal_pvt.c **** *
 300:Generated_Source\PSoC6\pdl\middleware\ble/cy_ble_hal_pvt.c **** *   Disables the UART Interrupt in the interrupt controller.
 301:Generated_Source\PSoC6\pdl\middleware\ble/cy_ble_hal_pvt.c **** *
 302:Generated_Source\PSoC6\pdl\middleware\ble/cy_ble_hal_pvt.c **** *******************************************************************************/
 303:Generated_Source\PSoC6\pdl\middleware\ble/cy_ble_hal_pvt.c **** void Cy_BLE_HAL_UART_DisableInterrupt(void)
 304:Generated_Source\PSoC6\pdl\middleware\ble/cy_ble_hal_pvt.c **** {
 305:Generated_Source\PSoC6\pdl\middleware\ble/cy_ble_hal_pvt.c ****     NVIC_DisableIRQ((IRQn_Type)cy_ble_configPtr->uartIsrConfig->intrSrc);
 306:Generated_Source\PSoC6\pdl\middleware\ble/cy_ble_hal_pvt.c **** }
 307:Generated_Source\PSoC6\pdl\middleware\ble/cy_ble_hal_pvt.c **** 
 308:Generated_Source\PSoC6\pdl\middleware\ble/cy_ble_hal_pvt.c **** #endif /* (CY_BLE_CONFIG_MODE_CONTR_UART) */
 309:Generated_Source\PSoC6\pdl\middleware\ble/cy_ble_hal_pvt.c **** 
 310:Generated_Source\PSoC6\pdl\middleware\ble/cy_ble_hal_pvt.c **** #if(CY_BLE_STACK_CONTR_CORE)
 311:Generated_Source\PSoC6\pdl\middleware\ble/cy_ble_hal_pvt.c **** /*******************************************************************************
 312:Generated_Source\PSoC6\pdl\middleware\ble/cy_ble_hal_pvt.c **** * Function Name: Cy_BLE_HAL_RadioCalibrationWrite
 313:Generated_Source\PSoC6\pdl\middleware\ble/cy_ble_hal_pvt.c **** ****************************************************************************//**
 314:Generated_Source\PSoC6\pdl\middleware\ble/cy_ble_hal_pvt.c **** *
ARM GAS  C:\Users\guill\AppData\Local\Temp\ccSz7NWo.s 			page 7


 315:Generated_Source\PSoC6\pdl\middleware\ble/cy_ble_hal_pvt.c **** *  Write radio calibration data to SFLASH
 316:Generated_Source\PSoC6\pdl\middleware\ble/cy_ble_hal_pvt.c **** *
 317:Generated_Source\PSoC6\pdl\middleware\ble/cy_ble_hal_pvt.c **** *  \param data:   Pointer to the buffer containing the data to be stored.
 318:Generated_Source\PSoC6\pdl\middleware\ble/cy_ble_hal_pvt.c **** *  \param length: The length of the data in bytes.
 319:Generated_Source\PSoC6\pdl\middleware\ble/cy_ble_hal_pvt.c **** *
 320:Generated_Source\PSoC6\pdl\middleware\ble/cy_ble_hal_pvt.c **** *  \return
 321:Generated_Source\PSoC6\pdl\middleware\ble/cy_ble_hal_pvt.c **** *   CY_BLE_SUCCESS                     A successful write
 322:Generated_Source\PSoC6\pdl\middleware\ble/cy_ble_hal_pvt.c **** *   CY_BLE_ERROR_INVALID_PARAMETER     At least one of the input parameters is invalid
 323:Generated_Source\PSoC6\pdl\middleware\ble/cy_ble_hal_pvt.c **** *   CY_BLE_ERROR_FLASH_WRITE           Error in flash Write
 324:Generated_Source\PSoC6\pdl\middleware\ble/cy_ble_hal_pvt.c **** *
 325:Generated_Source\PSoC6\pdl\middleware\ble/cy_ble_hal_pvt.c **** *******************************************************************************/
 326:Generated_Source\PSoC6\pdl\middleware\ble/cy_ble_hal_pvt.c **** cy_en_ble_api_result_t Cy_BLE_HAL_RadioCalibrationWrite(const void *data, uint32_t length)
 327:Generated_Source\PSoC6\pdl\middleware\ble/cy_ble_hal_pvt.c **** {
 328:Generated_Source\PSoC6\pdl\middleware\ble/cy_ble_hal_pvt.c ****     cy_en_ble_api_result_t rc;
 329:Generated_Source\PSoC6\pdl\middleware\ble/cy_ble_hal_pvt.c **** 
 330:Generated_Source\PSoC6\pdl\middleware\ble/cy_ble_hal_pvt.c ****     if((data != NULL) &&
 331:Generated_Source\PSoC6\pdl\middleware\ble/cy_ble_hal_pvt.c ****        (length <= (CY_FLASH_SIZEOF_ROW - sizeof(cy_stc_ble_gap_bd_addr_t))))
 332:Generated_Source\PSoC6\pdl\middleware\ble/cy_ble_hal_pvt.c ****     {
 333:Generated_Source\PSoC6\pdl\middleware\ble/cy_ble_hal_pvt.c ****         rc = Cy_BLE_HAL_NvramWrite(data, (uint8_t *)CY_BLE_SFLASH_BLE_RADIO_CALL_ADDRESS,
 334:Generated_Source\PSoC6\pdl\middleware\ble/cy_ble_hal_pvt.c ****                                    length, CY_BLE_FLASH_BLOCKING_MODE);
 335:Generated_Source\PSoC6\pdl\middleware\ble/cy_ble_hal_pvt.c ****     }
 336:Generated_Source\PSoC6\pdl\middleware\ble/cy_ble_hal_pvt.c ****     else
 337:Generated_Source\PSoC6\pdl\middleware\ble/cy_ble_hal_pvt.c ****     {
 338:Generated_Source\PSoC6\pdl\middleware\ble/cy_ble_hal_pvt.c ****         rc = CY_BLE_ERROR_INVALID_PARAMETER;
 339:Generated_Source\PSoC6\pdl\middleware\ble/cy_ble_hal_pvt.c ****     }
 340:Generated_Source\PSoC6\pdl\middleware\ble/cy_ble_hal_pvt.c ****     return(rc);
 341:Generated_Source\PSoC6\pdl\middleware\ble/cy_ble_hal_pvt.c **** }
 342:Generated_Source\PSoC6\pdl\middleware\ble/cy_ble_hal_pvt.c **** 
 343:Generated_Source\PSoC6\pdl\middleware\ble/cy_ble_hal_pvt.c **** 
 344:Generated_Source\PSoC6\pdl\middleware\ble/cy_ble_hal_pvt.c **** /*******************************************************************************
 345:Generated_Source\PSoC6\pdl\middleware\ble/cy_ble_hal_pvt.c **** * Function Name: Cy_BLE_HAL_RadioCalibrationRead
 346:Generated_Source\PSoC6\pdl\middleware\ble/cy_ble_hal_pvt.c **** ****************************************************************************//**
 347:Generated_Source\PSoC6\pdl\middleware\ble/cy_ble_hal_pvt.c **** *
 348:Generated_Source\PSoC6\pdl\middleware\ble/cy_ble_hal_pvt.c **** *  Read radio calibration data from SFLASH
 349:Generated_Source\PSoC6\pdl\middleware\ble/cy_ble_hal_pvt.c **** *
 350:Generated_Source\PSoC6\pdl\middleware\ble/cy_ble_hal_pvt.c **** *  \param data:   Pointer to the buffer containing the data to be read from SFASH.
 351:Generated_Source\PSoC6\pdl\middleware\ble/cy_ble_hal_pvt.c **** *  \param length: The length of the data in bytes.
 352:Generated_Source\PSoC6\pdl\middleware\ble/cy_ble_hal_pvt.c **** *
 353:Generated_Source\PSoC6\pdl\middleware\ble/cy_ble_hal_pvt.c **** *  \return
 354:Generated_Source\PSoC6\pdl\middleware\ble/cy_ble_hal_pvt.c **** *   CY_BLE_SUCCESS                     A successful read
 355:Generated_Source\PSoC6\pdl\middleware\ble/cy_ble_hal_pvt.c **** *   CY_BLE_ERROR_INVALID_PARAMETER     At least one of the input parameters is invalid
 356:Generated_Source\PSoC6\pdl\middleware\ble/cy_ble_hal_pvt.c **** *
 357:Generated_Source\PSoC6\pdl\middleware\ble/cy_ble_hal_pvt.c **** *******************************************************************************/
 358:Generated_Source\PSoC6\pdl\middleware\ble/cy_ble_hal_pvt.c **** cy_en_ble_api_result_t Cy_BLE_HAL_RadioCalibrationRead(void *data, uint32_t length)
 359:Generated_Source\PSoC6\pdl\middleware\ble/cy_ble_hal_pvt.c **** {
  29              		.loc 1 359 0
  30              		.cfi_startproc
  31              		@ args = 0, pretend = 0, frame = 0
  32              		@ frame_needed = 0, uses_anonymous_args = 0
  33              	.LVL0:
 360:Generated_Source\PSoC6\pdl\middleware\ble/cy_ble_hal_pvt.c ****     cy_en_ble_api_result_t rc = CY_BLE_SUCCESS;
 361:Generated_Source\PSoC6\pdl\middleware\ble/cy_ble_hal_pvt.c ****     
 362:Generated_Source\PSoC6\pdl\middleware\ble/cy_ble_hal_pvt.c ****     if((data != NULL) && 
  34              		.loc 1 362 0
  35 0000 48B1     		cbz	r0, .L3
 359:Generated_Source\PSoC6\pdl\middleware\ble/cy_ble_hal_pvt.c ****     cy_en_ble_api_result_t rc = CY_BLE_SUCCESS;
  36              		.loc 1 359 0 discriminator 1
ARM GAS  C:\Users\guill\AppData\Local\Temp\ccSz7NWo.s 			page 8


  37 0002 08B5     		push	{r3, lr}
  38              		.cfi_def_cfa_offset 8
  39              		.cfi_offset 3, -8
  40              		.cfi_offset 14, -4
  41              		.loc 1 362 0 discriminator 1
  42 0004 B1F5FD7F 		cmp	r1, #506
  43 0008 07D2     		bcs	.L4
  44 000a 0A46     		mov	r2, r1
 363:Generated_Source\PSoC6\pdl\middleware\ble/cy_ble_hal_pvt.c ****        (length <= (CY_FLASH_SIZEOF_ROW - sizeof(cy_stc_ble_gap_bd_addr_t))))
 364:Generated_Source\PSoC6\pdl\middleware\ble/cy_ble_hal_pvt.c ****     {
 365:Generated_Source\PSoC6\pdl\middleware\ble/cy_ble_hal_pvt.c ****         (void) memcpy(data, (void *)CY_BLE_SFLASH_BLE_RADIO_CALL_ADDRESS, length);
  45              		.loc 1 365 0
  46 000c 0449     		ldr	r1, .L6
  47              	.LVL1:
  48 000e FFF7FEFF 		bl	memcpy
  49              	.LVL2:
 360:Generated_Source\PSoC6\pdl\middleware\ble/cy_ble_hal_pvt.c ****     
  50              		.loc 1 360 0
  51 0012 0020     		movs	r0, #0
  52              		.loc 1 365 0
  53 0014 08BD     		pop	{r3, pc}
  54              	.LVL3:
  55              	.L3:
  56              		.cfi_def_cfa_offset 0
  57              		.cfi_restore 3
  58              		.cfi_restore 14
 366:Generated_Source\PSoC6\pdl\middleware\ble/cy_ble_hal_pvt.c ****     }
 367:Generated_Source\PSoC6\pdl\middleware\ble/cy_ble_hal_pvt.c ****     else
 368:Generated_Source\PSoC6\pdl\middleware\ble/cy_ble_hal_pvt.c ****     {
 369:Generated_Source\PSoC6\pdl\middleware\ble/cy_ble_hal_pvt.c ****         rc = CY_BLE_ERROR_INVALID_PARAMETER;
  59              		.loc 1 369 0
  60 0016 0348     		ldr	r0, .L6+4
  61              	.LVL4:
 370:Generated_Source\PSoC6\pdl\middleware\ble/cy_ble_hal_pvt.c ****     }
 371:Generated_Source\PSoC6\pdl\middleware\ble/cy_ble_hal_pvt.c ****     return(rc);
 372:Generated_Source\PSoC6\pdl\middleware\ble/cy_ble_hal_pvt.c **** }
  62              		.loc 1 372 0
  63 0018 7047     		bx	lr
  64              	.LVL5:
  65              	.L4:
  66              		.cfi_def_cfa_offset 8
  67              		.cfi_offset 3, -8
  68              		.cfi_offset 14, -4
 369:Generated_Source\PSoC6\pdl\middleware\ble/cy_ble_hal_pvt.c ****     }
  69              		.loc 1 369 0
  70 001a 0248     		ldr	r0, .L6+4
  71              	.LVL6:
  72              		.loc 1 372 0
  73 001c 08BD     		pop	{r3, pc}
  74              	.L7:
  75 001e 00BF     		.align	2
  76              	.L6:
  77 0020 07080016 		.word	369100807
  78 0024 01001600 		.word	1441793
  79              		.cfi_endproc
  80              	.LFE257:
  81              		.size	Cy_BLE_HAL_RadioCalibrationRead, .-Cy_BLE_HAL_RadioCalibrationRead
ARM GAS  C:\Users\guill\AppData\Local\Temp\ccSz7NWo.s 			page 9


  82              		.section	.text.Cy_BLE_HAL_NvramWrite,"ax",%progbits
  83              		.align	2
  84              		.global	Cy_BLE_HAL_NvramWrite
  85              		.thumb
  86              		.thumb_func
  87              		.type	Cy_BLE_HAL_NvramWrite, %function
  88              	Cy_BLE_HAL_NvramWrite:
  89              	.LFB258:
 373:Generated_Source\PSoC6\pdl\middleware\ble/cy_ble_hal_pvt.c **** 
 374:Generated_Source\PSoC6\pdl\middleware\ble/cy_ble_hal_pvt.c **** #endif /* CY_BLE_STACK_CONTR_CORE */
 375:Generated_Source\PSoC6\pdl\middleware\ble/cy_ble_hal_pvt.c **** 
 376:Generated_Source\PSoC6\pdl\middleware\ble/cy_ble_hal_pvt.c **** 
 377:Generated_Source\PSoC6\pdl\middleware\ble/cy_ble_hal_pvt.c **** /*******************************************************************************
 378:Generated_Source\PSoC6\pdl\middleware\ble/cy_ble_hal_pvt.c **** * Function Name: Cy_BLE_HAL_NvramWrite
 379:Generated_Source\PSoC6\pdl\middleware\ble/cy_ble_hal_pvt.c **** ****************************************************************************//**
 380:Generated_Source\PSoC6\pdl\middleware\ble/cy_ble_hal_pvt.c **** *
 381:Generated_Source\PSoC6\pdl\middleware\ble/cy_ble_hal_pvt.c **** * This function writes the data to the NVRAM store. It will check the
 382:Generated_Source\PSoC6\pdl\middleware\ble/cy_ble_hal_pvt.c **** * appropriate alignment of a start address and also perform an address range
 383:Generated_Source\PSoC6\pdl\middleware\ble/cy_ble_hal_pvt.c **** * check based on the length before performing the write operation.
 384:Generated_Source\PSoC6\pdl\middleware\ble/cy_ble_hal_pvt.c **** * This function performs memory compare and writes only row where there are new
 385:Generated_Source\PSoC6\pdl\middleware\ble/cy_ble_hal_pvt.c **** * data to write.
 386:Generated_Source\PSoC6\pdl\middleware\ble/cy_ble_hal_pvt.c **** *
 387:Generated_Source\PSoC6\pdl\middleware\ble/cy_ble_hal_pvt.c **** * \param buffer:   Pointer to the buffer containing the data to be stored.
 388:Generated_Source\PSoC6\pdl\middleware\ble/cy_ble_hal_pvt.c **** * \param varFlash: Pointer to the array or variable in the flash.
 389:Generated_Source\PSoC6\pdl\middleware\ble/cy_ble_hal_pvt.c **** * \param length:   The length of the data in bytes.
 390:Generated_Source\PSoC6\pdl\middleware\ble/cy_ble_hal_pvt.c **** * \param mode:     Flash operation mode: 
 391:Generated_Source\PSoC6\pdl\middleware\ble/cy_ble_hal_pvt.c **** *                     CY_BLE_FLASH_NON_BLOCKING_MODE - operate with non
 392:Generated_Source\PSoC6\pdl\middleware\ble/cy_ble_hal_pvt.c **** *                     blocking flash API
 393:Generated_Source\PSoC6\pdl\middleware\ble/cy_ble_hal_pvt.c **** *                     CY_BLE_FLASH_BLOCKING_MODE - operate with blocking 
 394:Generated_Source\PSoC6\pdl\middleware\ble/cy_ble_hal_pvt.c **** *                     flash API
 395:Generated_Source\PSoC6\pdl\middleware\ble/cy_ble_hal_pvt.c **** *
 396:Generated_Source\PSoC6\pdl\middleware\ble/cy_ble_hal_pvt.c **** * \return
 397:Generated_Source\PSoC6\pdl\middleware\ble/cy_ble_hal_pvt.c **** *  CY_BLE_SUCCESS                         | A successful write
 398:Generated_Source\PSoC6\pdl\middleware\ble/cy_ble_hal_pvt.c **** *  CY_BLE_ERROR_INVALID_PARAMETER         | At least one of the input parameters is invalid
 399:Generated_Source\PSoC6\pdl\middleware\ble/cy_ble_hal_pvt.c **** *  CY_BLE_ERROR_FLASH_WRITE               | Error in flash Write
 400:Generated_Source\PSoC6\pdl\middleware\ble/cy_ble_hal_pvt.c **** *  CY_BLE_ERROR_FLASH_WRITE_NOT_PERMITED  | Flash operation is not permitted (see Note)
 401:Generated_Source\PSoC6\pdl\middleware\ble/cy_ble_hal_pvt.c **** * 
 402:Generated_Source\PSoC6\pdl\middleware\ble/cy_ble_hal_pvt.c **** * \note: Flash operation is not permitted with protection context (PC)
 403:Generated_Source\PSoC6\pdl\middleware\ble/cy_ble_hal_pvt.c **** *        value > 0 and core voltage 0.9V, because of a preproduction
 404:Generated_Source\PSoC6\pdl\middleware\ble/cy_ble_hal_pvt.c **** *        hardware limitation.
 405:Generated_Source\PSoC6\pdl\middleware\ble/cy_ble_hal_pvt.c **** *    
 406:Generated_Source\PSoC6\pdl\middleware\ble/cy_ble_hal_pvt.c **** *******************************************************************************/
 407:Generated_Source\PSoC6\pdl\middleware\ble/cy_ble_hal_pvt.c **** cy_en_ble_api_result_t Cy_BLE_HAL_NvramWrite(const uint8_t buffer[],
 408:Generated_Source\PSoC6\pdl\middleware\ble/cy_ble_hal_pvt.c ****                                              const uint8_t varFlash[],
 409:Generated_Source\PSoC6\pdl\middleware\ble/cy_ble_hal_pvt.c ****                                              uint32_t length,
 410:Generated_Source\PSoC6\pdl\middleware\ble/cy_ble_hal_pvt.c ****                                              uint32_t mode)
 411:Generated_Source\PSoC6\pdl\middleware\ble/cy_ble_hal_pvt.c **** {
  90              		.loc 1 411 0
  91              		.cfi_startproc
  92              		@ args = 0, pretend = 0, frame = 536
  93              		@ frame_needed = 0, uses_anonymous_args = 0
  94              	.LVL7:
  95 0000 2DE9F04F 		push	{r4, r5, r6, r7, r8, r9, r10, fp, lr}
  96              		.cfi_def_cfa_offset 36
  97              		.cfi_offset 4, -36
  98              		.cfi_offset 5, -32
  99              		.cfi_offset 6, -28
ARM GAS  C:\Users\guill\AppData\Local\Temp\ccSz7NWo.s 			page 10


 100              		.cfi_offset 7, -24
 101              		.cfi_offset 8, -20
 102              		.cfi_offset 9, -16
 103              		.cfi_offset 10, -12
 104              		.cfi_offset 11, -8
 105              		.cfi_offset 14, -4
 106 0004 ADF5077D 		sub	sp, sp, #540
 107              		.cfi_def_cfa_offset 576
 108              	.LVL8:
 412:Generated_Source\PSoC6\pdl\middleware\ble/cy_ble_hal_pvt.c ****     
 413:Generated_Source\PSoC6\pdl\middleware\ble/cy_ble_hal_pvt.c ****     cy_en_ble_api_result_t bleReturn;
 414:Generated_Source\PSoC6\pdl\middleware\ble/cy_ble_hal_pvt.c ****     cy_en_flashdrv_status_t flashReturn = CY_FLASH_DRV_SUCCESS;
 415:Generated_Source\PSoC6\pdl\middleware\ble/cy_ble_hal_pvt.c ****     cy_en_syspm_status_t syspmReturn =  CY_SYSPM_SUCCESS;
 416:Generated_Source\PSoC6\pdl\middleware\ble/cy_ble_hal_pvt.c ****     uint32_t writeBuffer[CY_FLASH_SIZEOF_ROW / sizeof(uint32_t)];
 417:Generated_Source\PSoC6\pdl\middleware\ble/cy_ble_hal_pvt.c ****     uint32_t rowId;
 418:Generated_Source\PSoC6\pdl\middleware\ble/cy_ble_hal_pvt.c ****     uint32_t dstIndex;
 419:Generated_Source\PSoC6\pdl\middleware\ble/cy_ble_hal_pvt.c ****     uint32_t srcIndex = 0u;
 420:Generated_Source\PSoC6\pdl\middleware\ble/cy_ble_hal_pvt.c ****     uint32_t eeOffset;
 421:Generated_Source\PSoC6\pdl\middleware\ble/cy_ble_hal_pvt.c ****     uint32_t byteOffset;
 422:Generated_Source\PSoC6\pdl\middleware\ble/cy_ble_hal_pvt.c ****     bool rowsNotEqual;
 423:Generated_Source\PSoC6\pdl\middleware\ble/cy_ble_hal_pvt.c ****     uint8_t *writeBufferPointer;  
 424:Generated_Source\PSoC6\pdl\middleware\ble/cy_ble_hal_pvt.c **** 
 425:Generated_Source\PSoC6\pdl\middleware\ble/cy_ble_hal_pvt.c ****     eeOffset = (uint32_t)varFlash;
 426:Generated_Source\PSoC6\pdl\middleware\ble/cy_ble_hal_pvt.c ****     writeBufferPointer = (uint8_t*)writeBuffer;
 427:Generated_Source\PSoC6\pdl\middleware\ble/cy_ble_hal_pvt.c **** 
 428:Generated_Source\PSoC6\pdl\middleware\ble/cy_ble_hal_pvt.c ****     /* Make sure, that varFlash[] points to Flash or Emulated EEPROM */
 429:Generated_Source\PSoC6\pdl\middleware\ble/cy_ble_hal_pvt.c ****     if(((eeOffset >= CY_FLASH_BASE) &&
 109              		.loc 1 429 0
 110 0008 B1F1805F 		cmp	r1, #268435456
 111 000c 03D3     		bcc	.L9
 430:Generated_Source\PSoC6\pdl\middleware\ble/cy_ble_hal_pvt.c ****         ((eeOffset + length) <= (CY_FLASH_BASE + CY_FLASH_SIZE))) ||
 112              		.loc 1 430 0 discriminator 1
 113 000e 8D18     		adds	r5, r1, r2
 429:Generated_Source\PSoC6\pdl\middleware\ble/cy_ble_hal_pvt.c ****         ((eeOffset + length) <= (CY_FLASH_BASE + CY_FLASH_SIZE))) ||
 114              		.loc 1 429 0 discriminator 1
 115 0010 9D4C     		ldr	r4, .L56
 116 0012 A542     		cmp	r5, r4
 117 0014 10D9     		bls	.L10
 118              	.L9:
 119              		.loc 1 430 0
 120 0016 B1F1A05F 		cmp	r1, #335544320
 121 001a 03D3     		bcc	.L11
 431:Generated_Source\PSoC6\pdl\middleware\ble/cy_ble_hal_pvt.c ****        ((eeOffset >= CY_EM_EEPROM_BASE) &&
 432:Generated_Source\PSoC6\pdl\middleware\ble/cy_ble_hal_pvt.c ****         ((eeOffset + length) <= (CY_EM_EEPROM_BASE + CY_EM_EEPROM_SIZE))) ||
 122              		.loc 1 432 0
 123 001c 8D18     		adds	r5, r1, r2
 431:Generated_Source\PSoC6\pdl\middleware\ble/cy_ble_hal_pvt.c ****        ((eeOffset >= CY_EM_EEPROM_BASE) &&
 124              		.loc 1 431 0
 125 001e 9B4C     		ldr	r4, .L56+4
 126 0020 A542     		cmp	r5, r4
 127 0022 09D9     		bls	.L10
 128              	.L11:
 129              		.loc 1 432 0
 130 0024 9A4C     		ldr	r4, .L56+8
 131 0026 A142     		cmp	r1, r4
 132 0028 40F20F81 		bls	.L43
 433:Generated_Source\PSoC6\pdl\middleware\ble/cy_ble_hal_pvt.c ****        ((eeOffset >= (uint32_t)SFLASH->BLE_DEVICE_ADDRESS) &&
ARM GAS  C:\Users\guill\AppData\Local\Temp\ccSz7NWo.s 			page 11


 434:Generated_Source\PSoC6\pdl\middleware\ble/cy_ble_hal_pvt.c ****         ((eeOffset + length) <= ((uint32_t)SFLASH->BLE_DEVICE_ADDRESS + CY_FLASH_SIZEOF_ROW))))
 133              		.loc 1 434 0
 134 002c 8D18     		adds	r5, r1, r2
 433:Generated_Source\PSoC6\pdl\middleware\ble/cy_ble_hal_pvt.c ****        ((eeOffset >= (uint32_t)SFLASH->BLE_DEVICE_ADDRESS) &&
 135              		.loc 1 433 0
 136 002e 04F20124 		addw	r4, r4, #513
 137 0032 A542     		cmp	r5, r4
 138 0034 00F20E81 		bhi	.L44
 139              	.L10:
 140 0038 0493     		str	r3, [sp, #16]
 141 003a 1746     		mov	r7, r2
 142 003c 0E46     		mov	r6, r1
 143 003e 8046     		mov	r8, r0
 144              	.LVL9:
 145              	.LBB38:
 146              	.LBB39:
 147              	.LBB40:
 148              		.file 2 "Generated_Source\\PSoC6\\pdl\\drivers/peripheral/syspm/cy_syspm.h"
   1:Generated_Source\PSoC6\pdl\drivers/peripheral/syspm/cy_syspm.h **** /***************************************************************************//**
   2:Generated_Source\PSoC6\pdl\drivers/peripheral/syspm/cy_syspm.h **** * \file cy_syspm.h
   3:Generated_Source\PSoC6\pdl\drivers/peripheral/syspm/cy_syspm.h **** * \version 4.0
   4:Generated_Source\PSoC6\pdl\drivers/peripheral/syspm/cy_syspm.h **** *
   5:Generated_Source\PSoC6\pdl\drivers/peripheral/syspm/cy_syspm.h **** * Provides the function definitions for the power management API.
   6:Generated_Source\PSoC6\pdl\drivers/peripheral/syspm/cy_syspm.h **** *
   7:Generated_Source\PSoC6\pdl\drivers/peripheral/syspm/cy_syspm.h **** ********************************************************************************
   8:Generated_Source\PSoC6\pdl\drivers/peripheral/syspm/cy_syspm.h **** * \copyright
   9:Generated_Source\PSoC6\pdl\drivers/peripheral/syspm/cy_syspm.h **** * Copyright 2016-2018, Cypress Semiconductor Corporation.  All rights reserved.
  10:Generated_Source\PSoC6\pdl\drivers/peripheral/syspm/cy_syspm.h **** * You may use this file only in accordance with the license, terms, conditions,
  11:Generated_Source\PSoC6\pdl\drivers/peripheral/syspm/cy_syspm.h **** * disclaimers, and limitations in the end user license agreement accompanying
  12:Generated_Source\PSoC6\pdl\drivers/peripheral/syspm/cy_syspm.h **** * the software package with which this file was provided.
  13:Generated_Source\PSoC6\pdl\drivers/peripheral/syspm/cy_syspm.h **** *
  14:Generated_Source\PSoC6\pdl\drivers/peripheral/syspm/cy_syspm.h **** *******************************************************************************/
  15:Generated_Source\PSoC6\pdl\drivers/peripheral/syspm/cy_syspm.h **** 
  16:Generated_Source\PSoC6\pdl\drivers/peripheral/syspm/cy_syspm.h **** /**
  17:Generated_Source\PSoC6\pdl\drivers/peripheral/syspm/cy_syspm.h **** * \addtogroup group_syspm
  18:Generated_Source\PSoC6\pdl\drivers/peripheral/syspm/cy_syspm.h **** * \{
  19:Generated_Source\PSoC6\pdl\drivers/peripheral/syspm/cy_syspm.h **** *
  20:Generated_Source\PSoC6\pdl\drivers/peripheral/syspm/cy_syspm.h **** * Use the System Power Management (SysPm) driver to change power modes and 
  21:Generated_Source\PSoC6\pdl\drivers/peripheral/syspm/cy_syspm.h **** * reduce system power consumption in power sensitive designs. 
  22:Generated_Source\PSoC6\pdl\drivers/peripheral/syspm/cy_syspm.h **** *
  23:Generated_Source\PSoC6\pdl\drivers/peripheral/syspm/cy_syspm.h **** * The functions and other declarations used in this driver are in cy_syspm.h. 
  24:Generated_Source\PSoC6\pdl\drivers/peripheral/syspm/cy_syspm.h **** * You can include cy_pdl.h (ModusToolbox only) to get access to all functions 
  25:Generated_Source\PSoC6\pdl\drivers/peripheral/syspm/cy_syspm.h **** * and declarations in the PDL. 
  26:Generated_Source\PSoC6\pdl\drivers/peripheral/syspm/cy_syspm.h **** *
  27:Generated_Source\PSoC6\pdl\drivers/peripheral/syspm/cy_syspm.h **** * For multi-CPU devices, this library allows you to individually enter low power  
  28:Generated_Source\PSoC6\pdl\drivers/peripheral/syspm/cy_syspm.h **** * modes for each CPU.
  29:Generated_Source\PSoC6\pdl\drivers/peripheral/syspm/cy_syspm.h **** *
  30:Generated_Source\PSoC6\pdl\drivers/peripheral/syspm/cy_syspm.h **** * This document contains the following topics:
  31:Generated_Source\PSoC6\pdl\drivers/peripheral/syspm/cy_syspm.h **** *
  32:Generated_Source\PSoC6\pdl\drivers/peripheral/syspm/cy_syspm.h **** * * \ref group_syspm_power_modes
  33:Generated_Source\PSoC6\pdl\drivers/peripheral/syspm/cy_syspm.h **** * * \ref group_syspm_system_power_modes
  34:Generated_Source\PSoC6\pdl\drivers/peripheral/syspm/cy_syspm.h **** *   - \ref group_syspm_switching_into_ulp
  35:Generated_Source\PSoC6\pdl\drivers/peripheral/syspm/cy_syspm.h **** *     - \ref group_syspm_ulp_limitations
  36:Generated_Source\PSoC6\pdl\drivers/peripheral/syspm/cy_syspm.h **** *   - \ref group_syspm_switching_into_lp
  37:Generated_Source\PSoC6\pdl\drivers/peripheral/syspm/cy_syspm.h **** *     - \ref group_syspm_lp_limitations
  38:Generated_Source\PSoC6\pdl\drivers/peripheral/syspm/cy_syspm.h **** *   - \ref group_syspm_switching_into_sleep
  39:Generated_Source\PSoC6\pdl\drivers/peripheral/syspm/cy_syspm.h **** *   - \ref group_syspm_switching_into_deepsleep
ARM GAS  C:\Users\guill\AppData\Local\Temp\ccSz7NWo.s 			page 12


  40:Generated_Source\PSoC6\pdl\drivers/peripheral/syspm/cy_syspm.h **** *   - \ref group_syspm_wakingup_from_sleep_deepsleep
  41:Generated_Source\PSoC6\pdl\drivers/peripheral/syspm/cy_syspm.h **** *   - \ref group_syspm_switching_into_hibernate
  42:Generated_Source\PSoC6\pdl\drivers/peripheral/syspm/cy_syspm.h **** *   - \ref group_syspm_wakingup_from_hibernate
  43:Generated_Source\PSoC6\pdl\drivers/peripheral/syspm/cy_syspm.h **** * * \ref group_syspm_system_reg_curr_mode
  44:Generated_Source\PSoC6\pdl\drivers/peripheral/syspm/cy_syspm.h **** *   - \ref group_syspm_system_set_min_reg_curr_mode
  45:Generated_Source\PSoC6\pdl\drivers/peripheral/syspm/cy_syspm.h **** *   - \ref group_syspm_system_set_normal_reg_curr_mode
  46:Generated_Source\PSoC6\pdl\drivers/peripheral/syspm/cy_syspm.h **** * * \ref group_syspm_migration_guide_for_syspm_4_0
  47:Generated_Source\PSoC6\pdl\drivers/peripheral/syspm/cy_syspm.h **** * * \ref group_syspm_managing_pmic
  48:Generated_Source\PSoC6\pdl\drivers/peripheral/syspm/cy_syspm.h **** * * \ref group_syspm_managing_backup_domain
  49:Generated_Source\PSoC6\pdl\drivers/peripheral/syspm/cy_syspm.h **** * * \ref group_syspm_cb
  50:Generated_Source\PSoC6\pdl\drivers/peripheral/syspm/cy_syspm.h **** *   - \ref group_syspm_cb_example
  51:Generated_Source\PSoC6\pdl\drivers/peripheral/syspm/cy_syspm.h **** *   - \ref group_syspm_cb_config_consideration
  52:Generated_Source\PSoC6\pdl\drivers/peripheral/syspm/cy_syspm.h **** *     - \ref group_syspm_cb_parameters
  53:Generated_Source\PSoC6\pdl\drivers/peripheral/syspm/cy_syspm.h **** *     - \ref group_syspm_cb_structures
  54:Generated_Source\PSoC6\pdl\drivers/peripheral/syspm/cy_syspm.h **** *     - \ref group_syspm_cb_function_implementation
  55:Generated_Source\PSoC6\pdl\drivers/peripheral/syspm/cy_syspm.h **** *     - \ref group_syspm_cb_flow
  56:Generated_Source\PSoC6\pdl\drivers/peripheral/syspm/cy_syspm.h **** *     - \ref group_syspm_cb_unregistering
  57:Generated_Source\PSoC6\pdl\drivers/peripheral/syspm/cy_syspm.h **** * * \ref group_syspm_definitions
  58:Generated_Source\PSoC6\pdl\drivers/peripheral/syspm/cy_syspm.h **** *
  59:Generated_Source\PSoC6\pdl\drivers/peripheral/syspm/cy_syspm.h **** * \section group_syspm_section_configuration Configuration Considerations
  60:Generated_Source\PSoC6\pdl\drivers/peripheral/syspm/cy_syspm.h **** * \subsection group_syspm_power_modes Power Modes
  61:Generated_Source\PSoC6\pdl\drivers/peripheral/syspm/cy_syspm.h **** * PSoC 6 MCUs support four system and three CPU power modes. These power modes
  62:Generated_Source\PSoC6\pdl\drivers/peripheral/syspm/cy_syspm.h **** * are intended to minimize average power consumption in an application.
  63:Generated_Source\PSoC6\pdl\drivers/peripheral/syspm/cy_syspm.h **** * System power modes:
  64:Generated_Source\PSoC6\pdl\drivers/peripheral/syspm/cy_syspm.h **** * * <b>Low Power</b> - All peripheral and CPU power modes
  65:Generated_Source\PSoC6\pdl\drivers/peripheral/syspm/cy_syspm.h **** *   are available to be used at maximum device frequency and current 
  66:Generated_Source\PSoC6\pdl\drivers/peripheral/syspm/cy_syspm.h **** *   consumption.
  67:Generated_Source\PSoC6\pdl\drivers/peripheral/syspm/cy_syspm.h **** * * <b>Ultra Low Power</b> - All peripheral and 
  68:Generated_Source\PSoC6\pdl\drivers/peripheral/syspm/cy_syspm.h **** *   CPU power modes are available, but the frequency and current consumption 
  69:Generated_Source\PSoC6\pdl\drivers/peripheral/syspm/cy_syspm.h **** *   are limited to a device specific number.
  70:Generated_Source\PSoC6\pdl\drivers/peripheral/syspm/cy_syspm.h **** * * <b>Deep Sleep</b> - Device and I/O states is retained. Low-frequency 
  71:Generated_Source\PSoC6\pdl\drivers/peripheral/syspm/cy_syspm.h **** *   peripherals are available. Both CPUs are in CPU Deep Sleep power mode. 
  72:Generated_Source\PSoC6\pdl\drivers/peripheral/syspm/cy_syspm.h **** * * <b>Hibernate</b> - The device and I/O states are frozen and the device 
  73:Generated_Source\PSoC6\pdl\drivers/peripheral/syspm/cy_syspm.h **** *   resets on wakeup.
  74:Generated_Source\PSoC6\pdl\drivers/peripheral/syspm/cy_syspm.h **** *
  75:Generated_Source\PSoC6\pdl\drivers/peripheral/syspm/cy_syspm.h **** * The CPU <b>Active</b>, <b>Sleep</b> and <b>Deep Sleep</b> power modes are 
  76:Generated_Source\PSoC6\pdl\drivers/peripheral/syspm/cy_syspm.h **** * Arm-defined power modes supported by the Arm CPU instruction 
  77:Generated_Source\PSoC6\pdl\drivers/peripheral/syspm/cy_syspm.h **** * set architecture (ISA). 
  78:Generated_Source\PSoC6\pdl\drivers/peripheral/syspm/cy_syspm.h **** * 
  79:Generated_Source\PSoC6\pdl\drivers/peripheral/syspm/cy_syspm.h **** * \subsection group_syspm_system_power_modes System Power Modes
  80:Generated_Source\PSoC6\pdl\drivers/peripheral/syspm/cy_syspm.h **** * * <b>LP</b> - In this mode, code is executed and all logic and 
  81:Generated_Source\PSoC6\pdl\drivers/peripheral/syspm/cy_syspm.h **** *   memories are powered. Firmware may disable/reduce clocks for specific 
  82:Generated_Source\PSoC6\pdl\drivers/peripheral/syspm/cy_syspm.h **** *   peripherals and power down specific analog power domains.
  83:Generated_Source\PSoC6\pdl\drivers/peripheral/syspm/cy_syspm.h **** *
  84:Generated_Source\PSoC6\pdl\drivers/peripheral/syspm/cy_syspm.h **** * * <b>ULP</b> - This power mode is like LP mode, but 
  85:Generated_Source\PSoC6\pdl\drivers/peripheral/syspm/cy_syspm.h **** *   with clock restrictions and limited/slower peripherals to achieve lower
  86:Generated_Source\PSoC6\pdl\drivers/peripheral/syspm/cy_syspm.h **** *   current consumption. Refer to \ref group_syspm_switching_into_ulp in 
  87:Generated_Source\PSoC6\pdl\drivers/peripheral/syspm/cy_syspm.h **** *   Configuration considerations.
  88:Generated_Source\PSoC6\pdl\drivers/peripheral/syspm/cy_syspm.h **** *
  89:Generated_Source\PSoC6\pdl\drivers/peripheral/syspm/cy_syspm.h **** * * <b>Deep Sleep</b> - Is a lower power mode where high-frequency clocks are 
  90:Generated_Source\PSoC6\pdl\drivers/peripheral/syspm/cy_syspm.h **** *   disabled. Refer to \ref group_syspm_switching_into_deepsleep in 
  91:Generated_Source\PSoC6\pdl\drivers/peripheral/syspm/cy_syspm.h **** *   Configuration considerations. Deep-sleep-capable peripherals are available. 
  92:Generated_Source\PSoC6\pdl\drivers/peripheral/syspm/cy_syspm.h **** *   A normal wakeup from Deep Sleep returns to either system LP or ULP mode, 
  93:Generated_Source\PSoC6\pdl\drivers/peripheral/syspm/cy_syspm.h **** *   depending on the previous state and programmed behavior for the configured 
  94:Generated_Source\PSoC6\pdl\drivers/peripheral/syspm/cy_syspm.h **** *   wakeup interrupt. Likewise, a debug wakes up from system Deep Sleep and 
  95:Generated_Source\PSoC6\pdl\drivers/peripheral/syspm/cy_syspm.h **** *   woken CPU returns to CPU Sleep. Refer 
  96:Generated_Source\PSoC6\pdl\drivers/peripheral/syspm/cy_syspm.h **** *   to \ref group_syspm_wakingup_from_sleep_deepsleep in Configuration 
ARM GAS  C:\Users\guill\AppData\Local\Temp\ccSz7NWo.s 			page 13


  97:Generated_Source\PSoC6\pdl\drivers/peripheral/syspm/cy_syspm.h **** *   considerations.
  98:Generated_Source\PSoC6\pdl\drivers/peripheral/syspm/cy_syspm.h **** *
  99:Generated_Source\PSoC6\pdl\drivers/peripheral/syspm/cy_syspm.h **** * * <b>Hibernate</b> - Is the lowest power mode that is entered from 
 100:Generated_Source\PSoC6\pdl\drivers/peripheral/syspm/cy_syspm.h **** *   firmware. Refer to \ref group_syspm_switching_into_hibernate in 
 101:Generated_Source\PSoC6\pdl\drivers/peripheral/syspm/cy_syspm.h **** *   Configuration considerations. On wakeup the CPU(s) and all peripherals 
 102:Generated_Source\PSoC6\pdl\drivers/peripheral/syspm/cy_syspm.h **** *   go through a full reset. The I/O's state is frozen so that the 
 103:Generated_Source\PSoC6\pdl\drivers/peripheral/syspm/cy_syspm.h **** *   output driver state is held in system Hibernate. Note that in this mode, 
 104:Generated_Source\PSoC6\pdl\drivers/peripheral/syspm/cy_syspm.h **** *   the CPU(s) and all peripherals lose their states, so the system and firmware
 105:Generated_Source\PSoC6\pdl\drivers/peripheral/syspm/cy_syspm.h **** *   reboot on a wakeup event. Backup memory (if present) can be used to store 
 106:Generated_Source\PSoC6\pdl\drivers/peripheral/syspm/cy_syspm.h **** *   limited system state for use on the next reboot. Refer to 
 107:Generated_Source\PSoC6\pdl\drivers/peripheral/syspm/cy_syspm.h **** *   \ref group_syspm_wakingup_from_hibernate in Configuration considerations.
 108:Generated_Source\PSoC6\pdl\drivers/peripheral/syspm/cy_syspm.h **** *
 109:Generated_Source\PSoC6\pdl\drivers/peripheral/syspm/cy_syspm.h **** * \subsubsection group_syspm_switching_into_lp Switching the System into Low Power
 110:Generated_Source\PSoC6\pdl\drivers/peripheral/syspm/cy_syspm.h **** * To set system LP mode you need to set LP voltage for the active core 
 111:Generated_Source\PSoC6\pdl\drivers/peripheral/syspm/cy_syspm.h **** * regulator:
 112:Generated_Source\PSoC6\pdl\drivers/peripheral/syspm/cy_syspm.h **** * * If active core regulator is the LDO, call:
 113:Generated_Source\PSoC6\pdl\drivers/peripheral/syspm/cy_syspm.h **** *   \code{.c}
 114:Generated_Source\PSoC6\pdl\drivers/peripheral/syspm/cy_syspm.h **** *   Cy_SysPm_LdoSetVoltage(CY_SYSPM_LDO_VOLTAGE_LP);
 115:Generated_Source\PSoC6\pdl\drivers/peripheral/syspm/cy_syspm.h **** *   \endcode
 116:Generated_Source\PSoC6\pdl\drivers/peripheral/syspm/cy_syspm.h **** * * If active core regulator is the Buck, call:
 117:Generated_Source\PSoC6\pdl\drivers/peripheral/syspm/cy_syspm.h **** *   \code{.c}
 118:Generated_Source\PSoC6\pdl\drivers/peripheral/syspm/cy_syspm.h **** *   Cy_SysPm_BuckSetVoltage1(CY_SYSPM_BUCK_OUT1_VOLTAGE_LP)
 119:Generated_Source\PSoC6\pdl\drivers/peripheral/syspm/cy_syspm.h **** *   \endcode
 120:Generated_Source\PSoC6\pdl\drivers/peripheral/syspm/cy_syspm.h **** *
 121:Generated_Source\PSoC6\pdl\drivers/peripheral/syspm/cy_syspm.h **** * After switching into system LP mode, the operating frequency and current 
 122:Generated_Source\PSoC6\pdl\drivers/peripheral/syspm/cy_syspm.h **** * consumption may now be increased up to \ref group_syspm_lp_limitations.
 123:Generated_Source\PSoC6\pdl\drivers/peripheral/syspm/cy_syspm.h **** * The wait states for flash may be changed to increase device performance by 
 124:Generated_Source\PSoC6\pdl\drivers/peripheral/syspm/cy_syspm.h **** * calling SysLib function Cy_SysLib_SetWaitStates(true, hfClkFreqMz), where 
 125:Generated_Source\PSoC6\pdl\drivers/peripheral/syspm/cy_syspm.h **** * hfClkFreqMz is the frequency of HfClk0 in MHz.
 126:Generated_Source\PSoC6\pdl\drivers/peripheral/syspm/cy_syspm.h **** *
 127:Generated_Source\PSoC6\pdl\drivers/peripheral/syspm/cy_syspm.h **** * \subsubsection group_syspm_lp_limitations LP Limitations
 128:Generated_Source\PSoC6\pdl\drivers/peripheral/syspm/cy_syspm.h **** * When the system is in LP mode, the core regulator voltage is set to
 129:Generated_Source\PSoC6\pdl\drivers/peripheral/syspm/cy_syspm.h **** * <b>1.1 V (nominal)</b> and the following limitations must be met:
 130:Generated_Source\PSoC6\pdl\drivers/peripheral/syspm/cy_syspm.h **** *
 131:Generated_Source\PSoC6\pdl\drivers/peripheral/syspm/cy_syspm.h **** *   - The maximum operating frequency for all Clk_HF paths must not exceed 
 132:Generated_Source\PSoC6\pdl\drivers/peripheral/syspm/cy_syspm.h **** *     <b>150 MHz*</b>, and peripheral and slow clock must 
 133:Generated_Source\PSoC6\pdl\drivers/peripheral/syspm/cy_syspm.h **** *     not exceed <b>100 MHz *</b>
 134:Generated_Source\PSoC6\pdl\drivers/peripheral/syspm/cy_syspm.h **** *
 135:Generated_Source\PSoC6\pdl\drivers/peripheral/syspm/cy_syspm.h **** *   - The total current consumption must be less than or equal to 
 136:Generated_Source\PSoC6\pdl\drivers/peripheral/syspm/cy_syspm.h **** *     <b>250 mA *</b>
 137:Generated_Source\PSoC6\pdl\drivers/peripheral/syspm/cy_syspm.h **** *
 138:Generated_Source\PSoC6\pdl\drivers/peripheral/syspm/cy_syspm.h **** * \warning * - Numbers shown are approximate and real limit values may be
 139:Generated_Source\PSoC6\pdl\drivers/peripheral/syspm/cy_syspm.h **** * different because they are device specific. You should refer to the device 
 140:Generated_Source\PSoC6\pdl\drivers/peripheral/syspm/cy_syspm.h **** * datasheet for exact values of maximum frequency and current in system LP mode.
 141:Generated_Source\PSoC6\pdl\drivers/peripheral/syspm/cy_syspm.h **** *
 142:Generated_Source\PSoC6\pdl\drivers/peripheral/syspm/cy_syspm.h **** * \subsubsection group_syspm_switching_into_ulp Switching the System into Ultra Low Power
 143:Generated_Source\PSoC6\pdl\drivers/peripheral/syspm/cy_syspm.h **** * Before switching into system ULP mode, ensure that the device meets 
 144:Generated_Source\PSoC6\pdl\drivers/peripheral/syspm/cy_syspm.h **** * \ref group_syspm_ulp_limitations. Decrease the clock frequencies, 
 145:Generated_Source\PSoC6\pdl\drivers/peripheral/syspm/cy_syspm.h **** * and slow or disable peripherals. Also ensure that appropriate wait state 
 146:Generated_Source\PSoC6\pdl\drivers/peripheral/syspm/cy_syspm.h **** * values are set for the flash. Flash wait states can be set by calling 
 147:Generated_Source\PSoC6\pdl\drivers/peripheral/syspm/cy_syspm.h **** * SysLib function Cy_SysLib_SetWaitStates(true, hfClkFreqMz), where hfClkFreqMz 
 148:Generated_Source\PSoC6\pdl\drivers/peripheral/syspm/cy_syspm.h **** * is the frequency of HfClk0 in MHz.
 149:Generated_Source\PSoC6\pdl\drivers/peripheral/syspm/cy_syspm.h **** *
 150:Generated_Source\PSoC6\pdl\drivers/peripheral/syspm/cy_syspm.h **** * After the \ref group_syspm_ulp_limitations are met and appropriate wait 
 151:Generated_Source\PSoC6\pdl\drivers/peripheral/syspm/cy_syspm.h **** * states are set, you must set ULP voltage for the active core regulator:
 152:Generated_Source\PSoC6\pdl\drivers/peripheral/syspm/cy_syspm.h **** * * If active core regulator is the LDO Core Voltage Regulator, call 
 153:Generated_Source\PSoC6\pdl\drivers/peripheral/syspm/cy_syspm.h **** * Cy_SysPm_LdoSetVoltage(CY_SYSPM_LDO_VOLTAGE_ULP)
ARM GAS  C:\Users\guill\AppData\Local\Temp\ccSz7NWo.s 			page 14


 154:Generated_Source\PSoC6\pdl\drivers/peripheral/syspm/cy_syspm.h **** * * If active core regulator is the Buck Core Voltage Regulator, then call 
 155:Generated_Source\PSoC6\pdl\drivers/peripheral/syspm/cy_syspm.h **** * Cy_SysPm_BuckSetVoltage1(CY_SYSPM_BUCK_OUT1_VOLTAGE_ULP)
 156:Generated_Source\PSoC6\pdl\drivers/peripheral/syspm/cy_syspm.h **** *
 157:Generated_Source\PSoC6\pdl\drivers/peripheral/syspm/cy_syspm.h **** * \subsubsection group_syspm_ulp_limitations ULP Limitations
 158:Generated_Source\PSoC6\pdl\drivers/peripheral/syspm/cy_syspm.h **** * When the system is in ULP mode the core regulator voltage is set to <b>0.9 V 
 159:Generated_Source\PSoC6\pdl\drivers/peripheral/syspm/cy_syspm.h **** * (nominal)</b> and the following limitations must be meet:
 160:Generated_Source\PSoC6\pdl\drivers/peripheral/syspm/cy_syspm.h **** *
 161:Generated_Source\PSoC6\pdl\drivers/peripheral/syspm/cy_syspm.h **** *   - The maximum operating frequency for all Clk_HF paths must not exceed 
 162:Generated_Source\PSoC6\pdl\drivers/peripheral/syspm/cy_syspm.h **** *     <b>50 MHz *</b>, whereas the peripheral and slow clock must not exceed 
 163:Generated_Source\PSoC6\pdl\drivers/peripheral/syspm/cy_syspm.h **** *     <b>25 MHz *</b>. 
 164:Generated_Source\PSoC6\pdl\drivers/peripheral/syspm/cy_syspm.h **** *
 165:Generated_Source\PSoC6\pdl\drivers/peripheral/syspm/cy_syspm.h **** *   - The total current consumption must be less than or equal 
 166:Generated_Source\PSoC6\pdl\drivers/peripheral/syspm/cy_syspm.h **** *     to <b>20 mA*</b>
 167:Generated_Source\PSoC6\pdl\drivers/peripheral/syspm/cy_syspm.h **** *
 168:Generated_Source\PSoC6\pdl\drivers/peripheral/syspm/cy_syspm.h **** *   - the flash write operations are prohibited. The flash works in the 
 169:Generated_Source\PSoC6\pdl\drivers/peripheral/syspm/cy_syspm.h **** *     Read-only operation. If Write operations are required, you must switch to
 170:Generated_Source\PSoC6\pdl\drivers/peripheral/syspm/cy_syspm.h **** *     the system LP mode.
 171:Generated_Source\PSoC6\pdl\drivers/peripheral/syspm/cy_syspm.h **** *
 172:Generated_Source\PSoC6\pdl\drivers/peripheral/syspm/cy_syspm.h **** * \warning * - Numbers shown are approximate and real limit values may be
 173:Generated_Source\PSoC6\pdl\drivers/peripheral/syspm/cy_syspm.h **** * different because they are device specific. You should refer to the device 
 174:Generated_Source\PSoC6\pdl\drivers/peripheral/syspm/cy_syspm.h **** * datasheet for exact values of maximum frequency and current in system
 175:Generated_Source\PSoC6\pdl\drivers/peripheral/syspm/cy_syspm.h **** * ULP mode.
 176:Generated_Source\PSoC6\pdl\drivers/peripheral/syspm/cy_syspm.h **** *
 177:Generated_Source\PSoC6\pdl\drivers/peripheral/syspm/cy_syspm.h **** * \subsubsection group_syspm_switching_into_sleep Switching CPU into Sleep
 178:Generated_Source\PSoC6\pdl\drivers/peripheral/syspm/cy_syspm.h **** * For multi-CPU devices, the Cy_SysPm_CpuEnterSleep() switches only the CPU 
 179:Generated_Source\PSoC6\pdl\drivers/peripheral/syspm/cy_syspm.h **** * that calls the function into the CPU Sleep power mode. 
 180:Generated_Source\PSoC6\pdl\drivers/peripheral/syspm/cy_syspm.h **** *
 181:Generated_Source\PSoC6\pdl\drivers/peripheral/syspm/cy_syspm.h **** * All pending interrupts must be cleared before the CPU is put into a 
 182:Generated_Source\PSoC6\pdl\drivers/peripheral/syspm/cy_syspm.h **** * Sleep mode, even if they are masked.
 183:Generated_Source\PSoC6\pdl\drivers/peripheral/syspm/cy_syspm.h **** *
 184:Generated_Source\PSoC6\pdl\drivers/peripheral/syspm/cy_syspm.h **** * The CPU event register can be set in the past, for example, as a result of 
 185:Generated_Source\PSoC6\pdl\drivers/peripheral/syspm/cy_syspm.h **** * internal system calls. So an old event can cause the CPU to not enter 
 186:Generated_Source\PSoC6\pdl\drivers/peripheral/syspm/cy_syspm.h **** * Sleep mode upon WFE(). Therefore usually the WFE() is used in an idle loop or 
 187:Generated_Source\PSoC6\pdl\drivers/peripheral/syspm/cy_syspm.h **** * polling loop as it might or might not cause entering of CPU Sleep mode. If 
 188:Generated_Source\PSoC6\pdl\drivers/peripheral/syspm/cy_syspm.h **** * the idle loop or polling loop is not used, then it is recommended to use 
 189:Generated_Source\PSoC6\pdl\drivers/peripheral/syspm/cy_syspm.h **** * WFI() instruction.
 190:Generated_Source\PSoC6\pdl\drivers/peripheral/syspm/cy_syspm.h **** *
 191:Generated_Source\PSoC6\pdl\drivers/peripheral/syspm/cy_syspm.h **** * \subsubsection group_syspm_switching_into_deepsleep Switching the System or CPU into Deep Sleep
 192:Generated_Source\PSoC6\pdl\drivers/peripheral/syspm/cy_syspm.h **** * For multi-CPU devices, the Cy_SysPm_CpuEnterDeepSleep() function switches 
 193:Generated_Source\PSoC6\pdl\drivers/peripheral/syspm/cy_syspm.h **** * only the CPU that calls the function into the CPU Deep Sleep power mode. 
 194:Generated_Source\PSoC6\pdl\drivers/peripheral/syspm/cy_syspm.h **** * To set the whole system into Deep Sleep power mode, ensure that all CPUs call 
 195:Generated_Source\PSoC6\pdl\drivers/peripheral/syspm/cy_syspm.h **** * the Cy_SysPm_CpuEnterDeepSleep() function.
 196:Generated_Source\PSoC6\pdl\drivers/peripheral/syspm/cy_syspm.h **** *
 197:Generated_Source\PSoC6\pdl\drivers/peripheral/syspm/cy_syspm.h **** * There are situations when the system does not switch into the Deep Sleep 
 198:Generated_Source\PSoC6\pdl\drivers/peripheral/syspm/cy_syspm.h **** * power mode immediately after the last CPU calls Cy_SysPm_CpuEnterDeepSleep(). 
 199:Generated_Source\PSoC6\pdl\drivers/peripheral/syspm/cy_syspm.h **** * The system will switch into Deep Sleep mode automatically a short time later, 
 200:Generated_Source\PSoC6\pdl\drivers/peripheral/syspm/cy_syspm.h **** * after the low power circuits are ready to switch into Deep Sleep. Refer to 
 201:Generated_Source\PSoC6\pdl\drivers/peripheral/syspm/cy_syspm.h **** * the Cy_SysPm_CpuEnterDeepSleep() description for more detail.
 202:Generated_Source\PSoC6\pdl\drivers/peripheral/syspm/cy_syspm.h **** *
 203:Generated_Source\PSoC6\pdl\drivers/peripheral/syspm/cy_syspm.h **** * All pending interrupts must be cleared before the system is put into a 
 204:Generated_Source\PSoC6\pdl\drivers/peripheral/syspm/cy_syspm.h **** * Deep Sleep mode, even if they are masked.
 205:Generated_Source\PSoC6\pdl\drivers/peripheral/syspm/cy_syspm.h **** *
 206:Generated_Source\PSoC6\pdl\drivers/peripheral/syspm/cy_syspm.h **** * The CPU event register can be set in the past, for example, as a result of 
 207:Generated_Source\PSoC6\pdl\drivers/peripheral/syspm/cy_syspm.h **** * internal system calls. So an old event can cause the CPU to not enter Deep 
 208:Generated_Source\PSoC6\pdl\drivers/peripheral/syspm/cy_syspm.h **** * Sleep mode upon WFE(). Therefore usually the WFE() is used in an idle loop or 
 209:Generated_Source\PSoC6\pdl\drivers/peripheral/syspm/cy_syspm.h **** * polling loop as it might or might not cause entering of CPU Deep Sleep mode. 
 210:Generated_Source\PSoC6\pdl\drivers/peripheral/syspm/cy_syspm.h **** * If the idle loop or polling loop is not used, then it is recommended to use 
ARM GAS  C:\Users\guill\AppData\Local\Temp\ccSz7NWo.s 			page 15


 211:Generated_Source\PSoC6\pdl\drivers/peripheral/syspm/cy_syspm.h **** * WFI() instruction. 
 212:Generated_Source\PSoC6\pdl\drivers/peripheral/syspm/cy_syspm.h **** *
 213:Generated_Source\PSoC6\pdl\drivers/peripheral/syspm/cy_syspm.h **** * For single-CPU devices, SysPm functions that return the status of the 
 214:Generated_Source\PSoC6\pdl\drivers/peripheral/syspm/cy_syspm.h **** * unsupported CPU always return CY_SYSPM_STATUS_<CPU>_DEEPSLEEP.
 215:Generated_Source\PSoC6\pdl\drivers/peripheral/syspm/cy_syspm.h **** *
 216:Generated_Source\PSoC6\pdl\drivers/peripheral/syspm/cy_syspm.h **** * \subsubsection group_syspm_wakingup_from_sleep_deepsleep Waking Up from Sleep or Deep Sleep
 217:Generated_Source\PSoC6\pdl\drivers/peripheral/syspm/cy_syspm.h **** * For Arm-based devices, an interrupt is required for the CPU to wake up. 
 218:Generated_Source\PSoC6\pdl\drivers/peripheral/syspm/cy_syspm.h **** * For multi-CPU devices, one CPU can wake up the other CPU by sending the 
 219:Generated_Source\PSoC6\pdl\drivers/peripheral/syspm/cy_syspm.h **** * event instruction. Use the Cy_SysPm_CpuSendWakeupEvent() function.
 220:Generated_Source\PSoC6\pdl\drivers/peripheral/syspm/cy_syspm.h **** *
 221:Generated_Source\PSoC6\pdl\drivers/peripheral/syspm/cy_syspm.h **** * \subsubsection group_syspm_switching_into_hibernate Switching System to Hibernate
 222:Generated_Source\PSoC6\pdl\drivers/peripheral/syspm/cy_syspm.h **** * If you call Cy_SysPm_SystemEnterHibernate() from either CPU, the system will
 223:Generated_Source\PSoC6\pdl\drivers/peripheral/syspm/cy_syspm.h **** * be switched into the Hibernate power mode directly, because there is no 
 224:Generated_Source\PSoC6\pdl\drivers/peripheral/syspm/cy_syspm.h **** * handshake between CPUs.
 225:Generated_Source\PSoC6\pdl\drivers/peripheral/syspm/cy_syspm.h **** *
 226:Generated_Source\PSoC6\pdl\drivers/peripheral/syspm/cy_syspm.h **** * \subsubsection group_syspm_wakingup_from_hibernate Waking Up from Hibernate
 227:Generated_Source\PSoC6\pdl\drivers/peripheral/syspm/cy_syspm.h **** *
 228:Generated_Source\PSoC6\pdl\drivers/peripheral/syspm/cy_syspm.h **** * The system can wake up from Hibernate mode by configuring the following wakeup
 229:Generated_Source\PSoC6\pdl\drivers/peripheral/syspm/cy_syspm.h **** * sources:
 230:Generated_Source\PSoC6\pdl\drivers/peripheral/syspm/cy_syspm.h **** * - Wakeup pin
 231:Generated_Source\PSoC6\pdl\drivers/peripheral/syspm/cy_syspm.h **** * - LP Comparator
 232:Generated_Source\PSoC6\pdl\drivers/peripheral/syspm/cy_syspm.h **** * - RTC alarm
 233:Generated_Source\PSoC6\pdl\drivers/peripheral/syspm/cy_syspm.h **** * - WDT interrupt
 234:Generated_Source\PSoC6\pdl\drivers/peripheral/syspm/cy_syspm.h **** *
 235:Generated_Source\PSoC6\pdl\drivers/peripheral/syspm/cy_syspm.h **** * Wakeup is supported from device specific pin(s) with programmable polarity. 
 236:Generated_Source\PSoC6\pdl\drivers/peripheral/syspm/cy_syspm.h **** * Additionally, unregulated peripherals can wake the system under some 
 237:Generated_Source\PSoC6\pdl\drivers/peripheral/syspm/cy_syspm.h **** * conditions. For example, a low power comparator can wake the system by 
 238:Generated_Source\PSoC6\pdl\drivers/peripheral/syspm/cy_syspm.h **** * comparing two external voltages, but does not support comparison to an 
 239:Generated_Source\PSoC6\pdl\drivers/peripheral/syspm/cy_syspm.h **** * internally-generated voltage. The backup power domain remains functional, and 
 240:Generated_Source\PSoC6\pdl\drivers/peripheral/syspm/cy_syspm.h **** * if present it can schedule an alarm to wake the system from Hibernate using 
 241:Generated_Source\PSoC6\pdl\drivers/peripheral/syspm/cy_syspm.h **** * the RTC. Alternatively, the Watchdog Timer (WDT) can be configured to wake-up 
 242:Generated_Source\PSoC6\pdl\drivers/peripheral/syspm/cy_syspm.h **** * the system by WDT interrupt. Refer to \ref Cy_SysPm_SetHibernateWakeupSource()
 243:Generated_Source\PSoC6\pdl\drivers/peripheral/syspm/cy_syspm.h **** * for more detail.
 244:Generated_Source\PSoC6\pdl\drivers/peripheral/syspm/cy_syspm.h **** *
 245:Generated_Source\PSoC6\pdl\drivers/peripheral/syspm/cy_syspm.h **** * \subsection group_syspm_system_reg_curr_mode System Regulator Current Mode
 246:Generated_Source\PSoC6\pdl\drivers/peripheral/syspm/cy_syspm.h **** * In addition to system ULP and LP modes, the five different resource 
 247:Generated_Source\PSoC6\pdl\drivers/peripheral/syspm/cy_syspm.h **** * power settings can be configured to reduce current consumption:
 248:Generated_Source\PSoC6\pdl\drivers/peripheral/syspm/cy_syspm.h **** * -# <b>Linear regulator low power mode</b>. Can be used only if core current
 249:Generated_Source\PSoC6\pdl\drivers/peripheral/syspm/cy_syspm.h **** *    is below the LDO regulator LP threshold.
 250:Generated_Source\PSoC6\pdl\drivers/peripheral/syspm/cy_syspm.h **** * -# <b>POR/BOD circuit low power mode</b>. Requires compatible power supply 
 251:Generated_Source\PSoC6\pdl\drivers/peripheral/syspm/cy_syspm.h **** *    stability due to stability increase response time.
 252:Generated_Source\PSoC6\pdl\drivers/peripheral/syspm/cy_syspm.h **** * -# <b>Bandgap reference circuits low power mode</b> (turns on Deep Sleep 
 253:Generated_Source\PSoC6\pdl\drivers/peripheral/syspm/cy_syspm.h **** *    Bandgap). Requires design to accept reduced Vref accuracy. Active ref can 
 254:Generated_Source\PSoC6\pdl\drivers/peripheral/syspm/cy_syspm.h **** *    be turned off after this feature is enabled.
 255:Generated_Source\PSoC6\pdl\drivers/peripheral/syspm/cy_syspm.h **** * -# <b>Reference buffer circuit low power mode</b>. Requires design to accept 
 256:Generated_Source\PSoC6\pdl\drivers/peripheral/syspm/cy_syspm.h **** *    reduced Vref accuracy.
 257:Generated_Source\PSoC6\pdl\drivers/peripheral/syspm/cy_syspm.h **** * -# <b>Current reference circuit low power mode</b>. Require design to accept 
 258:Generated_Source\PSoC6\pdl\drivers/peripheral/syspm/cy_syspm.h **** *    reduced Iref accuracy.
 259:Generated_Source\PSoC6\pdl\drivers/peripheral/syspm/cy_syspm.h **** *
 260:Generated_Source\PSoC6\pdl\drivers/peripheral/syspm/cy_syspm.h **** * These five sub features can modify both system LP or ULP modes as they are 
 261:Generated_Source\PSoC6\pdl\drivers/peripheral/syspm/cy_syspm.h **** * independent from LP/ULP settings. 
 262:Generated_Source\PSoC6\pdl\drivers/peripheral/syspm/cy_syspm.h **** * When all five sub features are set to their low power modes, the system 
 263:Generated_Source\PSoC6\pdl\drivers/peripheral/syspm/cy_syspm.h **** * operates in regulator minimum current mode. In regulator minimum current mode,
 264:Generated_Source\PSoC6\pdl\drivers/peripheral/syspm/cy_syspm.h **** * the system current consumption is limited to a device-specific value. Refer to 
 265:Generated_Source\PSoC6\pdl\drivers/peripheral/syspm/cy_syspm.h **** * the device datasheet for the exact current consumption value in regulator 
 266:Generated_Source\PSoC6\pdl\drivers/peripheral/syspm/cy_syspm.h **** * minimum current mode.
 267:Generated_Source\PSoC6\pdl\drivers/peripheral/syspm/cy_syspm.h **** * 
ARM GAS  C:\Users\guill\AppData\Local\Temp\ccSz7NWo.s 			page 16


 268:Generated_Source\PSoC6\pdl\drivers/peripheral/syspm/cy_syspm.h **** * When all five sub features are set to their normal mode, the system operates
 269:Generated_Source\PSoC6\pdl\drivers/peripheral/syspm/cy_syspm.h **** * in regulator normal current mode. When regulator normal current mode is set, 
 270:Generated_Source\PSoC6\pdl\drivers/peripheral/syspm/cy_syspm.h **** * the system may operate at device maximum current.
 271:Generated_Source\PSoC6\pdl\drivers/peripheral/syspm/cy_syspm.h **** * 
 272:Generated_Source\PSoC6\pdl\drivers/peripheral/syspm/cy_syspm.h **** * \subsection group_syspm_system_set_min_reg_curr_mode Setting Minimum System Regulator Current Mod
 273:Generated_Source\PSoC6\pdl\drivers/peripheral/syspm/cy_syspm.h **** *
 274:Generated_Source\PSoC6\pdl\drivers/peripheral/syspm/cy_syspm.h **** * Before setting the regulator minimum current mode ensure that current limits 
 275:Generated_Source\PSoC6\pdl\drivers/peripheral/syspm/cy_syspm.h **** * are be met. After current limits are met, call the 
 276:Generated_Source\PSoC6\pdl\drivers/peripheral/syspm/cy_syspm.h **** * Cy_SysPm_SystemSetNormalRegulatorCurrent() function. 
 277:Generated_Source\PSoC6\pdl\drivers/peripheral/syspm/cy_syspm.h **** * 
 278:Generated_Source\PSoC6\pdl\drivers/peripheral/syspm/cy_syspm.h **** * \subsection group_syspm_system_set_normal_reg_curr_mode Setting Normal System Regulator Current M
 279:Generated_Source\PSoC6\pdl\drivers/peripheral/syspm/cy_syspm.h **** *
 280:Generated_Source\PSoC6\pdl\drivers/peripheral/syspm/cy_syspm.h **** * To set regulator normal current mode, call the 
 281:Generated_Source\PSoC6\pdl\drivers/peripheral/syspm/cy_syspm.h **** * Cy_SysPm_SystemSetNormalRegulatorCurrent() function. After the function call, 
 282:Generated_Source\PSoC6\pdl\drivers/peripheral/syspm/cy_syspm.h **** * the current limits can be increased to a maximum current, depending on what 
 283:Generated_Source\PSoC6\pdl\drivers/peripheral/syspm/cy_syspm.h **** * system power mode is set: LP or ULP.
 284:Generated_Source\PSoC6\pdl\drivers/peripheral/syspm/cy_syspm.h **** *
 285:Generated_Source\PSoC6\pdl\drivers/peripheral/syspm/cy_syspm.h **** * \subsection group_syspm_managing_pmic Managing PMIC
 286:Generated_Source\PSoC6\pdl\drivers/peripheral/syspm/cy_syspm.h **** *
 287:Generated_Source\PSoC6\pdl\drivers/peripheral/syspm/cy_syspm.h **** * The SysPm driver also provides an API to configure the internal power 
 288:Generated_Source\PSoC6\pdl\drivers/peripheral/syspm/cy_syspm.h **** * management integrated circuit (PMIC) controller for an external PMIC that 
 289:Generated_Source\PSoC6\pdl\drivers/peripheral/syspm/cy_syspm.h **** * supplies Vddd. Use the API to enable the internal PMIC controller output that
 290:Generated_Source\PSoC6\pdl\drivers/peripheral/syspm/cy_syspm.h **** * is routed to pmic_wakeup_out pin, and configure the polarity of the PMIC 
 291:Generated_Source\PSoC6\pdl\drivers/peripheral/syspm/cy_syspm.h **** * controller input (pmic_wakeup_in) that is used to wake up the PMIC.
 292:Generated_Source\PSoC6\pdl\drivers/peripheral/syspm/cy_syspm.h **** *
 293:Generated_Source\PSoC6\pdl\drivers/peripheral/syspm/cy_syspm.h **** * The PMIC controller is automatically enabled when:
 294:Generated_Source\PSoC6\pdl\drivers/peripheral/syspm/cy_syspm.h **** * * The PMIC is locked by a call to Cy_SysPm_PmicLock()
 295:Generated_Source\PSoC6\pdl\drivers/peripheral/syspm/cy_syspm.h **** * * The configured polarity of the PMIC input and the polarity driven to 
 296:Generated_Source\PSoC6\pdl\drivers/peripheral/syspm/cy_syspm.h **** *   pmic_wakeup_in pin matches.
 297:Generated_Source\PSoC6\pdl\drivers/peripheral/syspm/cy_syspm.h **** *
 298:Generated_Source\PSoC6\pdl\drivers/peripheral/syspm/cy_syspm.h **** * Because a call to Cy_SysPm_PmicLock() automatically enables the PMIC
 299:Generated_Source\PSoC6\pdl\drivers/peripheral/syspm/cy_syspm.h **** * controller, the PMIC can remain disabled only when it is unlocked. See Cy_SysPm_PmicUnlock() 
 300:Generated_Source\PSoC6\pdl\drivers/peripheral/syspm/cy_syspm.h **** * for more detail.
 301:Generated_Source\PSoC6\pdl\drivers/peripheral/syspm/cy_syspm.h **** *
 302:Generated_Source\PSoC6\pdl\drivers/peripheral/syspm/cy_syspm.h **** * Use Cy_SysPm_PmicIsLocked() to read the current PMIC lock status.
 303:Generated_Source\PSoC6\pdl\drivers/peripheral/syspm/cy_syspm.h **** * 
 304:Generated_Source\PSoC6\pdl\drivers/peripheral/syspm/cy_syspm.h **** * To enable the PMIC, use these functions in this order:
 305:Generated_Source\PSoC6\pdl\drivers/peripheral/syspm/cy_syspm.h **** * \code{.c}
 306:Generated_Source\PSoC6\pdl\drivers/peripheral/syspm/cy_syspm.h **** * Cy_SysPm_PmicUnlock();
 307:Generated_Source\PSoC6\pdl\drivers/peripheral/syspm/cy_syspm.h **** * Cy_SysPm_PmicEnable();
 308:Generated_Source\PSoC6\pdl\drivers/peripheral/syspm/cy_syspm.h **** * Cy_SysPm_PmicLock();
 309:Generated_Source\PSoC6\pdl\drivers/peripheral/syspm/cy_syspm.h **** * \endcode
 310:Generated_Source\PSoC6\pdl\drivers/peripheral/syspm/cy_syspm.h **** *
 311:Generated_Source\PSoC6\pdl\drivers/peripheral/syspm/cy_syspm.h **** * To disable the PMIC controller, unlock the PMIC. Then call 
 312:Generated_Source\PSoC6\pdl\drivers/peripheral/syspm/cy_syspm.h **** * Cy_SysPm_PmicDisable() with the inverted value of the current active state of 
 313:Generated_Source\PSoC6\pdl\drivers/peripheral/syspm/cy_syspm.h **** * the pmic_wakeup_in pin.
 314:Generated_Source\PSoC6\pdl\drivers/peripheral/syspm/cy_syspm.h **** * For example, assume the current state of the pmic_wakeup_in pin is active low.
 315:Generated_Source\PSoC6\pdl\drivers/peripheral/syspm/cy_syspm.h **** * To disable the PMIC controller, call these functions in this order:
 316:Generated_Source\PSoC6\pdl\drivers/peripheral/syspm/cy_syspm.h **** * \code{.c}
 317:Generated_Source\PSoC6\pdl\drivers/peripheral/syspm/cy_syspm.h **** * Cy_SysPm_PmicUnlock();
 318:Generated_Source\PSoC6\pdl\drivers/peripheral/syspm/cy_syspm.h **** * Cy_SysPm_PmicDisable(CY_SYSPM_PMIC_POLARITY_HIGH);
 319:Generated_Source\PSoC6\pdl\drivers/peripheral/syspm/cy_syspm.h **** * \endcode
 320:Generated_Source\PSoC6\pdl\drivers/peripheral/syspm/cy_syspm.h **** * Note that you do not call Cy_SysPm_PmicLock(), because that automatically 
 321:Generated_Source\PSoC6\pdl\drivers/peripheral/syspm/cy_syspm.h **** * enables the PMIC.
 322:Generated_Source\PSoC6\pdl\drivers/peripheral/syspm/cy_syspm.h **** * 
 323:Generated_Source\PSoC6\pdl\drivers/peripheral/syspm/cy_syspm.h **** * While disabled, the PMIC controller is automatically enabled when the 
 324:Generated_Source\PSoC6\pdl\drivers/peripheral/syspm/cy_syspm.h **** * pmic_wakeup_in pin state is changed into a high state.
ARM GAS  C:\Users\guill\AppData\Local\Temp\ccSz7NWo.s 			page 17


 325:Generated_Source\PSoC6\pdl\drivers/peripheral/syspm/cy_syspm.h **** *
 326:Generated_Source\PSoC6\pdl\drivers/peripheral/syspm/cy_syspm.h **** * To disable the PMIC controller output, call these functions in this order:
 327:Generated_Source\PSoC6\pdl\drivers/peripheral/syspm/cy_syspm.h **** * Cy_SysPm_PmicUnlock();
 328:Generated_Source\PSoC6\pdl\drivers/peripheral/syspm/cy_syspm.h **** * Cy_SysPm_PmicDisableOutput();
 329:Generated_Source\PSoC6\pdl\drivers/peripheral/syspm/cy_syspm.h **** *
 330:Generated_Source\PSoC6\pdl\drivers/peripheral/syspm/cy_syspm.h **** * Do not call Cy_SysPm_PmicLock() (which automatically enables the PMIC 
 331:Generated_Source\PSoC6\pdl\drivers/peripheral/syspm/cy_syspm.h **** * controller output).
 332:Generated_Source\PSoC6\pdl\drivers/peripheral/syspm/cy_syspm.h **** * 
 333:Generated_Source\PSoC6\pdl\drivers/peripheral/syspm/cy_syspm.h **** * When disabled, the PMIC controller output is enabled when the PMIC is locked, 
 334:Generated_Source\PSoC6\pdl\drivers/peripheral/syspm/cy_syspm.h **** * or by calling Cy_SysPm_PmicEnableOutput().
 335:Generated_Source\PSoC6\pdl\drivers/peripheral/syspm/cy_syspm.h **** *
 336:Generated_Source\PSoC6\pdl\drivers/peripheral/syspm/cy_syspm.h **** * \subsection group_syspm_managing_backup_domain Managing the Backup Domain
 337:Generated_Source\PSoC6\pdl\drivers/peripheral/syspm/cy_syspm.h **** * The SysPm driver provide functions to:
 338:Generated_Source\PSoC6\pdl\drivers/peripheral/syspm/cy_syspm.h **** *
 339:Generated_Source\PSoC6\pdl\drivers/peripheral/syspm/cy_syspm.h **** * * Configure Supercapacitor charging
 340:Generated_Source\PSoC6\pdl\drivers/peripheral/syspm/cy_syspm.h **** * * Select power supply source (Vbackup or Vddd) for Vddbackup
 341:Generated_Source\PSoC6\pdl\drivers/peripheral/syspm/cy_syspm.h **** * * Measure Vddbackup using the ADC
 342:Generated_Source\PSoC6\pdl\drivers/peripheral/syspm/cy_syspm.h **** * 
 343:Generated_Source\PSoC6\pdl\drivers/peripheral/syspm/cy_syspm.h **** * Refer to the \ref group_syspm_functions_backup functions for more detail.
 344:Generated_Source\PSoC6\pdl\drivers/peripheral/syspm/cy_syspm.h **** *
 345:Generated_Source\PSoC6\pdl\drivers/peripheral/syspm/cy_syspm.h **** * \subsection group_syspm_cb SysPm Callbacks
 346:Generated_Source\PSoC6\pdl\drivers/peripheral/syspm/cy_syspm.h **** * The SysPm driver handles low power callbacks declared in the application. 
 347:Generated_Source\PSoC6\pdl\drivers/peripheral/syspm/cy_syspm.h **** *
 348:Generated_Source\PSoC6\pdl\drivers/peripheral/syspm/cy_syspm.h **** * If there are no callbacks registered, the device executes the power mode 
 349:Generated_Source\PSoC6\pdl\drivers/peripheral/syspm/cy_syspm.h **** * transition. However, frequently your application firmware must make 
 350:Generated_Source\PSoC6\pdl\drivers/peripheral/syspm/cy_syspm.h **** * modifications for low power mode. For example, you may need to disable a 
 351:Generated_Source\PSoC6\pdl\drivers/peripheral/syspm/cy_syspm.h **** * peripheral, or ensure that a message is not being transmitted or received.
 352:Generated_Source\PSoC6\pdl\drivers/peripheral/syspm/cy_syspm.h **** *
 353:Generated_Source\PSoC6\pdl\drivers/peripheral/syspm/cy_syspm.h **** * To enable this, the SysPm driver implements a callback mechanism. When a lower
 354:Generated_Source\PSoC6\pdl\drivers/peripheral/syspm/cy_syspm.h **** * power mode transition is about to take place (either entering or exiting 
 355:Generated_Source\PSoC6\pdl\drivers/peripheral/syspm/cy_syspm.h **** * \ref group_syspm_system_power_modes), the registered callbacks for that 
 356:Generated_Source\PSoC6\pdl\drivers/peripheral/syspm/cy_syspm.h **** * transition are called.
 357:Generated_Source\PSoC6\pdl\drivers/peripheral/syspm/cy_syspm.h **** *
 358:Generated_Source\PSoC6\pdl\drivers/peripheral/syspm/cy_syspm.h **** * The SysPm driver organizes all the callbacks into a linked list. While 
 359:Generated_Source\PSoC6\pdl\drivers/peripheral/syspm/cy_syspm.h **** * entering a low power mode, SysPm goes through that linked list from first to 
 360:Generated_Source\PSoC6\pdl\drivers/peripheral/syspm/cy_syspm.h **** * last, executing the callbacks one after another. While exiting low power mode,
 361:Generated_Source\PSoC6\pdl\drivers/peripheral/syspm/cy_syspm.h **** * SysPm goes through that linked list again, but in the opposite direction from 
 362:Generated_Source\PSoC6\pdl\drivers/peripheral/syspm/cy_syspm.h **** * last to first. This ordering supports prioritization of callbacks relative to 
 363:Generated_Source\PSoC6\pdl\drivers/peripheral/syspm/cy_syspm.h **** * the transition event. 
 364:Generated_Source\PSoC6\pdl\drivers/peripheral/syspm/cy_syspm.h **** *
 365:Generated_Source\PSoC6\pdl\drivers/peripheral/syspm/cy_syspm.h **** * For example, the picture below shows three callback structures organized into 
 366:Generated_Source\PSoC6\pdl\drivers/peripheral/syspm/cy_syspm.h **** * a linked list: myDeepSleep1, myDeepSleep2, myDeepSleep3 (represented with the 
 367:Generated_Source\PSoC6\pdl\drivers/peripheral/syspm/cy_syspm.h **** * \ref cy_stc_syspm_callback_t configuration structure). Each structure 
 368:Generated_Source\PSoC6\pdl\drivers/peripheral/syspm/cy_syspm.h **** * contains, among other fields, the address of the callback function. The code 
 369:Generated_Source\PSoC6\pdl\drivers/peripheral/syspm/cy_syspm.h **** * snippets below set this up so that myDeepSleep1 is called first when entering 
 370:Generated_Source\PSoC6\pdl\drivers/peripheral/syspm/cy_syspm.h **** * the low power mode. This also means that myDeepSleep1 will be the last one to 
 371:Generated_Source\PSoC6\pdl\drivers/peripheral/syspm/cy_syspm.h **** * execute when exiting the low power mode.
 372:Generated_Source\PSoC6\pdl\drivers/peripheral/syspm/cy_syspm.h **** *
 373:Generated_Source\PSoC6\pdl\drivers/peripheral/syspm/cy_syspm.h **** * The callback structures after registration:
 374:Generated_Source\PSoC6\pdl\drivers/peripheral/syspm/cy_syspm.h **** * \image html syspm_2_10_after_registration.png
 375:Generated_Source\PSoC6\pdl\drivers/peripheral/syspm/cy_syspm.h **** *
 376:Generated_Source\PSoC6\pdl\drivers/peripheral/syspm/cy_syspm.h **** * Your application must register each callback, so that SysPm can execute it. 
 377:Generated_Source\PSoC6\pdl\drivers/peripheral/syspm/cy_syspm.h **** * Upon registration, the linked list is built by the SysPm driver. Notice 
 378:Generated_Source\PSoC6\pdl\drivers/peripheral/syspm/cy_syspm.h **** * the &myDeepSleep1 address in the myDeepSleep1 
 379:Generated_Source\PSoC6\pdl\drivers/peripheral/syspm/cy_syspm.h **** * \ref cy_stc_syspm_callback_t structure. This is filled in by the SysPm driver 
 380:Generated_Source\PSoC6\pdl\drivers/peripheral/syspm/cy_syspm.h **** * when you register myDeepSleep1. The order in which the callbacks are 
 381:Generated_Source\PSoC6\pdl\drivers/peripheral/syspm/cy_syspm.h **** * registered in the application defines the order of their execution by the 
ARM GAS  C:\Users\guill\AppData\Local\Temp\ccSz7NWo.s 			page 18


 382:Generated_Source\PSoC6\pdl\drivers/peripheral/syspm/cy_syspm.h **** * SysPm driver. Call \ref Cy_SysPm_RegisterCallback() to register each 
 383:Generated_Source\PSoC6\pdl\drivers/peripheral/syspm/cy_syspm.h **** * callback function. 
 384:Generated_Source\PSoC6\pdl\drivers/peripheral/syspm/cy_syspm.h **** * 
 385:Generated_Source\PSoC6\pdl\drivers/peripheral/syspm/cy_syspm.h **** * A callback function is typically associated with a particular driver that 
 386:Generated_Source\PSoC6\pdl\drivers/peripheral/syspm/cy_syspm.h **** * handles the peripheral. So the callback mechanism enables a peripheral to 
 387:Generated_Source\PSoC6\pdl\drivers/peripheral/syspm/cy_syspm.h **** * prepare for a low power mode (for instance, shutting down the analog part); 
 388:Generated_Source\PSoC6\pdl\drivers/peripheral/syspm/cy_syspm.h **** * or to perform tasks while exiting a low power mode (like enabling the analog 
 389:Generated_Source\PSoC6\pdl\drivers/peripheral/syspm/cy_syspm.h **** * part again).
 390:Generated_Source\PSoC6\pdl\drivers/peripheral/syspm/cy_syspm.h **** *
 391:Generated_Source\PSoC6\pdl\drivers/peripheral/syspm/cy_syspm.h **** * With the callback mechanism you can prevent switching into a low power mode if
 392:Generated_Source\PSoC6\pdl\drivers/peripheral/syspm/cy_syspm.h **** * a peripheral is not ready. For example, driver X is in the process of 
 393:Generated_Source\PSoC6\pdl\drivers/peripheral/syspm/cy_syspm.h **** * receiving a message. In the callback function implementation simply return 
 394:Generated_Source\PSoC6\pdl\drivers/peripheral/syspm/cy_syspm.h **** * CY_SYSPM_FAIL in a response to CY_SYSPM_CHECK_READY.
 395:Generated_Source\PSoC6\pdl\drivers/peripheral/syspm/cy_syspm.h **** *
 396:Generated_Source\PSoC6\pdl\drivers/peripheral/syspm/cy_syspm.h **** * If success is returned while executing a callback, the SysPm driver calls the 
 397:Generated_Source\PSoC6\pdl\drivers/peripheral/syspm/cy_syspm.h **** * next callback and so on to the end of the list. If at some point a callback 
 398:Generated_Source\PSoC6\pdl\drivers/peripheral/syspm/cy_syspm.h **** * returns CY_SYSPM_FAIL in response to the CY_SYSPM_CHECK_READY step, all the 
 399:Generated_Source\PSoC6\pdl\drivers/peripheral/syspm/cy_syspm.h **** * callbacks that have already executed are executed in reverse order, with the 
 400:Generated_Source\PSoC6\pdl\drivers/peripheral/syspm/cy_syspm.h **** * CY_SYSPM_CHECK_FAIL mode parameter. This allows each callback to know that 
 401:Generated_Source\PSoC6\pdl\drivers/peripheral/syspm/cy_syspm.h **** * entering the low power mode has failed. The callback can then undo whatever it
 402:Generated_Source\PSoC6\pdl\drivers/peripheral/syspm/cy_syspm.h **** * did to prepare for low power mode, if required. For example, if the driver X 
 403:Generated_Source\PSoC6\pdl\drivers/peripheral/syspm/cy_syspm.h **** * callback shut down the analog part, it can re-enable the analog part.
 404:Generated_Source\PSoC6\pdl\drivers/peripheral/syspm/cy_syspm.h **** * 
 405:Generated_Source\PSoC6\pdl\drivers/peripheral/syspm/cy_syspm.h **** * Let's switch to an example explaining the implementation, setup, and 
 406:Generated_Source\PSoC6\pdl\drivers/peripheral/syspm/cy_syspm.h **** * registration of three callbacks (myDeepSleep1, myDeepSleep2, myDeepSleep2) in 
 407:Generated_Source\PSoC6\pdl\drivers/peripheral/syspm/cy_syspm.h **** * the application. The \ref group_syspm_cb_config_consideration are provided 
 408:Generated_Source\PSoC6\pdl\drivers/peripheral/syspm/cy_syspm.h **** * after the \ref group_syspm_cb_example.
 409:Generated_Source\PSoC6\pdl\drivers/peripheral/syspm/cy_syspm.h **** * 
 410:Generated_Source\PSoC6\pdl\drivers/peripheral/syspm/cy_syspm.h **** * \subsection group_syspm_cb_example SysPm Callbacks Example
 411:Generated_Source\PSoC6\pdl\drivers/peripheral/syspm/cy_syspm.h **** *
 412:Generated_Source\PSoC6\pdl\drivers/peripheral/syspm/cy_syspm.h **** * The following code snippets demonstrate how use the SysPm callbacks mechanism.
 413:Generated_Source\PSoC6\pdl\drivers/peripheral/syspm/cy_syspm.h **** * We will build the prototype for an application that registers 
 414:Generated_Source\PSoC6\pdl\drivers/peripheral/syspm/cy_syspm.h **** * three callback functions:
 415:Generated_Source\PSoC6\pdl\drivers/peripheral/syspm/cy_syspm.h **** *    -# myDeepSleep1 - Handles CPU Deep Sleep.
 416:Generated_Source\PSoC6\pdl\drivers/peripheral/syspm/cy_syspm.h **** *    -# myDeepSleep1 - Handles CPU Deep Sleep and is associated with peripheral 
 417:Generated_Source\PSoC6\pdl\drivers/peripheral/syspm/cy_syspm.h **** *       HW1_address (see <a href="..\..\pdl_user_guide.pdf">PDL Design</a> 
 418:Generated_Source\PSoC6\pdl\drivers/peripheral/syspm/cy_syspm.h **** *       section to learn about the base hardware address).
 419:Generated_Source\PSoC6\pdl\drivers/peripheral/syspm/cy_syspm.h **** *    -# myDeepSleep2 - Handles entering and exiting system Deep Sleep and is 
 420:Generated_Source\PSoC6\pdl\drivers/peripheral/syspm/cy_syspm.h **** *       associated with peripheral HW2_address.
 421:Generated_Source\PSoC6\pdl\drivers/peripheral/syspm/cy_syspm.h **** *
 422:Generated_Source\PSoC6\pdl\drivers/peripheral/syspm/cy_syspm.h **** * We set things up so that the myDeepSleep1 and myDeepSleep2 callbacks do 
 423:Generated_Source\PSoC6\pdl\drivers/peripheral/syspm/cy_syspm.h **** * nothing while entering the low power mode (skip on 
 424:Generated_Source\PSoC6\pdl\drivers/peripheral/syspm/cy_syspm.h **** * CY_SYSPM_SKIP_BEFORE_TRANSITION - 
 425:Generated_Source\PSoC6\pdl\drivers/peripheral/syspm/cy_syspm.h **** * see \ref group_syspm_cb_function_implementation in 
 426:Generated_Source\PSoC6\pdl\drivers/peripheral/syspm/cy_syspm.h **** * \ref group_syspm_cb_config_consideration).
 427:Generated_Source\PSoC6\pdl\drivers/peripheral/syspm/cy_syspm.h **** * Skipping the actions while entering low power might be useful if you need 
 428:Generated_Source\PSoC6\pdl\drivers/peripheral/syspm/cy_syspm.h **** * to save time while switching low power modes. This is because the callback
 429:Generated_Source\PSoC6\pdl\drivers/peripheral/syspm/cy_syspm.h **** * function with a skipped mode is not even called avoiding the call and return
 430:Generated_Source\PSoC6\pdl\drivers/peripheral/syspm/cy_syspm.h **** * overhead.
 431:Generated_Source\PSoC6\pdl\drivers/peripheral/syspm/cy_syspm.h **** * 
 432:Generated_Source\PSoC6\pdl\drivers/peripheral/syspm/cy_syspm.h **** * Let's first declare the callback functions. Each gets the pointer to the 
 433:Generated_Source\PSoC6\pdl\drivers/peripheral/syspm/cy_syspm.h **** * \ref cy_stc_syspm_callback_params_t structure as the argument.
 434:Generated_Source\PSoC6\pdl\drivers/peripheral/syspm/cy_syspm.h **** *
 435:Generated_Source\PSoC6\pdl\drivers/peripheral/syspm/cy_syspm.h **** * \snippet syspm/4.0/snippet/main.c snippet_Cy_SysPm_Callback_Func_Declaration
 436:Generated_Source\PSoC6\pdl\drivers/peripheral/syspm/cy_syspm.h **** *
 437:Generated_Source\PSoC6\pdl\drivers/peripheral/syspm/cy_syspm.h **** * Now we setup the \ref cy_stc_syspm_callback_params_t structures that we will
 438:Generated_Source\PSoC6\pdl\drivers/peripheral/syspm/cy_syspm.h **** * pass to the callback functions. Note that for the myDeepSleep1 and 
ARM GAS  C:\Users\guill\AppData\Local\Temp\ccSz7NWo.s 			page 19


 439:Generated_Source\PSoC6\pdl\drivers/peripheral/syspm/cy_syspm.h **** * myDeepSleep2 callbacks we also pass pointers to the peripherals related to 
 440:Generated_Source\PSoC6\pdl\drivers/peripheral/syspm/cy_syspm.h **** * that callback (see <a href="..\..\pdl_user_guide.pdf">PDL Design</a> section 
 441:Generated_Source\PSoC6\pdl\drivers/peripheral/syspm/cy_syspm.h **** * to learn about base hardware addresses). 
 442:Generated_Source\PSoC6\pdl\drivers/peripheral/syspm/cy_syspm.h **** * The configuration considerations related to this structure are described 
 443:Generated_Source\PSoC6\pdl\drivers/peripheral/syspm/cy_syspm.h **** * in \ref group_syspm_cb_parameters in \ref group_syspm_cb_config_consideration.
 444:Generated_Source\PSoC6\pdl\drivers/peripheral/syspm/cy_syspm.h **** *
 445:Generated_Source\PSoC6\pdl\drivers/peripheral/syspm/cy_syspm.h **** * \snippet syspm/4.0/snippet/main.c snippet_Cy_SysPm_Callback_Params_Declaration
 446:Generated_Source\PSoC6\pdl\drivers/peripheral/syspm/cy_syspm.h **** *
 447:Generated_Source\PSoC6\pdl\drivers/peripheral/syspm/cy_syspm.h **** * Now we setup the actual callback configuration structures. Each of these 
 448:Generated_Source\PSoC6\pdl\drivers/peripheral/syspm/cy_syspm.h **** * contains, among the other fields, the address of the 
 449:Generated_Source\PSoC6\pdl\drivers/peripheral/syspm/cy_syspm.h **** * \ref cy_stc_syspm_callback_params_t we just set up. We will use the callback 
 450:Generated_Source\PSoC6\pdl\drivers/peripheral/syspm/cy_syspm.h **** * configuration structures later in the code to register the callbacks in the 
 451:Generated_Source\PSoC6\pdl\drivers/peripheral/syspm/cy_syspm.h **** * SysPm driver. Again, we set things up so that the myDeepSleep1 and 
 452:Generated_Source\PSoC6\pdl\drivers/peripheral/syspm/cy_syspm.h **** * myDeepSleep1 callbacks do nothing while entering the low power mode 
 453:Generated_Source\PSoC6\pdl\drivers/peripheral/syspm/cy_syspm.h **** * (skip on CY_SYSPM_SKIP_BEFORE_TRANSITION) - see 
 454:Generated_Source\PSoC6\pdl\drivers/peripheral/syspm/cy_syspm.h **** * \ref group_syspm_cb_function_implementation in 
 455:Generated_Source\PSoC6\pdl\drivers/peripheral/syspm/cy_syspm.h **** * \ref group_syspm_cb_config_consideration.
 456:Generated_Source\PSoC6\pdl\drivers/peripheral/syspm/cy_syspm.h **** *
 457:Generated_Source\PSoC6\pdl\drivers/peripheral/syspm/cy_syspm.h **** * \snippet syspm/4.0/snippet/main.c snippet_Cy_SysPm_Callback_Structure_Declaration
 458:Generated_Source\PSoC6\pdl\drivers/peripheral/syspm/cy_syspm.h **** *
 459:Generated_Source\PSoC6\pdl\drivers/peripheral/syspm/cy_syspm.h **** * Note that in each case the last two fields are NULL. These are fields used by 
 460:Generated_Source\PSoC6\pdl\drivers/peripheral/syspm/cy_syspm.h **** * the SysPm driver to set up the linked list of callback functions.
 461:Generated_Source\PSoC6\pdl\drivers/peripheral/syspm/cy_syspm.h **** * 
 462:Generated_Source\PSoC6\pdl\drivers/peripheral/syspm/cy_syspm.h **** * The callback structures are now defined and allocated in the user's 
 463:Generated_Source\PSoC6\pdl\drivers/peripheral/syspm/cy_syspm.h **** * memory space:
 464:Generated_Source\PSoC6\pdl\drivers/peripheral/syspm/cy_syspm.h **** * \image html syspm_2_10_before_registration.png
 465:Generated_Source\PSoC6\pdl\drivers/peripheral/syspm/cy_syspm.h **** *
 466:Generated_Source\PSoC6\pdl\drivers/peripheral/syspm/cy_syspm.h **** * Now we implement the callback functions. See 
 467:Generated_Source\PSoC6\pdl\drivers/peripheral/syspm/cy_syspm.h **** * \ref group_syspm_cb_function_implementation in 
 468:Generated_Source\PSoC6\pdl\drivers/peripheral/syspm/cy_syspm.h **** * \ref group_syspm_cb_config_consideration for the instructions on how the 
 469:Generated_Source\PSoC6\pdl\drivers/peripheral/syspm/cy_syspm.h **** * callback functions should be implemented.
 470:Generated_Source\PSoC6\pdl\drivers/peripheral/syspm/cy_syspm.h **** *
 471:Generated_Source\PSoC6\pdl\drivers/peripheral/syspm/cy_syspm.h **** * \snippet syspm/4.0/snippet/main.c snippet_Cy_SysPm_Callback_Func_Implementation
 472:Generated_Source\PSoC6\pdl\drivers/peripheral/syspm/cy_syspm.h **** *
 473:Generated_Source\PSoC6\pdl\drivers/peripheral/syspm/cy_syspm.h **** * Finally, we register the callbacks so that the SysPm driver knows about them. 
 474:Generated_Source\PSoC6\pdl\drivers/peripheral/syspm/cy_syspm.h **** * The order in which the callbacks will be called depends upon the order in 
 475:Generated_Source\PSoC6\pdl\drivers/peripheral/syspm/cy_syspm.h **** * which the callbacks are registered. If there are no callbacks registered, 
 476:Generated_Source\PSoC6\pdl\drivers/peripheral/syspm/cy_syspm.h **** * the device just executes the power mode transition.
 477:Generated_Source\PSoC6\pdl\drivers/peripheral/syspm/cy_syspm.h **** *
 478:Generated_Source\PSoC6\pdl\drivers/peripheral/syspm/cy_syspm.h **** * Callbacks that reconfigure global resources, such as clock frequencies, should
 479:Generated_Source\PSoC6\pdl\drivers/peripheral/syspm/cy_syspm.h **** * be registered last. They then modify global resources as the final step before
 480:Generated_Source\PSoC6\pdl\drivers/peripheral/syspm/cy_syspm.h **** * entering the low power mode, and restore those resources first, as the system
 481:Generated_Source\PSoC6\pdl\drivers/peripheral/syspm/cy_syspm.h **** * returns from low power mode.
 482:Generated_Source\PSoC6\pdl\drivers/peripheral/syspm/cy_syspm.h **** *
 483:Generated_Source\PSoC6\pdl\drivers/peripheral/syspm/cy_syspm.h **** * \snippet syspm/4.0/snippet/main.c snippet_Cy_SysPm_RegisterCallback
 484:Generated_Source\PSoC6\pdl\drivers/peripheral/syspm/cy_syspm.h **** *
 485:Generated_Source\PSoC6\pdl\drivers/peripheral/syspm/cy_syspm.h **** * We are done configuring three callbacks. Now the SysPm driver will execute the
 486:Generated_Source\PSoC6\pdl\drivers/peripheral/syspm/cy_syspm.h **** * callbacks appropriately whenever there is a call to a power mode transition 
 487:Generated_Source\PSoC6\pdl\drivers/peripheral/syspm/cy_syspm.h **** * function: \ref Cy_SysPm_CpuEnterSleep(), \ref Cy_SysPm_CpuEnterDeepSleep(), 
 488:Generated_Source\PSoC6\pdl\drivers/peripheral/syspm/cy_syspm.h **** * \ref Cy_SysPm_SystemEnterUlp(), \ref Cy_SysPm_SystemEnterLp(), and 
 489:Generated_Source\PSoC6\pdl\drivers/peripheral/syspm/cy_syspm.h **** * \ref Cy_SysPm_SystemEnterHibernate().
 490:Generated_Source\PSoC6\pdl\drivers/peripheral/syspm/cy_syspm.h **** * \note On a wakeup from hibernate the device goes through a reset, so the 
 491:Generated_Source\PSoC6\pdl\drivers/peripheral/syspm/cy_syspm.h **** * callbacks with CY_SYSPM_AFTER_TRANSITION are not executed. Refer to 
 492:Generated_Source\PSoC6\pdl\drivers/peripheral/syspm/cy_syspm.h **** * \ref Cy_SysPm_SystemEnterHibernate() for more detail.
 493:Generated_Source\PSoC6\pdl\drivers/peripheral/syspm/cy_syspm.h **** * 
 494:Generated_Source\PSoC6\pdl\drivers/peripheral/syspm/cy_syspm.h **** * Refer to \ref group_syspm_cb_unregistering in 
 495:Generated_Source\PSoC6\pdl\drivers/peripheral/syspm/cy_syspm.h **** * \ref group_syspm_cb_config_consideration to learn what to do if you need to 
ARM GAS  C:\Users\guill\AppData\Local\Temp\ccSz7NWo.s 			page 20


 496:Generated_Source\PSoC6\pdl\drivers/peripheral/syspm/cy_syspm.h **** * remove the callback from the linked list. You might want to unregister the 
 497:Generated_Source\PSoC6\pdl\drivers/peripheral/syspm/cy_syspm.h **** * callback for debug purposes.
 498:Generated_Source\PSoC6\pdl\drivers/peripheral/syspm/cy_syspm.h **** * 
 499:Generated_Source\PSoC6\pdl\drivers/peripheral/syspm/cy_syspm.h **** * Refer to \ref group_syspm_cb_flow in \ref group_syspm_cb_config_consideration 
 500:Generated_Source\PSoC6\pdl\drivers/peripheral/syspm/cy_syspm.h **** * to learn about how the SysPm processes the callbacks.
 501:Generated_Source\PSoC6\pdl\drivers/peripheral/syspm/cy_syspm.h **** *
 502:Generated_Source\PSoC6\pdl\drivers/peripheral/syspm/cy_syspm.h **** * \subsection group_syspm_cb_config_consideration Callback Configuration Considerations
 503:Generated_Source\PSoC6\pdl\drivers/peripheral/syspm/cy_syspm.h **** *
 504:Generated_Source\PSoC6\pdl\drivers/peripheral/syspm/cy_syspm.h **** * \subsubsection group_syspm_cb_parameters Callback Function Parameters
 505:Generated_Source\PSoC6\pdl\drivers/peripheral/syspm/cy_syspm.h **** * 
 506:Generated_Source\PSoC6\pdl\drivers/peripheral/syspm/cy_syspm.h **** * The <b>callbackParams</b> parameter of the callback function is a 
 507:Generated_Source\PSoC6\pdl\drivers/peripheral/syspm/cy_syspm.h **** * \ref cy_stc_syspm_callback_params_t structure. The second parameter 
 508:Generated_Source\PSoC6\pdl\drivers/peripheral/syspm/cy_syspm.h **** * (<b>mode</b>) is for internal use. In the example code we used a 
 509:Generated_Source\PSoC6\pdl\drivers/peripheral/syspm/cy_syspm.h **** * dummy value CY_SYSPM_CHECK_READY to eliminate compilation errors associated 
 510:Generated_Source\PSoC6\pdl\drivers/peripheral/syspm/cy_syspm.h **** * with the enumeration. The driver sets the <b>mode</b> field to the correct 
 511:Generated_Source\PSoC6\pdl\drivers/peripheral/syspm/cy_syspm.h **** * value when calling the callback functions (the mode is referred to as step in 
 512:Generated_Source\PSoC6\pdl\drivers/peripheral/syspm/cy_syspm.h **** * the \ref group_syspm_cb_function_implementation). The callback function reads 
 513:Generated_Source\PSoC6\pdl\drivers/peripheral/syspm/cy_syspm.h **** * the value and executes code based on the mode set by the SysPm driver. 
 514:Generated_Source\PSoC6\pdl\drivers/peripheral/syspm/cy_syspm.h **** * The <b>base</b> and <b>context</b> fields are optional and can be NULL. 
 515:Generated_Source\PSoC6\pdl\drivers/peripheral/syspm/cy_syspm.h **** * Some drivers require a base hardware address and context to store information 
 516:Generated_Source\PSoC6\pdl\drivers/peripheral/syspm/cy_syspm.h **** * about the mode transition. If your callback routine requires access to the 
 517:Generated_Source\PSoC6\pdl\drivers/peripheral/syspm/cy_syspm.h **** * driver registers or context, provide those values 
 518:Generated_Source\PSoC6\pdl\drivers/peripheral/syspm/cy_syspm.h **** * (see <a href="..\..\pdl_user_guide.pdf">PDL Design</a> section 
 519:Generated_Source\PSoC6\pdl\drivers/peripheral/syspm/cy_syspm.h **** * to learn about Base Hardware Address). Be aware of MISRA warnings if these 
 520:Generated_Source\PSoC6\pdl\drivers/peripheral/syspm/cy_syspm.h **** * parameters are NULL.
 521:Generated_Source\PSoC6\pdl\drivers/peripheral/syspm/cy_syspm.h **** *
 522:Generated_Source\PSoC6\pdl\drivers/peripheral/syspm/cy_syspm.h **** * \subsubsection group_syspm_cb_structures Callback Function Structure
 523:Generated_Source\PSoC6\pdl\drivers/peripheral/syspm/cy_syspm.h **** * For each callback, provide a \ref cy_stc_syspm_callback_t structure. Some 
 524:Generated_Source\PSoC6\pdl\drivers/peripheral/syspm/cy_syspm.h **** * fields in this structure are maintained by the driver. Use NULL for 
 525:Generated_Source\PSoC6\pdl\drivers/peripheral/syspm/cy_syspm.h **** * <b>prevItm</b> and <b>nextItm</b>. The driver uses these fields to build a 
 526:Generated_Source\PSoC6\pdl\drivers/peripheral/syspm/cy_syspm.h **** * linked list of callback functions.
 527:Generated_Source\PSoC6\pdl\drivers/peripheral/syspm/cy_syspm.h **** *
 528:Generated_Source\PSoC6\pdl\drivers/peripheral/syspm/cy_syspm.h **** * \warning The Cy_SysPm_RegisterCallback() function stores a pointer to the 
 529:Generated_Source\PSoC6\pdl\drivers/peripheral/syspm/cy_syspm.h **** * cy_stc_syspm_callback_t structure. Do not modify elements of the 
 530:Generated_Source\PSoC6\pdl\drivers/peripheral/syspm/cy_syspm.h **** * cy_stc_syspm_callback_t structure after the callback is registered. 
 531:Generated_Source\PSoC6\pdl\drivers/peripheral/syspm/cy_syspm.h **** * You are responsible for ensuring that the structure remains in scope. 
 532:Generated_Source\PSoC6\pdl\drivers/peripheral/syspm/cy_syspm.h **** * Typically the structure is declared as a global or static variable, or as a 
 533:Generated_Source\PSoC6\pdl\drivers/peripheral/syspm/cy_syspm.h **** * local variable in the main() function.
 534:Generated_Source\PSoC6\pdl\drivers/peripheral/syspm/cy_syspm.h **** *
 535:Generated_Source\PSoC6\pdl\drivers/peripheral/syspm/cy_syspm.h **** * \subsubsection group_syspm_cb_function_implementation Callback Function Implementation
 536:Generated_Source\PSoC6\pdl\drivers/peripheral/syspm/cy_syspm.h **** *
 537:Generated_Source\PSoC6\pdl\drivers/peripheral/syspm/cy_syspm.h **** * Every callback function should handle four possible steps (referred to as 
 538:Generated_Source\PSoC6\pdl\drivers/peripheral/syspm/cy_syspm.h **** * "mode") defined in \ref cy_en_syspm_callback_mode_t :
 539:Generated_Source\PSoC6\pdl\drivers/peripheral/syspm/cy_syspm.h **** *    * CY_SYSPM_CHECK_READY - Check if ready to enter a power mode.
 540:Generated_Source\PSoC6\pdl\drivers/peripheral/syspm/cy_syspm.h **** *    * CY_SYSPM_BEFORE_TRANSITION - The actions to be done before entering 
 541:Generated_Source\PSoC6\pdl\drivers/peripheral/syspm/cy_syspm.h **** *      the low power mode.
 542:Generated_Source\PSoC6\pdl\drivers/peripheral/syspm/cy_syspm.h **** *    * CY_SYSPM_AFTER_TRANSITION - The actions to be done after exiting the 
 543:Generated_Source\PSoC6\pdl\drivers/peripheral/syspm/cy_syspm.h **** *      low power mode.
 544:Generated_Source\PSoC6\pdl\drivers/peripheral/syspm/cy_syspm.h **** *    * CY_SYSPM_CHECK_FAIL - Roll back any actions performed in the callback 
 545:Generated_Source\PSoC6\pdl\drivers/peripheral/syspm/cy_syspm.h **** *      executed previously with CY_SYSPM_CHECK_READY.
 546:Generated_Source\PSoC6\pdl\drivers/peripheral/syspm/cy_syspm.h **** *
 547:Generated_Source\PSoC6\pdl\drivers/peripheral/syspm/cy_syspm.h **** * A callback function can skip steps (see \ref group_syspm_skip_callback_modes).
 548:Generated_Source\PSoC6\pdl\drivers/peripheral/syspm/cy_syspm.h **** * In our example myDeepSleep1 and myDeepSleep2 callbacks do nothing while 
 549:Generated_Source\PSoC6\pdl\drivers/peripheral/syspm/cy_syspm.h **** * entering the low power mode (skip on CY_SYSPM_BEFORE_TRANSITION). If there is
 550:Generated_Source\PSoC6\pdl\drivers/peripheral/syspm/cy_syspm.h **** * anything preventing low power mode entry - return CY_SYSPM_FAIL in response to
 551:Generated_Source\PSoC6\pdl\drivers/peripheral/syspm/cy_syspm.h **** * CY_SYSPM_CHECK_READY in your callback implementation. Note that the callback 
 552:Generated_Source\PSoC6\pdl\drivers/peripheral/syspm/cy_syspm.h **** * should return CY_SYSPM_FAIL only in response to CY_SYSPM_CHECK_READY. The 
ARM GAS  C:\Users\guill\AppData\Local\Temp\ccSz7NWo.s 			page 21


 553:Generated_Source\PSoC6\pdl\drivers/peripheral/syspm/cy_syspm.h **** * callback function should always return CY_SYSPM_PASS for other modes: 
 554:Generated_Source\PSoC6\pdl\drivers/peripheral/syspm/cy_syspm.h **** * CY_SYSPM_CHECK_FAIL, CY_SYSPM_BEFORE_TRANSITION, and CY_SYSPM_AFTER_TRANSITION
 555:Generated_Source\PSoC6\pdl\drivers/peripheral/syspm/cy_syspm.h **** * (see \ref group_syspm_cb_flow).
 556:Generated_Source\PSoC6\pdl\drivers/peripheral/syspm/cy_syspm.h **** * 
 557:Generated_Source\PSoC6\pdl\drivers/peripheral/syspm/cy_syspm.h **** * \subsubsection group_syspm_cb_flow Callbacks Execution Flow
 558:Generated_Source\PSoC6\pdl\drivers/peripheral/syspm/cy_syspm.h **** *
 559:Generated_Source\PSoC6\pdl\drivers/peripheral/syspm/cy_syspm.h **** * This section explains what happens during a power transition, when callbacks 
 560:Generated_Source\PSoC6\pdl\drivers/peripheral/syspm/cy_syspm.h **** * are implemented and set up correctly. The following discussion assumes:
 561:Generated_Source\PSoC6\pdl\drivers/peripheral/syspm/cy_syspm.h **** * * All required callback functions are defined and implemented
 562:Generated_Source\PSoC6\pdl\drivers/peripheral/syspm/cy_syspm.h **** * * All cy_stc_syspm_callback_t structures are filled with required values
 563:Generated_Source\PSoC6\pdl\drivers/peripheral/syspm/cy_syspm.h **** * * All callbacks are successfully registered 
 564:Generated_Source\PSoC6\pdl\drivers/peripheral/syspm/cy_syspm.h **** *
 565:Generated_Source\PSoC6\pdl\drivers/peripheral/syspm/cy_syspm.h **** * User calls one of the power mode transition functions: \ref Cy_SysPm_CpuEnterSleep(), 
 566:Generated_Source\PSoC6\pdl\drivers/peripheral/syspm/cy_syspm.h **** * \ref Cy_SysPm_CpuEnterDeepSleep(), \ref Cy_SysPm_SystemEnterUlp(), 
 567:Generated_Source\PSoC6\pdl\drivers/peripheral/syspm/cy_syspm.h **** * \ref Cy_SysPm_SystemEnterLp(), or \ref Cy_SysPm_SystemEnterHibernate(). 
 568:Generated_Source\PSoC6\pdl\drivers/peripheral/syspm/cy_syspm.h **** * It calls each callback with the mode set to CY_SYSPM_CHECK_READY. This 
 569:Generated_Source\PSoC6\pdl\drivers/peripheral/syspm/cy_syspm.h **** * triggers execution of the code for that mode inside of each user callback.
 570:Generated_Source\PSoC6\pdl\drivers/peripheral/syspm/cy_syspm.h **** * 
 571:Generated_Source\PSoC6\pdl\drivers/peripheral/syspm/cy_syspm.h **** * The intent of CY_SYSPM_CHECK_READY is to only signal if the resources is ready
 572:Generated_Source\PSoC6\pdl\drivers/peripheral/syspm/cy_syspm.h **** * to transition. Ideally, no transition changes should be made at this time. 
 573:Generated_Source\PSoC6\pdl\drivers/peripheral/syspm/cy_syspm.h **** * In some cases a small change may be required. For example a communication 
 574:Generated_Source\PSoC6\pdl\drivers/peripheral/syspm/cy_syspm.h **** * resource callback may set a flag telling firmware not to start any new 
 575:Generated_Source\PSoC6\pdl\drivers/peripheral/syspm/cy_syspm.h **** * transition.
 576:Generated_Source\PSoC6\pdl\drivers/peripheral/syspm/cy_syspm.h **** 
 577:Generated_Source\PSoC6\pdl\drivers/peripheral/syspm/cy_syspm.h **** * If that process is successful for all callbacks, then 
 578:Generated_Source\PSoC6\pdl\drivers/peripheral/syspm/cy_syspm.h **** * \ref Cy_SysPm_ExecuteCallback() calls each callback with the mode set to 
 579:Generated_Source\PSoC6\pdl\drivers/peripheral/syspm/cy_syspm.h **** * CY_SYSPM_BEFORE_TRANSITION. This triggers execution of the code for that mode 
 580:Generated_Source\PSoC6\pdl\drivers/peripheral/syspm/cy_syspm.h **** * inside each user callback. We then enter the low power mode after all callback
 581:Generated_Source\PSoC6\pdl\drivers/peripheral/syspm/cy_syspm.h **** * are executes.
 582:Generated_Source\PSoC6\pdl\drivers/peripheral/syspm/cy_syspm.h **** * 
 583:Generated_Source\PSoC6\pdl\drivers/peripheral/syspm/cy_syspm.h **** * When exiting the low power mode, the SysPm driver executes 
 584:Generated_Source\PSoC6\pdl\drivers/peripheral/syspm/cy_syspm.h **** * \ref Cy_SysPm_ExecuteCallback() again. This time it calls each callback in 
 585:Generated_Source\PSoC6\pdl\drivers/peripheral/syspm/cy_syspm.h **** * reverse order, with the mode set to CY_SYSPM_AFTER_TRANSITION. This triggers 
 586:Generated_Source\PSoC6\pdl\drivers/peripheral/syspm/cy_syspm.h **** * execution of the code for that mode inside each user callback. The final 
 587:Generated_Source\PSoC6\pdl\drivers/peripheral/syspm/cy_syspm.h **** * execution of callbacks depends on the low power mode in which callbacks were 
 588:Generated_Source\PSoC6\pdl\drivers/peripheral/syspm/cy_syspm.h **** * called:
 589:Generated_Source\PSoC6\pdl\drivers/peripheral/syspm/cy_syspm.h **** * * For CPU Sleep or Deep Sleep power modes, the CY_SYSPM_AFTER_TRANSITION mode 
 590:Generated_Source\PSoC6\pdl\drivers/peripheral/syspm/cy_syspm.h **** *   is called after the CPU wakes from Sleep or Deep Sleep.
 591:Generated_Source\PSoC6\pdl\drivers/peripheral/syspm/cy_syspm.h **** * * For system Hibernate, the CY_SYSPM_AFTER_TRANSITION mode is not executed 
 592:Generated_Source\PSoC6\pdl\drivers/peripheral/syspm/cy_syspm.h **** *   because the device reboots after the wakeup from the Hibernate.
 593:Generated_Source\PSoC6\pdl\drivers/peripheral/syspm/cy_syspm.h **** * * For system LP and ULP modes, after the CY_SYSPM_AFTER_TRANSITION mode was 
 594:Generated_Source\PSoC6\pdl\drivers/peripheral/syspm/cy_syspm.h **** *   called the system remains in the new power mode: LP or ULP.
 595:Generated_Source\PSoC6\pdl\drivers/peripheral/syspm/cy_syspm.h **** * 
 596:Generated_Source\PSoC6\pdl\drivers/peripheral/syspm/cy_syspm.h **** * A callback can return CY_SYSPM_FAIL only while executing the 
 597:Generated_Source\PSoC6\pdl\drivers/peripheral/syspm/cy_syspm.h **** * CY_SYSPM_CHECK_READY mode. If that happens, then the remaining callbacks are 
 598:Generated_Source\PSoC6\pdl\drivers/peripheral/syspm/cy_syspm.h **** * not executed. Any callbacks that have already executed are called again, in 
 599:Generated_Source\PSoC6\pdl\drivers/peripheral/syspm/cy_syspm.h **** * reverse order, with CY_SYSPM_CHECK_FAIL. This allows the system to return to 
 600:Generated_Source\PSoC6\pdl\drivers/peripheral/syspm/cy_syspm.h **** * the previous state. If a callback returns a fail then any of the functions 
 601:Generated_Source\PSoC6\pdl\drivers/peripheral/syspm/cy_syspm.h **** * (\ref Cy_SysPm_CpuEnterSleep(), \ref Cy_SysPm_CpuEnterDeepSleep(), 
 602:Generated_Source\PSoC6\pdl\drivers/peripheral/syspm/cy_syspm.h **** * \ref Cy_SysPm_SystemEnterUlp(), \ref Cy_SysPm_SystemEnterLp(), or 
 603:Generated_Source\PSoC6\pdl\drivers/peripheral/syspm/cy_syspm.h **** * \ref Cy_SysPm_SystemEnterHibernate()) that attempt to switch the device into 
 604:Generated_Source\PSoC6\pdl\drivers/peripheral/syspm/cy_syspm.h **** * a low power mode will also return CY_SYSPM_FAIL.
 605:Generated_Source\PSoC6\pdl\drivers/peripheral/syspm/cy_syspm.h **** *
 606:Generated_Source\PSoC6\pdl\drivers/peripheral/syspm/cy_syspm.h **** * Callbacks that reconfigure global resources, such as clock frequencies, 
 607:Generated_Source\PSoC6\pdl\drivers/peripheral/syspm/cy_syspm.h **** * should be registered last. They then modify global resources as the final 
 608:Generated_Source\PSoC6\pdl\drivers/peripheral/syspm/cy_syspm.h **** * step before entering the low power mode, and restore those resources first, 
 609:Generated_Source\PSoC6\pdl\drivers/peripheral/syspm/cy_syspm.h **** * as the system returns from low power mode.
ARM GAS  C:\Users\guill\AppData\Local\Temp\ccSz7NWo.s 			page 22


 610:Generated_Source\PSoC6\pdl\drivers/peripheral/syspm/cy_syspm.h **** *
 611:Generated_Source\PSoC6\pdl\drivers/peripheral/syspm/cy_syspm.h **** * \subsubsection group_syspm_cb_unregistering Callback Unregistering
 612:Generated_Source\PSoC6\pdl\drivers/peripheral/syspm/cy_syspm.h **** *
 613:Generated_Source\PSoC6\pdl\drivers/peripheral/syspm/cy_syspm.h **** * Unregistering the callback might be useful when you need to dynamically manage
 614:Generated_Source\PSoC6\pdl\drivers/peripheral/syspm/cy_syspm.h **** * the callbacks.
 615:Generated_Source\PSoC6\pdl\drivers/peripheral/syspm/cy_syspm.h **** *
 616:Generated_Source\PSoC6\pdl\drivers/peripheral/syspm/cy_syspm.h **** * \snippet syspm/4.0/snippet/main.c snippet_Cy_SysPm_UnregisterCallback
 617:Generated_Source\PSoC6\pdl\drivers/peripheral/syspm/cy_syspm.h **** * The callback structures after myDeepSleep2 callback is unregistered:
 618:Generated_Source\PSoC6\pdl\drivers/peripheral/syspm/cy_syspm.h **** * \image html syspm_2_10_unregistration.png
 619:Generated_Source\PSoC6\pdl\drivers/peripheral/syspm/cy_syspm.h **** *
 620:Generated_Source\PSoC6\pdl\drivers/peripheral/syspm/cy_syspm.h **** * \section group_syspm_definitions Definitions
 621:Generated_Source\PSoC6\pdl\drivers/peripheral/syspm/cy_syspm.h **** *
 622:Generated_Source\PSoC6\pdl\drivers/peripheral/syspm/cy_syspm.h **** * <table class="doxtable">
 623:Generated_Source\PSoC6\pdl\drivers/peripheral/syspm/cy_syspm.h **** *   <tr>
 624:Generated_Source\PSoC6\pdl\drivers/peripheral/syspm/cy_syspm.h **** *     <th>Term</th>
 625:Generated_Source\PSoC6\pdl\drivers/peripheral/syspm/cy_syspm.h **** *     <th>Definition</th>
 626:Generated_Source\PSoC6\pdl\drivers/peripheral/syspm/cy_syspm.h **** *   </tr>
 627:Generated_Source\PSoC6\pdl\drivers/peripheral/syspm/cy_syspm.h **** *
 628:Generated_Source\PSoC6\pdl\drivers/peripheral/syspm/cy_syspm.h **** *   <tr>
 629:Generated_Source\PSoC6\pdl\drivers/peripheral/syspm/cy_syspm.h **** *     <td>LDO</td>
 630:Generated_Source\PSoC6\pdl\drivers/peripheral/syspm/cy_syspm.h **** *     <td>Low dropout linear regulator. The functions that manage this 
 631:Generated_Source\PSoC6\pdl\drivers/peripheral/syspm/cy_syspm.h **** *         block are grouped as \ref group_syspm_functions_ldo under 
 632:Generated_Source\PSoC6\pdl\drivers/peripheral/syspm/cy_syspm.h **** *         \ref group_syspm_functions_core_regulators</td>
 633:Generated_Source\PSoC6\pdl\drivers/peripheral/syspm/cy_syspm.h **** *   </tr>
 634:Generated_Source\PSoC6\pdl\drivers/peripheral/syspm/cy_syspm.h **** *
 635:Generated_Source\PSoC6\pdl\drivers/peripheral/syspm/cy_syspm.h **** *   <tr>
 636:Generated_Source\PSoC6\pdl\drivers/peripheral/syspm/cy_syspm.h **** *     <td>SIMO Buck</td>
 637:Generated_Source\PSoC6\pdl\drivers/peripheral/syspm/cy_syspm.h **** *     <td>Single inductor multiple Output Buck regulator, referred as 
 638:Generated_Source\PSoC6\pdl\drivers/peripheral/syspm/cy_syspm.h **** *         "Buck regulator" throughout the documentation. The functions that 
 639:Generated_Source\PSoC6\pdl\drivers/peripheral/syspm/cy_syspm.h **** *         manage this block are grouped as \ref group_syspm_functions_buck under
 640:Generated_Source\PSoC6\pdl\drivers/peripheral/syspm/cy_syspm.h **** *         \ref group_syspm_functions_core_regulators</td>
 641:Generated_Source\PSoC6\pdl\drivers/peripheral/syspm/cy_syspm.h **** *   </tr>
 642:Generated_Source\PSoC6\pdl\drivers/peripheral/syspm/cy_syspm.h **** *
 643:Generated_Source\PSoC6\pdl\drivers/peripheral/syspm/cy_syspm.h **** *   <tr>
 644:Generated_Source\PSoC6\pdl\drivers/peripheral/syspm/cy_syspm.h **** *     <td>SISO Buck</td>
 645:Generated_Source\PSoC6\pdl\drivers/peripheral/syspm/cy_syspm.h **** *     <td>Single inductor single output Buck regulator, referred as 
 646:Generated_Source\PSoC6\pdl\drivers/peripheral/syspm/cy_syspm.h **** *         "Buck regulator" throughout the documentation. The functions that 
 647:Generated_Source\PSoC6\pdl\drivers/peripheral/syspm/cy_syspm.h **** *         manage this block are grouped as \ref group_syspm_functions_buck under
 648:Generated_Source\PSoC6\pdl\drivers/peripheral/syspm/cy_syspm.h **** *         \ref group_syspm_functions_core_regulators</td>
 649:Generated_Source\PSoC6\pdl\drivers/peripheral/syspm/cy_syspm.h **** *   </tr>
 650:Generated_Source\PSoC6\pdl\drivers/peripheral/syspm/cy_syspm.h **** 
 651:Generated_Source\PSoC6\pdl\drivers/peripheral/syspm/cy_syspm.h **** *   <tr>
 652:Generated_Source\PSoC6\pdl\drivers/peripheral/syspm/cy_syspm.h **** *     <td>PMIC</td>
 653:Generated_Source\PSoC6\pdl\drivers/peripheral/syspm/cy_syspm.h **** *     <td>Power management integrated circuit. The functions that manage this 
 654:Generated_Source\PSoC6\pdl\drivers/peripheral/syspm/cy_syspm.h **** *         block are grouped as \ref group_syspm_functions_pmic</td>
 655:Generated_Source\PSoC6\pdl\drivers/peripheral/syspm/cy_syspm.h **** *   </tr>
 656:Generated_Source\PSoC6\pdl\drivers/peripheral/syspm/cy_syspm.h **** *
 657:Generated_Source\PSoC6\pdl\drivers/peripheral/syspm/cy_syspm.h **** *   <tr>
 658:Generated_Source\PSoC6\pdl\drivers/peripheral/syspm/cy_syspm.h **** *     <td>LP</td>
 659:Generated_Source\PSoC6\pdl\drivers/peripheral/syspm/cy_syspm.h **** *     <td>System low power mode. See the \ref group_syspm_switching_into_lp 
 660:Generated_Source\PSoC6\pdl\drivers/peripheral/syspm/cy_syspm.h **** *         section for details.</td>
 661:Generated_Source\PSoC6\pdl\drivers/peripheral/syspm/cy_syspm.h **** *   </tr>
 662:Generated_Source\PSoC6\pdl\drivers/peripheral/syspm/cy_syspm.h **** *
 663:Generated_Source\PSoC6\pdl\drivers/peripheral/syspm/cy_syspm.h **** *   <tr>
 664:Generated_Source\PSoC6\pdl\drivers/peripheral/syspm/cy_syspm.h **** *     <td>ULP</td>
 665:Generated_Source\PSoC6\pdl\drivers/peripheral/syspm/cy_syspm.h **** *     <td>System ultra low power mode. See the 
 666:Generated_Source\PSoC6\pdl\drivers/peripheral/syspm/cy_syspm.h **** *         \ref group_syspm_switching_into_ulp section for details.</td>
ARM GAS  C:\Users\guill\AppData\Local\Temp\ccSz7NWo.s 			page 23


 667:Generated_Source\PSoC6\pdl\drivers/peripheral/syspm/cy_syspm.h **** *   </tr>
 668:Generated_Source\PSoC6\pdl\drivers/peripheral/syspm/cy_syspm.h **** * </table>
 669:Generated_Source\PSoC6\pdl\drivers/peripheral/syspm/cy_syspm.h **** *
 670:Generated_Source\PSoC6\pdl\drivers/peripheral/syspm/cy_syspm.h **** * \section group_syspm_section_more_information More Information
 671:Generated_Source\PSoC6\pdl\drivers/peripheral/syspm/cy_syspm.h **** * For more information on the SysPm driver,
 672:Generated_Source\PSoC6\pdl\drivers/peripheral/syspm/cy_syspm.h **** * refer to the technical reference manual (TRM).
 673:Generated_Source\PSoC6\pdl\drivers/peripheral/syspm/cy_syspm.h **** *
 674:Generated_Source\PSoC6\pdl\drivers/peripheral/syspm/cy_syspm.h **** * \section group_syspm_MISRA MISRA-C Compliance
 675:Generated_Source\PSoC6\pdl\drivers/peripheral/syspm/cy_syspm.h **** * The SysPm driver does not have any specific deviations.
 676:Generated_Source\PSoC6\pdl\drivers/peripheral/syspm/cy_syspm.h **** *
 677:Generated_Source\PSoC6\pdl\drivers/peripheral/syspm/cy_syspm.h **** * \section group_syspm_changelog Changelog
 678:Generated_Source\PSoC6\pdl\drivers/peripheral/syspm/cy_syspm.h **** * <table class="doxtable">
 679:Generated_Source\PSoC6\pdl\drivers/peripheral/syspm/cy_syspm.h **** *   <tr><th>Version</th><th>Changes</th><th>Reason for Change</th></tr>
 680:Generated_Source\PSoC6\pdl\drivers/peripheral/syspm/cy_syspm.h **** *   <tr>
 681:Generated_Source\PSoC6\pdl\drivers/peripheral/syspm/cy_syspm.h **** *     <td rowspan="6">4.0</td>
 682:Generated_Source\PSoC6\pdl\drivers/peripheral/syspm/cy_syspm.h **** *     <td>
 683:Generated_Source\PSoC6\pdl\drivers/peripheral/syspm/cy_syspm.h **** *          Flattened the organization of the driver source code into the single source directory an
 684:Generated_Source\PSoC6\pdl\drivers/peripheral/syspm/cy_syspm.h **** *     </td>
 685:Generated_Source\PSoC6\pdl\drivers/peripheral/syspm/cy_syspm.h **** *     <td>Driver library directory-structure simplification.</td>
 686:Generated_Source\PSoC6\pdl\drivers/peripheral/syspm/cy_syspm.h **** *   </tr>
 687:Generated_Source\PSoC6\pdl\drivers/peripheral/syspm/cy_syspm.h **** *   <tr>
 688:Generated_Source\PSoC6\pdl\drivers/peripheral/syspm/cy_syspm.h **** *     <td>
 689:Generated_Source\PSoC6\pdl\drivers/peripheral/syspm/cy_syspm.h **** *          Changed power modes names. See \ref group_syspm_system_power_modes.
 690:Generated_Source\PSoC6\pdl\drivers/peripheral/syspm/cy_syspm.h **** * 
 691:Generated_Source\PSoC6\pdl\drivers/peripheral/syspm/cy_syspm.h **** *          Renamed the following functions: 
 692:Generated_Source\PSoC6\pdl\drivers/peripheral/syspm/cy_syspm.h **** *           - Cy_SysPm_Sleep to Cy_SysPm_CpuEnterSleep
 693:Generated_Source\PSoC6\pdl\drivers/peripheral/syspm/cy_syspm.h **** *           - Cy_SysPm_DeepSleep to Cy_SysPm_CpuEnterDeepSleep
 694:Generated_Source\PSoC6\pdl\drivers/peripheral/syspm/cy_syspm.h **** *           - Cy_SysPm_Hibernate to Cy_SysPm_SystemEnterHibernate
 695:Generated_Source\PSoC6\pdl\drivers/peripheral/syspm/cy_syspm.h **** *           - Cy_SysPm_SleepOnExit to Cy_SysPm_CpuSleepOnExit
 696:Generated_Source\PSoC6\pdl\drivers/peripheral/syspm/cy_syspm.h **** *           - Cy_SysPm_EnterLowPowerMode to Cy_SysPm_SystemSetMinRegulatorCurrent
 697:Generated_Source\PSoC6\pdl\drivers/peripheral/syspm/cy_syspm.h **** *           - Cy_SysPm_ExitLowPowerMode to Cy_SysPm_SystemSetNormalRegulatorCurrent
 698:Generated_Source\PSoC6\pdl\drivers/peripheral/syspm/cy_syspm.h **** *           - Cy_SysPm_IsLowPower to Cy_SysPm_IsSystemUlp
 699:Generated_Source\PSoC6\pdl\drivers/peripheral/syspm/cy_syspm.h **** *
 700:Generated_Source\PSoC6\pdl\drivers/peripheral/syspm/cy_syspm.h **** *          For all renamed functions, added BWC macros to simplify migration.
 701:Generated_Source\PSoC6\pdl\drivers/peripheral/syspm/cy_syspm.h **** *     </td>
 702:Generated_Source\PSoC6\pdl\drivers/peripheral/syspm/cy_syspm.h **** *     <td>Device power modes simplification</td>
 703:Generated_Source\PSoC6\pdl\drivers/peripheral/syspm/cy_syspm.h **** *   </tr>
 704:Generated_Source\PSoC6\pdl\drivers/peripheral/syspm/cy_syspm.h **** *   <tr>
 705:Generated_Source\PSoC6\pdl\drivers/peripheral/syspm/cy_syspm.h **** *     <td>
 706:Generated_Source\PSoC6\pdl\drivers/peripheral/syspm/cy_syspm.h **** *         Added the following functions:
 707:Generated_Source\PSoC6\pdl\drivers/peripheral/syspm/cy_syspm.h **** *          - Cy_SysPm_LdoSetMode
 708:Generated_Source\PSoC6\pdl\drivers/peripheral/syspm/cy_syspm.h **** *          - Cy_SysPm_LdoGetMode
 709:Generated_Source\PSoC6\pdl\drivers/peripheral/syspm/cy_syspm.h **** *          - Cy_SysPm_WriteVoltageBitForFlash
 710:Generated_Source\PSoC6\pdl\drivers/peripheral/syspm/cy_syspm.h **** *          - Cy_SysPm_SaveRegisters
 711:Generated_Source\PSoC6\pdl\drivers/peripheral/syspm/cy_syspm.h **** *          - Cy_SysPm_RestoreRegisters
 712:Generated_Source\PSoC6\pdl\drivers/peripheral/syspm/cy_syspm.h **** *          - Cy_SysPm_CpuSendWakeupEvent
 713:Generated_Source\PSoC6\pdl\drivers/peripheral/syspm/cy_syspm.h **** *          - Cy_SysPm_SystemIsMinRegulatorCurrentSet
 714:Generated_Source\PSoC6\pdl\drivers/peripheral/syspm/cy_syspm.h **** *          - Cy_SysPm_SystemEnterLp
 715:Generated_Source\PSoC6\pdl\drivers/peripheral/syspm/cy_syspm.h **** *          - Cy_SysPm_SystemEnterUlp
 716:Generated_Source\PSoC6\pdl\drivers/peripheral/syspm/cy_syspm.h **** *          - Cy_SysPm_IsSystemLp
 717:Generated_Source\PSoC6\pdl\drivers/peripheral/syspm/cy_syspm.h **** *     </td>
 718:Generated_Source\PSoC6\pdl\drivers/peripheral/syspm/cy_syspm.h **** *     <td>Added new functionality to configure device power modes</td>
 719:Generated_Source\PSoC6\pdl\drivers/peripheral/syspm/cy_syspm.h **** *   </tr>
 720:Generated_Source\PSoC6\pdl\drivers/peripheral/syspm/cy_syspm.h **** *   <tr>
 721:Generated_Source\PSoC6\pdl\drivers/peripheral/syspm/cy_syspm.h **** *     <td> 
 722:Generated_Source\PSoC6\pdl\drivers/peripheral/syspm/cy_syspm.h **** *          Callback mechanism changes:
 723:Generated_Source\PSoC6\pdl\drivers/peripheral/syspm/cy_syspm.h **** *          - Removed the limitation for numbers of registered callbacks. Previously it 
ARM GAS  C:\Users\guill\AppData\Local\Temp\ccSz7NWo.s 			page 24


 724:Generated_Source\PSoC6\pdl\drivers/peripheral/syspm/cy_syspm.h **** *            was possible to register up to 32 callbacks. Now the maximum registered 
 725:Generated_Source\PSoC6\pdl\drivers/peripheral/syspm/cy_syspm.h **** *            callbacks is not limited by the SysPm driver.
 726:Generated_Source\PSoC6\pdl\drivers/peripheral/syspm/cy_syspm.h **** *          - Internal enhancement in callback execution flow.
 727:Generated_Source\PSoC6\pdl\drivers/peripheral/syspm/cy_syspm.h **** *          - <b>Changes with BWC issues</b>:
 728:Generated_Source\PSoC6\pdl\drivers/peripheral/syspm/cy_syspm.h **** *            -# Removed the <b>mode</b> element from cy_stc_syspm_callback_params_t
 729:Generated_Source\PSoC6\pdl\drivers/peripheral/syspm/cy_syspm.h **** *               structure. Now this element is a separate parameter in the 
 730:Generated_Source\PSoC6\pdl\drivers/peripheral/syspm/cy_syspm.h **** *               callback function.
 731:Generated_Source\PSoC6\pdl\drivers/peripheral/syspm/cy_syspm.h **** *            -# Changed the interface of the callback function, 
 732:Generated_Source\PSoC6\pdl\drivers/peripheral/syspm/cy_syspm.h **** *               added the cy_en_syspm_callback_mode_t mode parameter:
 733:Generated_Source\PSoC6\pdl\drivers/peripheral/syspm/cy_syspm.h **** *               - was cy_en_syspm_status_t FuncName (cy_stc_syspm_callback_params_t *callbackParams
 734:Generated_Source\PSoC6\pdl\drivers/peripheral/syspm/cy_syspm.h **** *               - now cy_en_syspm_status_t FuncName (cy_stc_syspm_callback_params_t *callbackParams
 735:Generated_Source\PSoC6\pdl\drivers/peripheral/syspm/cy_syspm.h **** *                 cy_en_syspm_callback_mode_t mode);
 736:Generated_Source\PSoC6\pdl\drivers/peripheral/syspm/cy_syspm.h **** *     </td>
 737:Generated_Source\PSoC6\pdl\drivers/peripheral/syspm/cy_syspm.h **** *     <td>Callback mechanism enhancements</td>
 738:Generated_Source\PSoC6\pdl\drivers/peripheral/syspm/cy_syspm.h **** *   </tr>
 739:Generated_Source\PSoC6\pdl\drivers/peripheral/syspm/cy_syspm.h **** *   <tr>
 740:Generated_Source\PSoC6\pdl\drivers/peripheral/syspm/cy_syspm.h **** *     <td>Added register access layer. Use register access macros instead
 741:Generated_Source\PSoC6\pdl\drivers/peripheral/syspm/cy_syspm.h **** *         of direct register access using dereferenced pointers.</td>
 742:Generated_Source\PSoC6\pdl\drivers/peripheral/syspm/cy_syspm.h **** *     <td>Makes register access device-independent, so that the PDL does 
 743:Generated_Source\PSoC6\pdl\drivers/peripheral/syspm/cy_syspm.h **** *         not need to be recompiled for each supported part number.</td>
 744:Generated_Source\PSoC6\pdl\drivers/peripheral/syspm/cy_syspm.h **** *   </tr>
 745:Generated_Source\PSoC6\pdl\drivers/peripheral/syspm/cy_syspm.h **** *   <tr>
 746:Generated_Source\PSoC6\pdl\drivers/peripheral/syspm/cy_syspm.h **** *     <td>Added \ref group_syspm_migration_guide_for_syspm_4_0.</td>
 747:Generated_Source\PSoC6\pdl\drivers/peripheral/syspm/cy_syspm.h **** *     <td>Provided a guidance for migrating to the latest SysPm driver version</td>
 748:Generated_Source\PSoC6\pdl\drivers/peripheral/syspm/cy_syspm.h **** *   </tr>
 749:Generated_Source\PSoC6\pdl\drivers/peripheral/syspm/cy_syspm.h **** *   <tr>
 750:Generated_Source\PSoC6\pdl\drivers/peripheral/syspm/cy_syspm.h **** *     <td rowspan="2">3.0</td>
 751:Generated_Source\PSoC6\pdl\drivers/peripheral/syspm/cy_syspm.h **** *     <td>Removed three functions:
 752:Generated_Source\PSoC6\pdl\drivers/peripheral/syspm/cy_syspm.h **** *          - Cy_SysPm_Cm4IsLowPower
 753:Generated_Source\PSoC6\pdl\drivers/peripheral/syspm/cy_syspm.h **** *          - Cy_SysPm_Cm0IsLowPower
 754:Generated_Source\PSoC6\pdl\drivers/peripheral/syspm/cy_syspm.h **** *          - Cy_SysPm_IoFreeze
 755:Generated_Source\PSoC6\pdl\drivers/peripheral/syspm/cy_syspm.h **** *
 756:Generated_Source\PSoC6\pdl\drivers/peripheral/syspm/cy_syspm.h **** *         Removed the following macros:
 757:Generated_Source\PSoC6\pdl\drivers/peripheral/syspm/cy_syspm.h **** *          - CY_SYSPM_STATUS_CM0_LOWPOWER
 758:Generated_Source\PSoC6\pdl\drivers/peripheral/syspm/cy_syspm.h **** *          - CY_SYSPM_STATUS_CM4_LOWPOWER
 759:Generated_Source\PSoC6\pdl\drivers/peripheral/syspm/cy_syspm.h **** *     </td>
 760:Generated_Source\PSoC6\pdl\drivers/peripheral/syspm/cy_syspm.h **** *     <td>
 761:Generated_Source\PSoC6\pdl\drivers/peripheral/syspm/cy_syspm.h **** *         Removed the two functions Cy_SysPm_Cm4IsLowPower, 
 762:Generated_Source\PSoC6\pdl\drivers/peripheral/syspm/cy_syspm.h **** *         Cy_SysPm_Cm0IsLowPower because low power mode is related to the 
 763:Generated_Source\PSoC6\pdl\drivers/peripheral/syspm/cy_syspm.h **** *         device and not to the CPU.
 764:Generated_Source\PSoC6\pdl\drivers/peripheral/syspm/cy_syspm.h **** *         The function Cy_SysPm_IsSystemUlp must be used instead of these two 
 765:Generated_Source\PSoC6\pdl\drivers/peripheral/syspm/cy_syspm.h **** *         functions.
 766:Generated_Source\PSoC6\pdl\drivers/peripheral/syspm/cy_syspm.h **** *
 767:Generated_Source\PSoC6\pdl\drivers/peripheral/syspm/cy_syspm.h **** *         Removed Cy_SysPm_IoFreeze because the are no known use cases with IOs 
 768:Generated_Source\PSoC6\pdl\drivers/peripheral/syspm/cy_syspm.h **** *         freeze in power modes, except Hibernate. In Hibernate power mode, the
 769:Generated_Source\PSoC6\pdl\drivers/peripheral/syspm/cy_syspm.h **** *         IOs are frozen automatically.
 770:Generated_Source\PSoC6\pdl\drivers/peripheral/syspm/cy_syspm.h **** *     </td>
 771:Generated_Source\PSoC6\pdl\drivers/peripheral/syspm/cy_syspm.h **** *   </tr>
 772:Generated_Source\PSoC6\pdl\drivers/peripheral/syspm/cy_syspm.h **** *   <tr>
 773:Generated_Source\PSoC6\pdl\drivers/peripheral/syspm/cy_syspm.h **** *     <td>
 774:Generated_Source\PSoC6\pdl\drivers/peripheral/syspm/cy_syspm.h **** *         Corrected the syspm callback mechanism behavior. Now callbacks with 
 775:Generated_Source\PSoC6\pdl\drivers/peripheral/syspm/cy_syspm.h **** *         CY_SYSPM_AFTER_TRANSITION mode are executed from the last registered
 776:Generated_Source\PSoC6\pdl\drivers/peripheral/syspm/cy_syspm.h **** *         to the first registered. Previously callbacks with 
 777:Generated_Source\PSoC6\pdl\drivers/peripheral/syspm/cy_syspm.h **** *         CY_SYSPM_AFTER_TRANSITION mode were executed from last executed to 
 778:Generated_Source\PSoC6\pdl\drivers/peripheral/syspm/cy_syspm.h **** *         the first registered.
 779:Generated_Source\PSoC6\pdl\drivers/peripheral/syspm/cy_syspm.h **** *     </td>
 780:Generated_Source\PSoC6\pdl\drivers/peripheral/syspm/cy_syspm.h **** *     <td>Corrected the syspm callbacks execution sequence</td>
ARM GAS  C:\Users\guill\AppData\Local\Temp\ccSz7NWo.s 			page 25


 781:Generated_Source\PSoC6\pdl\drivers/peripheral/syspm/cy_syspm.h **** *   </tr>
 782:Generated_Source\PSoC6\pdl\drivers/peripheral/syspm/cy_syspm.h **** *   <tr>
 783:Generated_Source\PSoC6\pdl\drivers/peripheral/syspm/cy_syspm.h **** *     <td>2.21</td>
 784:Generated_Source\PSoC6\pdl\drivers/peripheral/syspm/cy_syspm.h **** *     <td>Removed saving/restoring the SysClk measurement counters while 
 785:Generated_Source\PSoC6\pdl\drivers/peripheral/syspm/cy_syspm.h **** *         in Deep Sleep routine
 786:Generated_Source\PSoC6\pdl\drivers/peripheral/syspm/cy_syspm.h **** *     </td>
 787:Generated_Source\PSoC6\pdl\drivers/peripheral/syspm/cy_syspm.h **** *     <td>Removed possible corruption of SysClk measurement counters if the 
 788:Generated_Source\PSoC6\pdl\drivers/peripheral/syspm/cy_syspm.h **** *         core wakes up from the Deep Sleep.
 789:Generated_Source\PSoC6\pdl\drivers/peripheral/syspm/cy_syspm.h **** *     </td>
 790:Generated_Source\PSoC6\pdl\drivers/peripheral/syspm/cy_syspm.h **** *   </tr>
 791:Generated_Source\PSoC6\pdl\drivers/peripheral/syspm/cy_syspm.h **** *   <tr>
 792:Generated_Source\PSoC6\pdl\drivers/peripheral/syspm/cy_syspm.h **** *     <td>2.20</td>
 793:Generated_Source\PSoC6\pdl\drivers/peripheral/syspm/cy_syspm.h **** *     <td> \n
 794:Generated_Source\PSoC6\pdl\drivers/peripheral/syspm/cy_syspm.h **** *          * Added support for changing core voltage when the protection context
 795:Generated_Source\PSoC6\pdl\drivers/peripheral/syspm/cy_syspm.h **** *            is other that zero. Such support is available only for devices 
 796:Generated_Source\PSoC6\pdl\drivers/peripheral/syspm/cy_syspm.h **** *            that support modifying registers via syscall.
 797:Generated_Source\PSoC6\pdl\drivers/peripheral/syspm/cy_syspm.h **** *
 798:Generated_Source\PSoC6\pdl\drivers/peripheral/syspm/cy_syspm.h **** *          * For preproduction PSoC 6 devices the changing core voltage
 799:Generated_Source\PSoC6\pdl\drivers/peripheral/syspm/cy_syspm.h **** *            is prohibited when the protection context is other than zero.
 800:Generated_Source\PSoC6\pdl\drivers/peripheral/syspm/cy_syspm.h **** *
 801:Generated_Source\PSoC6\pdl\drivers/peripheral/syspm/cy_syspm.h **** *          * Updated the following functions. They now have a 
 802:Generated_Source\PSoC6\pdl\drivers/peripheral/syspm/cy_syspm.h **** *            \ref cy_en_syspm_status_t return value and use a syscall:
 803:Generated_Source\PSoC6\pdl\drivers/peripheral/syspm/cy_syspm.h **** *            - Cy_SysPm_LdoSetVoltage
 804:Generated_Source\PSoC6\pdl\drivers/peripheral/syspm/cy_syspm.h **** *            - Cy_SysPm_BuckSetVoltage1
 805:Generated_Source\PSoC6\pdl\drivers/peripheral/syspm/cy_syspm.h **** *            - Cy_SysPm_BuckEnable
 806:Generated_Source\PSoC6\pdl\drivers/peripheral/syspm/cy_syspm.h **** *
 807:Generated_Source\PSoC6\pdl\drivers/peripheral/syspm/cy_syspm.h **** *            No backward compatibility issues.
 808:Generated_Source\PSoC6\pdl\drivers/peripheral/syspm/cy_syspm.h **** *
 809:Generated_Source\PSoC6\pdl\drivers/peripheral/syspm/cy_syspm.h **** *          * Added new CY_SYSPM_CANCELED element in 
 810:Generated_Source\PSoC6\pdl\drivers/peripheral/syspm/cy_syspm.h **** *            the \ref cy_en_syspm_status_t.
 811:Generated_Source\PSoC6\pdl\drivers/peripheral/syspm/cy_syspm.h **** *
 812:Generated_Source\PSoC6\pdl\drivers/peripheral/syspm/cy_syspm.h **** *          * Documentation updates.
 813:Generated_Source\PSoC6\pdl\drivers/peripheral/syspm/cy_syspm.h **** *
 814:Generated_Source\PSoC6\pdl\drivers/peripheral/syspm/cy_syspm.h **** *          * Added warning that
 815:Generated_Source\PSoC6\pdl\drivers/peripheral/syspm/cy_syspm.h **** *            Cy_SysPm_PmicDisable(CY_SYSPM_PMIC_POLARITY_LOW) is not 
 816:Generated_Source\PSoC6\pdl\drivers/peripheral/syspm/cy_syspm.h **** *            supported by hardware.
 817:Generated_Source\PSoC6\pdl\drivers/peripheral/syspm/cy_syspm.h **** *     </td>
 818:Generated_Source\PSoC6\pdl\drivers/peripheral/syspm/cy_syspm.h **** *     <td>Added support for changing the core voltage in protection context 
 819:Generated_Source\PSoC6\pdl\drivers/peripheral/syspm/cy_syspm.h **** *         higher than zero (PC > 0).
 820:Generated_Source\PSoC6\pdl\drivers/peripheral/syspm/cy_syspm.h **** *
 821:Generated_Source\PSoC6\pdl\drivers/peripheral/syspm/cy_syspm.h **** *         Documentation update and clarification
 822:Generated_Source\PSoC6\pdl\drivers/peripheral/syspm/cy_syspm.h **** *     </td>
 823:Generated_Source\PSoC6\pdl\drivers/peripheral/syspm/cy_syspm.h **** *   </tr>
 824:Generated_Source\PSoC6\pdl\drivers/peripheral/syspm/cy_syspm.h **** *   <tr>
 825:Generated_Source\PSoC6\pdl\drivers/peripheral/syspm/cy_syspm.h **** *     <td>2.10</td>
 826:Generated_Source\PSoC6\pdl\drivers/peripheral/syspm/cy_syspm.h **** *     <td> \n
 827:Generated_Source\PSoC6\pdl\drivers/peripheral/syspm/cy_syspm.h **** *          * Changed names for all Backup, Buck-related functions, defines, 
 828:Generated_Source\PSoC6\pdl\drivers/peripheral/syspm/cy_syspm.h **** *            and enums
 829:Generated_Source\PSoC6\pdl\drivers/peripheral/syspm/cy_syspm.h **** *          * Changed next power mode function names:
 830:Generated_Source\PSoC6\pdl\drivers/peripheral/syspm/cy_syspm.h **** *            Cy_SysPm_EnterLowPowerMode
 831:Generated_Source\PSoC6\pdl\drivers/peripheral/syspm/cy_syspm.h **** *            Cy_SysPm_ExitLpMode
 832:Generated_Source\PSoC6\pdl\drivers/peripheral/syspm/cy_syspm.h **** *            Cy_SysPm_SetHibWakeupSource
 833:Generated_Source\PSoC6\pdl\drivers/peripheral/syspm/cy_syspm.h **** *            Cy_SysPm_ClearHibWakeupSource
 834:Generated_Source\PSoC6\pdl\drivers/peripheral/syspm/cy_syspm.h **** *            Cy_SysPm_GetIoFreezeStatus
 835:Generated_Source\PSoC6\pdl\drivers/peripheral/syspm/cy_syspm.h **** *          * Changed following enumeration names:
 836:Generated_Source\PSoC6\pdl\drivers/peripheral/syspm/cy_syspm.h **** *            cy_en_syspm_hib_wakeup_source_t
 837:Generated_Source\PSoC6\pdl\drivers/peripheral/syspm/cy_syspm.h **** *            cy_en_syspm_simo_buck_voltage1_t
ARM GAS  C:\Users\guill\AppData\Local\Temp\ccSz7NWo.s 			page 26


 838:Generated_Source\PSoC6\pdl\drivers/peripheral/syspm/cy_syspm.h **** *            cy_en_syspm_simo_buck_voltage2_t
 839:Generated_Source\PSoC6\pdl\drivers/peripheral/syspm/cy_syspm.h **** *          * Updated Power Modes documentation section
 840:Generated_Source\PSoC6\pdl\drivers/peripheral/syspm/cy_syspm.h **** *          * Added Low Power Callback Managements section
 841:Generated_Source\PSoC6\pdl\drivers/peripheral/syspm/cy_syspm.h **** *          * Documentation edits 
 842:Generated_Source\PSoC6\pdl\drivers/peripheral/syspm/cy_syspm.h **** *     </td>
 843:Generated_Source\PSoC6\pdl\drivers/peripheral/syspm/cy_syspm.h **** *     <td> \n
 844:Generated_Source\PSoC6\pdl\drivers/peripheral/syspm/cy_syspm.h **** *          * Improvements made based on usability feedback
 845:Generated_Source\PSoC6\pdl\drivers/peripheral/syspm/cy_syspm.h **** *          * Documentation update and clarification
 846:Generated_Source\PSoC6\pdl\drivers/peripheral/syspm/cy_syspm.h **** *     </td>
 847:Generated_Source\PSoC6\pdl\drivers/peripheral/syspm/cy_syspm.h **** *   </tr>
 848:Generated_Source\PSoC6\pdl\drivers/peripheral/syspm/cy_syspm.h **** *   <tr>
 849:Generated_Source\PSoC6\pdl\drivers/peripheral/syspm/cy_syspm.h **** *     <td>2.0</td>
 850:Generated_Source\PSoC6\pdl\drivers/peripheral/syspm/cy_syspm.h **** *     <td>Enhancement and defect fixes:
 851:Generated_Source\PSoC6\pdl\drivers/peripheral/syspm/cy_syspm.h **** *         * Added input parameter(s) validation to all public functions
 852:Generated_Source\PSoC6\pdl\drivers/peripheral/syspm/cy_syspm.h **** *         * Removed "_SysPm_" prefixes from the internal functions names
 853:Generated_Source\PSoC6\pdl\drivers/peripheral/syspm/cy_syspm.h **** *         * Changed the type of elements with limited set of values, from 
 854:Generated_Source\PSoC6\pdl\drivers/peripheral/syspm/cy_syspm.h **** *           uint32_t to enumeration
 855:Generated_Source\PSoC6\pdl\drivers/peripheral/syspm/cy_syspm.h **** *         * Enhanced syspm callback mechanism
 856:Generated_Source\PSoC6\pdl\drivers/peripheral/syspm/cy_syspm.h **** *         * Added functions to control:
 857:Generated_Source\PSoC6\pdl\drivers/peripheral/syspm/cy_syspm.h **** *           * Power supply for the Vddbackup
 858:Generated_Source\PSoC6\pdl\drivers/peripheral/syspm/cy_syspm.h **** *           * Supercapacitor charge
 859:Generated_Source\PSoC6\pdl\drivers/peripheral/syspm/cy_syspm.h **** *           * Vddbackup measurement by ADC
 860:Generated_Source\PSoC6\pdl\drivers/peripheral/syspm/cy_syspm.h **** *     </td>
 861:Generated_Source\PSoC6\pdl\drivers/peripheral/syspm/cy_syspm.h **** *     <td></td>
 862:Generated_Source\PSoC6\pdl\drivers/peripheral/syspm/cy_syspm.h **** *   </tr>
 863:Generated_Source\PSoC6\pdl\drivers/peripheral/syspm/cy_syspm.h **** *   <tr>
 864:Generated_Source\PSoC6\pdl\drivers/peripheral/syspm/cy_syspm.h **** *     <td>1.0</td>
 865:Generated_Source\PSoC6\pdl\drivers/peripheral/syspm/cy_syspm.h **** *     <td>Initial version</td>
 866:Generated_Source\PSoC6\pdl\drivers/peripheral/syspm/cy_syspm.h **** *     <td></td>
 867:Generated_Source\PSoC6\pdl\drivers/peripheral/syspm/cy_syspm.h **** *   </tr>
 868:Generated_Source\PSoC6\pdl\drivers/peripheral/syspm/cy_syspm.h **** * </table>
 869:Generated_Source\PSoC6\pdl\drivers/peripheral/syspm/cy_syspm.h **** *
 870:Generated_Source\PSoC6\pdl\drivers/peripheral/syspm/cy_syspm.h **** * \subsection group_syspm_migration_guide_for_syspm_4_0 Migration Guide: Moving to SysPm v4.0
 871:Generated_Source\PSoC6\pdl\drivers/peripheral/syspm/cy_syspm.h **** *
 872:Generated_Source\PSoC6\pdl\drivers/peripheral/syspm/cy_syspm.h **** * This section provides a guideline to migrate from v2.21 to v4.0 of the SysPm 
 873:Generated_Source\PSoC6\pdl\drivers/peripheral/syspm/cy_syspm.h **** * driver.
 874:Generated_Source\PSoC6\pdl\drivers/peripheral/syspm/cy_syspm.h **** *
 875:Generated_Source\PSoC6\pdl\drivers/peripheral/syspm/cy_syspm.h **** * \subsubsection group_syspm_migration_into_4_0_intro Introduction
 876:Generated_Source\PSoC6\pdl\drivers/peripheral/syspm/cy_syspm.h **** * 
 877:Generated_Source\PSoC6\pdl\drivers/peripheral/syspm/cy_syspm.h **** * If your application currently uses SysPm v2.21 APIs, you must
 878:Generated_Source\PSoC6\pdl\drivers/peripheral/syspm/cy_syspm.h **** * migrate to SysPm v4.0 so that your application continues to operate.
 879:Generated_Source\PSoC6\pdl\drivers/peripheral/syspm/cy_syspm.h **** * 
 880:Generated_Source\PSoC6\pdl\drivers/peripheral/syspm/cy_syspm.h **** * Take a few minutes to review the following information:
 881:Generated_Source\PSoC6\pdl\drivers/peripheral/syspm/cy_syspm.h **** * - The APIs related to PSoC 6 \ref group_syspm_power_modes are changed. Old 
 882:Generated_Source\PSoC6\pdl\drivers/peripheral/syspm/cy_syspm.h **** *   power modes APIs function names are now deprecated and should not be used 
 883:Generated_Source\PSoC6\pdl\drivers/peripheral/syspm/cy_syspm.h **** *   in new applications.
 884:Generated_Source\PSoC6\pdl\drivers/peripheral/syspm/cy_syspm.h **** * - The \ref group_syspm_cb mechanism is changed. The mode element is removed 
 885:Generated_Source\PSoC6\pdl\drivers/peripheral/syspm/cy_syspm.h **** *   from cy_stc_syspm_callback_params_t structure. Now this element is a 
 886:Generated_Source\PSoC6\pdl\drivers/peripheral/syspm/cy_syspm.h **** *   separate parameter in the callback function.
 887:Generated_Source\PSoC6\pdl\drivers/peripheral/syspm/cy_syspm.h **** *
 888:Generated_Source\PSoC6\pdl\drivers/peripheral/syspm/cy_syspm.h **** * \subsubsection group_syspm_migration_into_4_0_names Migrating to new power modes APIs.
 889:Generated_Source\PSoC6\pdl\drivers/peripheral/syspm/cy_syspm.h **** * The table below shows the new APIs names that should be used in the 
 890:Generated_Source\PSoC6\pdl\drivers/peripheral/syspm/cy_syspm.h **** * application instead of old names:
 891:Generated_Source\PSoC6\pdl\drivers/peripheral/syspm/cy_syspm.h **** *
 892:Generated_Source\PSoC6\pdl\drivers/peripheral/syspm/cy_syspm.h **** * <table class="doxtable">
 893:Generated_Source\PSoC6\pdl\drivers/peripheral/syspm/cy_syspm.h **** *   <tr><th>SysPm v2.21 API name</th><th>SysPm v4.0 API name</th><th>Comment</th></tr>
 894:Generated_Source\PSoC6\pdl\drivers/peripheral/syspm/cy_syspm.h **** *   <tr>
ARM GAS  C:\Users\guill\AppData\Local\Temp\ccSz7NWo.s 			page 27


 895:Generated_Source\PSoC6\pdl\drivers/peripheral/syspm/cy_syspm.h **** *     <td>Cy_SysPm_Sleep</td>
 896:Generated_Source\PSoC6\pdl\drivers/peripheral/syspm/cy_syspm.h **** *     <td>\ref Cy_SysPm_CpuEnterSleep</td>
 897:Generated_Source\PSoC6\pdl\drivers/peripheral/syspm/cy_syspm.h **** *     <td>Renamed, no functional changes</td>
 898:Generated_Source\PSoC6\pdl\drivers/peripheral/syspm/cy_syspm.h **** *   </tr>
 899:Generated_Source\PSoC6\pdl\drivers/peripheral/syspm/cy_syspm.h **** *   <tr>
 900:Generated_Source\PSoC6\pdl\drivers/peripheral/syspm/cy_syspm.h **** *     <td>Cy_SysPm_DeepSleep</td>
 901:Generated_Source\PSoC6\pdl\drivers/peripheral/syspm/cy_syspm.h **** *     <td>\ref Cy_SysPm_CpuEnterDeepSleep</td>
 902:Generated_Source\PSoC6\pdl\drivers/peripheral/syspm/cy_syspm.h **** *     <td>Renamed, no functional changes</td>
 903:Generated_Source\PSoC6\pdl\drivers/peripheral/syspm/cy_syspm.h **** *   </tr>
 904:Generated_Source\PSoC6\pdl\drivers/peripheral/syspm/cy_syspm.h **** *   <tr>
 905:Generated_Source\PSoC6\pdl\drivers/peripheral/syspm/cy_syspm.h **** *     <td>Cy_SysPm_Hibernate</td>
 906:Generated_Source\PSoC6\pdl\drivers/peripheral/syspm/cy_syspm.h **** *     <td>\ref Cy_SysPm_SystemEnterHibernate</td>
 907:Generated_Source\PSoC6\pdl\drivers/peripheral/syspm/cy_syspm.h **** *     <td>Renamed, no functional changes</td>
 908:Generated_Source\PSoC6\pdl\drivers/peripheral/syspm/cy_syspm.h **** *   </tr>
 909:Generated_Source\PSoC6\pdl\drivers/peripheral/syspm/cy_syspm.h **** *   <tr>
 910:Generated_Source\PSoC6\pdl\drivers/peripheral/syspm/cy_syspm.h **** *     <td>Cy_SysPm_SleepOnExit</td>
 911:Generated_Source\PSoC6\pdl\drivers/peripheral/syspm/cy_syspm.h **** *     <td>\ref Cy_SysPm_CpuSleepOnExit</td>
 912:Generated_Source\PSoC6\pdl\drivers/peripheral/syspm/cy_syspm.h **** *     <td>Renamed, no functional changes</td>
 913:Generated_Source\PSoC6\pdl\drivers/peripheral/syspm/cy_syspm.h **** *   </tr>
 914:Generated_Source\PSoC6\pdl\drivers/peripheral/syspm/cy_syspm.h **** *   <tr>
 915:Generated_Source\PSoC6\pdl\drivers/peripheral/syspm/cy_syspm.h **** *     <td>Cy_SysPm_IsLowPower</td>
 916:Generated_Source\PSoC6\pdl\drivers/peripheral/syspm/cy_syspm.h **** *     <td>\ref Cy_SysPm_IsSystemUlp</td>
 917:Generated_Source\PSoC6\pdl\drivers/peripheral/syspm/cy_syspm.h **** *     <td>Now this function checks whether the device is in ULP mode</td>
 918:Generated_Source\PSoC6\pdl\drivers/peripheral/syspm/cy_syspm.h **** *   </tr>
 919:Generated_Source\PSoC6\pdl\drivers/peripheral/syspm/cy_syspm.h **** *   <tr>
 920:Generated_Source\PSoC6\pdl\drivers/peripheral/syspm/cy_syspm.h **** *     <td>Cy_SysPm_EnterLowPowerMode</td>
 921:Generated_Source\PSoC6\pdl\drivers/peripheral/syspm/cy_syspm.h **** *     <td>\ref Cy_SysPm_SystemSetMinRegulatorCurrent</td>
 922:Generated_Source\PSoC6\pdl\drivers/peripheral/syspm/cy_syspm.h **** *     <td>The low power active mode does not exist anymore. 
 923:Generated_Source\PSoC6\pdl\drivers/peripheral/syspm/cy_syspm.h **** *         The \ref group_syspm_system_reg_curr_mode is implemented instead </td>
 924:Generated_Source\PSoC6\pdl\drivers/peripheral/syspm/cy_syspm.h **** *     </tr>
 925:Generated_Source\PSoC6\pdl\drivers/peripheral/syspm/cy_syspm.h **** *   <tr>
 926:Generated_Source\PSoC6\pdl\drivers/peripheral/syspm/cy_syspm.h **** *     <td>Cy_SysPm_ExitLowPowerMode</td>
 927:Generated_Source\PSoC6\pdl\drivers/peripheral/syspm/cy_syspm.h **** *     <td>\ref Cy_SysPm_SystemSetNormalRegulatorCurrent</td>
 928:Generated_Source\PSoC6\pdl\drivers/peripheral/syspm/cy_syspm.h **** *     <td>The low power active mode does not exist anymore. 
 929:Generated_Source\PSoC6\pdl\drivers/peripheral/syspm/cy_syspm.h **** *         The \ref group_syspm_system_reg_curr_mode is implemented instead</td>
 930:Generated_Source\PSoC6\pdl\drivers/peripheral/syspm/cy_syspm.h **** *   </tr>
 931:Generated_Source\PSoC6\pdl\drivers/peripheral/syspm/cy_syspm.h **** *   <tr>
 932:Generated_Source\PSoC6\pdl\drivers/peripheral/syspm/cy_syspm.h **** *     <td>Cy_SysPm_Cm4IsLowPower</td>
 933:Generated_Source\PSoC6\pdl\drivers/peripheral/syspm/cy_syspm.h **** *     <td>Removed</td>
 934:Generated_Source\PSoC6\pdl\drivers/peripheral/syspm/cy_syspm.h **** *     <td>This function is removed because low power mode is related to the system
 935:Generated_Source\PSoC6\pdl\drivers/peripheral/syspm/cy_syspm.h **** *         and not to the CPU</td>
 936:Generated_Source\PSoC6\pdl\drivers/peripheral/syspm/cy_syspm.h **** *   </tr>
 937:Generated_Source\PSoC6\pdl\drivers/peripheral/syspm/cy_syspm.h **** *   <tr>
 938:Generated_Source\PSoC6\pdl\drivers/peripheral/syspm/cy_syspm.h **** *     <td>Cy_SysPm_Cm0IsLowPower</td>
 939:Generated_Source\PSoC6\pdl\drivers/peripheral/syspm/cy_syspm.h **** *     <td>Removed</td>
 940:Generated_Source\PSoC6\pdl\drivers/peripheral/syspm/cy_syspm.h **** *     <td>This function is removed because low power mode is related to the system
 941:Generated_Source\PSoC6\pdl\drivers/peripheral/syspm/cy_syspm.h **** *         and not to the CPU</td>
 942:Generated_Source\PSoC6\pdl\drivers/peripheral/syspm/cy_syspm.h **** *   </tr>
 943:Generated_Source\PSoC6\pdl\drivers/peripheral/syspm/cy_syspm.h **** *   <tr>
 944:Generated_Source\PSoC6\pdl\drivers/peripheral/syspm/cy_syspm.h **** *     <td>Cy_SysPm_IoFreeze</td>
 945:Generated_Source\PSoC6\pdl\drivers/peripheral/syspm/cy_syspm.h **** *     <td>Removed</td>
 946:Generated_Source\PSoC6\pdl\drivers/peripheral/syspm/cy_syspm.h **** *     <td>This function is removed because there are no known use cases to
 947:Generated_Source\PSoC6\pdl\drivers/peripheral/syspm/cy_syspm.h **** *         freeze in power modes other than Hibernate</td>
 948:Generated_Source\PSoC6\pdl\drivers/peripheral/syspm/cy_syspm.h **** *   </tr>
 949:Generated_Source\PSoC6\pdl\drivers/peripheral/syspm/cy_syspm.h **** * </table>
 950:Generated_Source\PSoC6\pdl\drivers/peripheral/syspm/cy_syspm.h **** *
 951:Generated_Source\PSoC6\pdl\drivers/peripheral/syspm/cy_syspm.h **** * In addition to renamed power modes APIs, the following defines and enum 
ARM GAS  C:\Users\guill\AppData\Local\Temp\ccSz7NWo.s 			page 28


 952:Generated_Source\PSoC6\pdl\drivers/peripheral/syspm/cy_syspm.h **** * elements names are changed:
 953:Generated_Source\PSoC6\pdl\drivers/peripheral/syspm/cy_syspm.h **** * <table class="doxtable">
 954:Generated_Source\PSoC6\pdl\drivers/peripheral/syspm/cy_syspm.h **** *   <tr><th>SysPm v2.21 defines</th><th>SysPm v4.0 defines</th><th>Comment</th></tr>
 955:Generated_Source\PSoC6\pdl\drivers/peripheral/syspm/cy_syspm.h **** *   <tr>
 956:Generated_Source\PSoC6\pdl\drivers/peripheral/syspm/cy_syspm.h **** *     <td>CY_SYSPM_ENTER_LP_MODE</td>
 957:Generated_Source\PSoC6\pdl\drivers/peripheral/syspm/cy_syspm.h **** *     <td>CY_SYSPM_ULP</td>
 958:Generated_Source\PSoC6\pdl\drivers/peripheral/syspm/cy_syspm.h **** *     <td>The \ref cy_en_syspm_callback_type_t element is renamed to align 
 959:Generated_Source\PSoC6\pdl\drivers/peripheral/syspm/cy_syspm.h **** *         callback types names to new power modes names</td>
 960:Generated_Source\PSoC6\pdl\drivers/peripheral/syspm/cy_syspm.h **** *   </tr>
 961:Generated_Source\PSoC6\pdl\drivers/peripheral/syspm/cy_syspm.h **** *   <tr>
 962:Generated_Source\PSoC6\pdl\drivers/peripheral/syspm/cy_syspm.h **** *     <td>CY_SYSPM_EXIT_LP_MODE</td>
 963:Generated_Source\PSoC6\pdl\drivers/peripheral/syspm/cy_syspm.h **** *     <td>CY_SYSPM_LP</td>
 964:Generated_Source\PSoC6\pdl\drivers/peripheral/syspm/cy_syspm.h **** *     <td>The \ref cy_en_syspm_callback_type_t element is renamed to align 
 965:Generated_Source\PSoC6\pdl\drivers/peripheral/syspm/cy_syspm.h **** *         callback types names to new power modes names</td>
 966:Generated_Source\PSoC6\pdl\drivers/peripheral/syspm/cy_syspm.h **** *   <tr>
 967:Generated_Source\PSoC6\pdl\drivers/peripheral/syspm/cy_syspm.h **** *     <td>CY_SYSPM_STATUS_SYSTEM_LOWPOWER</td>
 968:Generated_Source\PSoC6\pdl\drivers/peripheral/syspm/cy_syspm.h **** *     <td>CY_SYSPM_STATUS_SYSTEM_ULP</td>
 969:Generated_Source\PSoC6\pdl\drivers/peripheral/syspm/cy_syspm.h **** *     <td>Status define, renamed to align new power modes names 
 970:Generated_Source\PSoC6\pdl\drivers/peripheral/syspm/cy_syspm.h **** *         and abbreviations</td>
 971:Generated_Source\PSoC6\pdl\drivers/peripheral/syspm/cy_syspm.h **** *   </tr>
 972:Generated_Source\PSoC6\pdl\drivers/peripheral/syspm/cy_syspm.h **** * </table>
 973:Generated_Source\PSoC6\pdl\drivers/peripheral/syspm/cy_syspm.h **** *
 974:Generated_Source\PSoC6\pdl\drivers/peripheral/syspm/cy_syspm.h **** * \subsubsection group_syspm_migration_into_4_0_callbacks Migrating to SysPm v4.0 callbacks
 975:Generated_Source\PSoC6\pdl\drivers/peripheral/syspm/cy_syspm.h **** *
 976:Generated_Source\PSoC6\pdl\drivers/peripheral/syspm/cy_syspm.h **** * Review this section if your application is using the syspm callback mechanism.
 977:Generated_Source\PSoC6\pdl\drivers/peripheral/syspm/cy_syspm.h **** *
 978:Generated_Source\PSoC6\pdl\drivers/peripheral/syspm/cy_syspm.h **** * To migrate to SysPm v4.0 callbacks you need to perform the following steps:
 979:Generated_Source\PSoC6\pdl\drivers/peripheral/syspm/cy_syspm.h **** * -# Remove mode element from all \ref cy_stc_syspm_callback_params_t 
 980:Generated_Source\PSoC6\pdl\drivers/peripheral/syspm/cy_syspm.h **** *    structures defined in your application. In SysPm v2.21 this structure is:
 981:Generated_Source\PSoC6\pdl\drivers/peripheral/syspm/cy_syspm.h **** *    \code{.c}
 982:Generated_Source\PSoC6\pdl\drivers/peripheral/syspm/cy_syspm.h **** *    cy_stc_syspm_callback_params_t deepSleepParam1 = 
 983:Generated_Source\PSoC6\pdl\drivers/peripheral/syspm/cy_syspm.h **** *    {
 984:Generated_Source\PSoC6\pdl\drivers/peripheral/syspm/cy_syspm.h **** *        CY_SYSPM_CHECK_READY, 
 985:Generated_Source\PSoC6\pdl\drivers/peripheral/syspm/cy_syspm.h **** *        &HW1_address,
 986:Generated_Source\PSoC6\pdl\drivers/peripheral/syspm/cy_syspm.h **** *        &context
 987:Generated_Source\PSoC6\pdl\drivers/peripheral/syspm/cy_syspm.h **** *    };
 988:Generated_Source\PSoC6\pdl\drivers/peripheral/syspm/cy_syspm.h **** *    \endcode
 989:Generated_Source\PSoC6\pdl\drivers/peripheral/syspm/cy_syspm.h **** *
 990:Generated_Source\PSoC6\pdl\drivers/peripheral/syspm/cy_syspm.h **** *    In SysPm v4.0 this structure should be:
 991:Generated_Source\PSoC6\pdl\drivers/peripheral/syspm/cy_syspm.h **** *    \code{.c}
 992:Generated_Source\PSoC6\pdl\drivers/peripheral/syspm/cy_syspm.h **** *    cy_stc_syspm_callback_params_t deepSleepParam1 = 
 993:Generated_Source\PSoC6\pdl\drivers/peripheral/syspm/cy_syspm.h **** *    {
 994:Generated_Source\PSoC6\pdl\drivers/peripheral/syspm/cy_syspm.h **** *        &HW1_address,
 995:Generated_Source\PSoC6\pdl\drivers/peripheral/syspm/cy_syspm.h **** *        &context
 996:Generated_Source\PSoC6\pdl\drivers/peripheral/syspm/cy_syspm.h **** *    };
 997:Generated_Source\PSoC6\pdl\drivers/peripheral/syspm/cy_syspm.h **** *    \endcode
 998:Generated_Source\PSoC6\pdl\drivers/peripheral/syspm/cy_syspm.h **** * -# Update all defined syspm callback function prototypes to have two 
 999:Generated_Source\PSoC6\pdl\drivers/peripheral/syspm/cy_syspm.h **** *    parameters instead of one. The SysPm v2.21 callback function prototype is:
1000:Generated_Source\PSoC6\pdl\drivers/peripheral/syspm/cy_syspm.h **** *    \code{.c}
1001:Generated_Source\PSoC6\pdl\drivers/peripheral/syspm/cy_syspm.h **** *    cy_en_syspm_status_t Func1 (cy_stc_syspm_callback_params_t *callbackParams);
1002:Generated_Source\PSoC6\pdl\drivers/peripheral/syspm/cy_syspm.h **** *    \endcode
1003:Generated_Source\PSoC6\pdl\drivers/peripheral/syspm/cy_syspm.h **** *    The SysPm v4.0 callback function prototype should be:
1004:Generated_Source\PSoC6\pdl\drivers/peripheral/syspm/cy_syspm.h **** *    \code{.c}
1005:Generated_Source\PSoC6\pdl\drivers/peripheral/syspm/cy_syspm.h **** *    cy_en_syspm_status_t Func1 (cy_stc_syspm_callback_params_t *callbackParams, cy_en_syspm_callba
1006:Generated_Source\PSoC6\pdl\drivers/peripheral/syspm/cy_syspm.h **** *    \endcode
1007:Generated_Source\PSoC6\pdl\drivers/peripheral/syspm/cy_syspm.h **** * -# Change the syspm callback function implementation to not use a mode
1008:Generated_Source\PSoC6\pdl\drivers/peripheral/syspm/cy_syspm.h **** *    value as an element of the callbackParams structure, but, as separate 
ARM GAS  C:\Users\guill\AppData\Local\Temp\ccSz7NWo.s 			page 29


1009:Generated_Source\PSoC6\pdl\drivers/peripheral/syspm/cy_syspm.h **** *    function parameter:
1010:Generated_Source\PSoC6\pdl\drivers/peripheral/syspm/cy_syspm.h **** *    SysPm v2.21 callback function implementation:
1011:Generated_Source\PSoC6\pdl\drivers/peripheral/syspm/cy_syspm.h **** *    \code{.c}
1012:Generated_Source\PSoC6\pdl\drivers/peripheral/syspm/cy_syspm.h **** *    cy_en_syspm_status_t Func1(cy_stc_syspm_callback_params_t *callbackParams)
1013:Generated_Source\PSoC6\pdl\drivers/peripheral/syspm/cy_syspm.h **** *    {
1014:Generated_Source\PSoC6\pdl\drivers/peripheral/syspm/cy_syspm.h **** *        cy_en_syspm_status_t retVal = CY_SYSPM_FAIL;
1015:Generated_Source\PSoC6\pdl\drivers/peripheral/syspm/cy_syspm.h **** *
1016:Generated_Source\PSoC6\pdl\drivers/peripheral/syspm/cy_syspm.h **** *        switch(callbackParams->mode)
1017:Generated_Source\PSoC6\pdl\drivers/peripheral/syspm/cy_syspm.h **** *        {
1018:Generated_Source\PSoC6\pdl\drivers/peripheral/syspm/cy_syspm.h **** *            case CY_SYSPM_CHECK_READY:
1019:Generated_Source\PSoC6\pdl\drivers/peripheral/syspm/cy_syspm.h **** *            ...
1020:Generated_Source\PSoC6\pdl\drivers/peripheral/syspm/cy_syspm.h **** *        }
1021:Generated_Source\PSoC6\pdl\drivers/peripheral/syspm/cy_syspm.h **** *        
1022:Generated_Source\PSoC6\pdl\drivers/peripheral/syspm/cy_syspm.h **** *        return (retVal);
1023:Generated_Source\PSoC6\pdl\drivers/peripheral/syspm/cy_syspm.h **** *    }
1024:Generated_Source\PSoC6\pdl\drivers/peripheral/syspm/cy_syspm.h **** *    \endcode
1025:Generated_Source\PSoC6\pdl\drivers/peripheral/syspm/cy_syspm.h **** *    SysPm v4.0 callback function implementation:
1026:Generated_Source\PSoC6\pdl\drivers/peripheral/syspm/cy_syspm.h **** *    \code{.c}
1027:Generated_Source\PSoC6\pdl\drivers/peripheral/syspm/cy_syspm.h **** *    cy_en_syspm_status_t Func1(cy_stc_syspm_callback_params_t *callbackParams, cy_en_syspm_callbac
1028:Generated_Source\PSoC6\pdl\drivers/peripheral/syspm/cy_syspm.h **** *    {
1029:Generated_Source\PSoC6\pdl\drivers/peripheral/syspm/cy_syspm.h **** *        cy_en_syspm_status_t retVal = CY_SYSPM_FAIL;
1030:Generated_Source\PSoC6\pdl\drivers/peripheral/syspm/cy_syspm.h **** *
1031:Generated_Source\PSoC6\pdl\drivers/peripheral/syspm/cy_syspm.h **** *        switch(mode)
1032:Generated_Source\PSoC6\pdl\drivers/peripheral/syspm/cy_syspm.h **** *        {
1033:Generated_Source\PSoC6\pdl\drivers/peripheral/syspm/cy_syspm.h **** *            case CY_SYSPM_CHECK_READY:
1034:Generated_Source\PSoC6\pdl\drivers/peripheral/syspm/cy_syspm.h **** *            ...
1035:Generated_Source\PSoC6\pdl\drivers/peripheral/syspm/cy_syspm.h **** *        }
1036:Generated_Source\PSoC6\pdl\drivers/peripheral/syspm/cy_syspm.h **** *        
1037:Generated_Source\PSoC6\pdl\drivers/peripheral/syspm/cy_syspm.h **** *        return (retVal);
1038:Generated_Source\PSoC6\pdl\drivers/peripheral/syspm/cy_syspm.h **** *    }
1039:Generated_Source\PSoC6\pdl\drivers/peripheral/syspm/cy_syspm.h **** *    \endcode
1040:Generated_Source\PSoC6\pdl\drivers/peripheral/syspm/cy_syspm.h **** * After the changes above are done, you have successfully migrated to SysPm v4.0.
1041:Generated_Source\PSoC6\pdl\drivers/peripheral/syspm/cy_syspm.h **** *
1042:Generated_Source\PSoC6\pdl\drivers/peripheral/syspm/cy_syspm.h **** * Do not forget to review newly added functionality for SysPm v4.0 in the 
1043:Generated_Source\PSoC6\pdl\drivers/peripheral/syspm/cy_syspm.h **** * \ref group_syspm_changelog.
1044:Generated_Source\PSoC6\pdl\drivers/peripheral/syspm/cy_syspm.h **** 
1045:Generated_Source\PSoC6\pdl\drivers/peripheral/syspm/cy_syspm.h **** * \defgroup group_syspm_macros Macros
1046:Generated_Source\PSoC6\pdl\drivers/peripheral/syspm/cy_syspm.h **** * \defgroup group_syspm_functions Functions
1047:Generated_Source\PSoC6\pdl\drivers/peripheral/syspm/cy_syspm.h **** * \{
1048:Generated_Source\PSoC6\pdl\drivers/peripheral/syspm/cy_syspm.h ****     \defgroup group_syspm_functions_general        General
1049:Generated_Source\PSoC6\pdl\drivers/peripheral/syspm/cy_syspm.h **** *   \defgroup group_syspm_functions_power          Power Modes
1050:Generated_Source\PSoC6\pdl\drivers/peripheral/syspm/cy_syspm.h **** *   \defgroup group_syspm_functions_power_status   Power Status
1051:Generated_Source\PSoC6\pdl\drivers/peripheral/syspm/cy_syspm.h **** *   \defgroup group_syspm_functions_iofreeze       I/Os Freeze
1052:Generated_Source\PSoC6\pdl\drivers/peripheral/syspm/cy_syspm.h **** *   \defgroup group_syspm_functions_core_regulators    Core Voltage Regulation 
1053:Generated_Source\PSoC6\pdl\drivers/peripheral/syspm/cy_syspm.h **** *   \{
1054:Generated_Source\PSoC6\pdl\drivers/peripheral/syspm/cy_syspm.h **** *     \defgroup group_syspm_functions_ldo      LDO
1055:Generated_Source\PSoC6\pdl\drivers/peripheral/syspm/cy_syspm.h **** *     \defgroup group_syspm_functions_buck     Buck
1056:Generated_Source\PSoC6\pdl\drivers/peripheral/syspm/cy_syspm.h **** *   \}
1057:Generated_Source\PSoC6\pdl\drivers/peripheral/syspm/cy_syspm.h **** *   \defgroup group_syspm_functions_pmic       PMIC
1058:Generated_Source\PSoC6\pdl\drivers/peripheral/syspm/cy_syspm.h **** *   \defgroup group_syspm_functions_backup     Backup Domain
1059:Generated_Source\PSoC6\pdl\drivers/peripheral/syspm/cy_syspm.h **** *   \defgroup group_syspm_functions_callback   Low Power Callbacks
1060:Generated_Source\PSoC6\pdl\drivers/peripheral/syspm/cy_syspm.h **** * \}
1061:Generated_Source\PSoC6\pdl\drivers/peripheral/syspm/cy_syspm.h **** * \defgroup group_syspm_data_structures Data Structures
1062:Generated_Source\PSoC6\pdl\drivers/peripheral/syspm/cy_syspm.h **** * \defgroup group_syspm_data_enumerates Enumerated Types
1063:Generated_Source\PSoC6\pdl\drivers/peripheral/syspm/cy_syspm.h **** */
1064:Generated_Source\PSoC6\pdl\drivers/peripheral/syspm/cy_syspm.h **** 
1065:Generated_Source\PSoC6\pdl\drivers/peripheral/syspm/cy_syspm.h **** #if !defined (CY_SYSPM_H)
ARM GAS  C:\Users\guill\AppData\Local\Temp\ccSz7NWo.s 			page 30


1066:Generated_Source\PSoC6\pdl\drivers/peripheral/syspm/cy_syspm.h **** #define CY_SYSPM_H
1067:Generated_Source\PSoC6\pdl\drivers/peripheral/syspm/cy_syspm.h **** 
1068:Generated_Source\PSoC6\pdl\drivers/peripheral/syspm/cy_syspm.h **** #include <stdbool.h>
1069:Generated_Source\PSoC6\pdl\drivers/peripheral/syspm/cy_syspm.h **** #include <stddef.h>
1070:Generated_Source\PSoC6\pdl\drivers/peripheral/syspm/cy_syspm.h **** 
1071:Generated_Source\PSoC6\pdl\drivers/peripheral/syspm/cy_syspm.h **** #include "cy_device.h"
1072:Generated_Source\PSoC6\pdl\drivers/peripheral/syspm/cy_syspm.h **** #include "cy_device_headers.h"
1073:Generated_Source\PSoC6\pdl\drivers/peripheral/syspm/cy_syspm.h **** #include "cy_syslib.h"
1074:Generated_Source\PSoC6\pdl\drivers/peripheral/syspm/cy_syspm.h **** 
1075:Generated_Source\PSoC6\pdl\drivers/peripheral/syspm/cy_syspm.h **** #ifdef __cplusplus
1076:Generated_Source\PSoC6\pdl\drivers/peripheral/syspm/cy_syspm.h **** extern "C" {
1077:Generated_Source\PSoC6\pdl\drivers/peripheral/syspm/cy_syspm.h **** #endif
1078:Generated_Source\PSoC6\pdl\drivers/peripheral/syspm/cy_syspm.h **** 
1079:Generated_Source\PSoC6\pdl\drivers/peripheral/syspm/cy_syspm.h **** /*******************************************************************************
1080:Generated_Source\PSoC6\pdl\drivers/peripheral/syspm/cy_syspm.h **** *       Register Constants
1081:Generated_Source\PSoC6\pdl\drivers/peripheral/syspm/cy_syspm.h **** *******************************************************************************/
1082:Generated_Source\PSoC6\pdl\drivers/peripheral/syspm/cy_syspm.h **** 
1083:Generated_Source\PSoC6\pdl\drivers/peripheral/syspm/cy_syspm.h **** /**
1084:Generated_Source\PSoC6\pdl\drivers/peripheral/syspm/cy_syspm.h **** * \addtogroup group_syspm_macros
1085:Generated_Source\PSoC6\pdl\drivers/peripheral/syspm/cy_syspm.h **** * \{
1086:Generated_Source\PSoC6\pdl\drivers/peripheral/syspm/cy_syspm.h **** */
1087:Generated_Source\PSoC6\pdl\drivers/peripheral/syspm/cy_syspm.h **** 
1088:Generated_Source\PSoC6\pdl\drivers/peripheral/syspm/cy_syspm.h **** /** Driver major version */
1089:Generated_Source\PSoC6\pdl\drivers/peripheral/syspm/cy_syspm.h **** #define CY_SYSPM_DRV_VERSION_MAJOR       4
1090:Generated_Source\PSoC6\pdl\drivers/peripheral/syspm/cy_syspm.h **** 
1091:Generated_Source\PSoC6\pdl\drivers/peripheral/syspm/cy_syspm.h **** /** Driver minor version */
1092:Generated_Source\PSoC6\pdl\drivers/peripheral/syspm/cy_syspm.h **** #define CY_SYSPM_DRV_VERSION_MINOR       0
1093:Generated_Source\PSoC6\pdl\drivers/peripheral/syspm/cy_syspm.h **** 
1094:Generated_Source\PSoC6\pdl\drivers/peripheral/syspm/cy_syspm.h **** /** SysPm driver identifier */
1095:Generated_Source\PSoC6\pdl\drivers/peripheral/syspm/cy_syspm.h **** #define CY_SYSPM_ID                      (CY_PDL_DRV_ID(0x10U))
1096:Generated_Source\PSoC6\pdl\drivers/peripheral/syspm/cy_syspm.h **** 
1097:Generated_Source\PSoC6\pdl\drivers/peripheral/syspm/cy_syspm.h **** 
1098:Generated_Source\PSoC6\pdl\drivers/peripheral/syspm/cy_syspm.h **** /*******************************************************************************
1099:Generated_Source\PSoC6\pdl\drivers/peripheral/syspm/cy_syspm.h **** *       Internal Defines
1100:Generated_Source\PSoC6\pdl\drivers/peripheral/syspm/cy_syspm.h **** *******************************************************************************/
1101:Generated_Source\PSoC6\pdl\drivers/peripheral/syspm/cy_syspm.h **** 
1102:Generated_Source\PSoC6\pdl\drivers/peripheral/syspm/cy_syspm.h **** /** \cond INTERNAL */
1103:Generated_Source\PSoC6\pdl\drivers/peripheral/syspm/cy_syspm.h **** 
1104:Generated_Source\PSoC6\pdl\drivers/peripheral/syspm/cy_syspm.h **** /* Macro to validate parameters in Cy_SysPm_SetHibernateWakeupSource() and for Cy_SysPm_ClearHibern
1105:Generated_Source\PSoC6\pdl\drivers/peripheral/syspm/cy_syspm.h **** #define CY_SYSPM_IS_WAKE_UP_SOURCE_VALID(wakeupSource)   (0UL == ((wakeupSource) & \
1106:Generated_Source\PSoC6\pdl\drivers/peripheral/syspm/cy_syspm.h ****                                                          ((uint32_t) ~(CY_SYSPM_HIB_WAKEUP_SOURSE_M
1107:Generated_Source\PSoC6\pdl\drivers/peripheral/syspm/cy_syspm.h **** 
1108:Generated_Source\PSoC6\pdl\drivers/peripheral/syspm/cy_syspm.h **** /* Macro to validate parameters in Cy_SysPm_PmicDisable() function */
1109:Generated_Source\PSoC6\pdl\drivers/peripheral/syspm/cy_syspm.h **** #define CY_SYSPM_IS_POLARITY_VALID(polarity)            (((polarity) == CY_SYSPM_PMIC_POLARITY_LOW)
1110:Generated_Source\PSoC6\pdl\drivers/peripheral/syspm/cy_syspm.h ****                                                          ((polarity) == CY_SYSPM_PMIC_POLARITY_HIGH
1111:Generated_Source\PSoC6\pdl\drivers/peripheral/syspm/cy_syspm.h **** 
1112:Generated_Source\PSoC6\pdl\drivers/peripheral/syspm/cy_syspm.h **** /* Macro to validate parameters in Cy_SysPm_BuckSetVoltage1() function */
1113:Generated_Source\PSoC6\pdl\drivers/peripheral/syspm/cy_syspm.h **** #define CY_SYSPM_IS_BUCK_VOLTAGE1_VALID(voltage)        (((voltage) == CY_SYSPM_BUCK_OUT1_VOLTAGE_0
1114:Generated_Source\PSoC6\pdl\drivers/peripheral/syspm/cy_syspm.h ****                                                          ((voltage) == CY_SYSPM_BUCK_OUT1_VOLTAGE_1
1115:Generated_Source\PSoC6\pdl\drivers/peripheral/syspm/cy_syspm.h **** 
1116:Generated_Source\PSoC6\pdl\drivers/peripheral/syspm/cy_syspm.h **** /* Macro to validate parameters in Cy_SysPm_BuckSetVoltage2() function */
1117:Generated_Source\PSoC6\pdl\drivers/peripheral/syspm/cy_syspm.h **** #define CY_SYSPM_IS_BUCK_VOLTAGE2_VALID(voltage)        (((voltage) == CY_SYSPM_BUCK_OUT2_VOLTAGE_1
1118:Generated_Source\PSoC6\pdl\drivers/peripheral/syspm/cy_syspm.h ****                                                          ((voltage) == CY_SYSPM_BUCK_OUT2_VOLTAGE_1
1119:Generated_Source\PSoC6\pdl\drivers/peripheral/syspm/cy_syspm.h ****                                                          ((voltage) == CY_SYSPM_BUCK_OUT2_VOLTAGE_1
1120:Generated_Source\PSoC6\pdl\drivers/peripheral/syspm/cy_syspm.h ****                                                          ((voltage) == CY_SYSPM_BUCK_OUT2_VOLTAGE_1
1121:Generated_Source\PSoC6\pdl\drivers/peripheral/syspm/cy_syspm.h ****                                                          ((voltage) == CY_SYSPM_BUCK_OUT2_VOLTAGE_1
1122:Generated_Source\PSoC6\pdl\drivers/peripheral/syspm/cy_syspm.h ****                                                          ((voltage) == CY_SYSPM_BUCK_OUT2_VOLTAGE_1
ARM GAS  C:\Users\guill\AppData\Local\Temp\ccSz7NWo.s 			page 31


1123:Generated_Source\PSoC6\pdl\drivers/peripheral/syspm/cy_syspm.h ****                                                          ((voltage) == CY_SYSPM_BUCK_OUT2_VOLTAGE_1
1124:Generated_Source\PSoC6\pdl\drivers/peripheral/syspm/cy_syspm.h ****                                                          ((voltage) == CY_SYSPM_BUCK_OUT2_VOLTAGE_1
1125:Generated_Source\PSoC6\pdl\drivers/peripheral/syspm/cy_syspm.h **** 
1126:Generated_Source\PSoC6\pdl\drivers/peripheral/syspm/cy_syspm.h **** /* Macro to validate parameters in Cy_SysPm_BuckIsOutputEnabled() function */
1127:Generated_Source\PSoC6\pdl\drivers/peripheral/syspm/cy_syspm.h **** #define CY_SYSPM_IS_BUCK_OUTPUT_VALID(output)           (((output) == CY_SYSPM_BUCK_VBUCK_1) || \
1128:Generated_Source\PSoC6\pdl\drivers/peripheral/syspm/cy_syspm.h ****                                                          ((output) == CY_SYSPM_BUCK_VRF))
1129:Generated_Source\PSoC6\pdl\drivers/peripheral/syspm/cy_syspm.h **** 
1130:Generated_Source\PSoC6\pdl\drivers/peripheral/syspm/cy_syspm.h **** /* Macro to validate parameters in Cy_SysPm_LdoSetVoltage() function */
1131:Generated_Source\PSoC6\pdl\drivers/peripheral/syspm/cy_syspm.h **** #define CY_SYSPM_IS_LDO_VOLTAGE_VALID(voltage)          (((voltage) == CY_SYSPM_LDO_VOLTAGE_0_9V) |
1132:Generated_Source\PSoC6\pdl\drivers/peripheral/syspm/cy_syspm.h ****                                                          ((voltage) == CY_SYSPM_LDO_VOLTAGE_1_1V))
1133:Generated_Source\PSoC6\pdl\drivers/peripheral/syspm/cy_syspm.h **** 
1134:Generated_Source\PSoC6\pdl\drivers/peripheral/syspm/cy_syspm.h **** /* Macro to validate parameters in Cy_SysPm_ExecuteCallback() function */
1135:Generated_Source\PSoC6\pdl\drivers/peripheral/syspm/cy_syspm.h **** #define CY_SYSPM_IS_CALLBACK_TYPE_VALID(type)           (((type) == CY_SYSPM_SLEEP) || \
1136:Generated_Source\PSoC6\pdl\drivers/peripheral/syspm/cy_syspm.h ****                                                          ((type) == CY_SYSPM_DEEPSLEEP) || \
1137:Generated_Source\PSoC6\pdl\drivers/peripheral/syspm/cy_syspm.h ****                                                          ((type) == CY_SYSPM_HIBERNATE) || \
1138:Generated_Source\PSoC6\pdl\drivers/peripheral/syspm/cy_syspm.h ****                                                          ((type) == CY_SYSPM_ULP) || \
1139:Generated_Source\PSoC6\pdl\drivers/peripheral/syspm/cy_syspm.h ****                                                          ((type) == CY_SYSPM_LP))
1140:Generated_Source\PSoC6\pdl\drivers/peripheral/syspm/cy_syspm.h **** 
1141:Generated_Source\PSoC6\pdl\drivers/peripheral/syspm/cy_syspm.h **** /* Macro to validate parameters in Cy_SysPm_ExecuteCallback() function */
1142:Generated_Source\PSoC6\pdl\drivers/peripheral/syspm/cy_syspm.h **** #define CY_SYSPM_IS_CALLBACK_MODE_VALID(mode)           (((mode) == CY_SYSPM_CHECK_READY) || \
1143:Generated_Source\PSoC6\pdl\drivers/peripheral/syspm/cy_syspm.h ****                                                          ((mode) == CY_SYSPM_CHECK_FAIL) || \
1144:Generated_Source\PSoC6\pdl\drivers/peripheral/syspm/cy_syspm.h ****                                                          ((mode) == CY_SYSPM_BEFORE_TRANSITION) || 
1145:Generated_Source\PSoC6\pdl\drivers/peripheral/syspm/cy_syspm.h ****                                                          ((mode) == CY_SYSPM_AFTER_TRANSITION))
1146:Generated_Source\PSoC6\pdl\drivers/peripheral/syspm/cy_syspm.h **** 
1147:Generated_Source\PSoC6\pdl\drivers/peripheral/syspm/cy_syspm.h **** /* Macro to validate parameters in Cy_SysPm_CpuEnterSleep() and for Cy_SysPm_CpuEnterDeepSleep() fu
1148:Generated_Source\PSoC6\pdl\drivers/peripheral/syspm/cy_syspm.h **** #define CY_SYSPM_IS_WAIT_FOR_VALID(waitFor)             (((waitFor) == CY_SYSPM_WAIT_FOR_INTERRUPT)
1149:Generated_Source\PSoC6\pdl\drivers/peripheral/syspm/cy_syspm.h ****                                                          ((waitFor) == CY_SYSPM_WAIT_FOR_EVENT))
1150:Generated_Source\PSoC6\pdl\drivers/peripheral/syspm/cy_syspm.h **** 
1151:Generated_Source\PSoC6\pdl\drivers/peripheral/syspm/cy_syspm.h **** /* Macro to validate parameters in Cy_SysPm_BackupSetSupply() function */
1152:Generated_Source\PSoC6\pdl\drivers/peripheral/syspm/cy_syspm.h **** #define CY_SYSPM_IS_VDDBACKUP_VALID(vddBackControl)      (((vddBackControl) == CY_SYSPM_VDDBACKUP_D
1153:Generated_Source\PSoC6\pdl\drivers/peripheral/syspm/cy_syspm.h ****                                                           ((vddBackControl) == CY_SYSPM_VDDBACKUP_V
1154:Generated_Source\PSoC6\pdl\drivers/peripheral/syspm/cy_syspm.h ****                                                           
1155:Generated_Source\PSoC6\pdl\drivers/peripheral/syspm/cy_syspm.h **** /* Macro to validate parameters in Cy_SysPm_BackupSuperCapCharge() function */
1156:Generated_Source\PSoC6\pdl\drivers/peripheral/syspm/cy_syspm.h **** #define CY_SYSPM_IS_SC_CHARGE_KEY_VALID(key)            (((key) == CY_SYSPM_SC_CHARGE_ENABLE) || \
1157:Generated_Source\PSoC6\pdl\drivers/peripheral/syspm/cy_syspm.h ****                                                          ((key) == CY_SYSPM_SC_CHARGE_DISABLE))
1158:Generated_Source\PSoC6\pdl\drivers/peripheral/syspm/cy_syspm.h **** 
1159:Generated_Source\PSoC6\pdl\drivers/peripheral/syspm/cy_syspm.h **** /* Macro to validate parameters in Cy_SysPm_LdoSetMode() function */
1160:Generated_Source\PSoC6\pdl\drivers/peripheral/syspm/cy_syspm.h **** #define CY_SYSPM_IS_LDO_MODE_VALID(key)            (((mode) == CY_SYSPM_LDO_MODE_DISABLED) || \
1161:Generated_Source\PSoC6\pdl\drivers/peripheral/syspm/cy_syspm.h ****                                                     ((mode) == CY_SYSPM_LDO_MODE_NORMAL) || \
1162:Generated_Source\PSoC6\pdl\drivers/peripheral/syspm/cy_syspm.h ****                                                     ((mode) == CY_SYSPM_LDO_MODE_MIN))
1163:Generated_Source\PSoC6\pdl\drivers/peripheral/syspm/cy_syspm.h **** 
1164:Generated_Source\PSoC6\pdl\drivers/peripheral/syspm/cy_syspm.h **** /* Macro to validate parameters in Cy_SysPm_WriteVoltageBitForFlash() function */
1165:Generated_Source\PSoC6\pdl\drivers/peripheral/syspm/cy_syspm.h **** #define CY_SYSPM_IS_BIT_FOR_FLASH_VALID(value)     (((value) == CY_SYSPM_FLASH_VOLTAGE_BIT_ULP) || 
1166:Generated_Source\PSoC6\pdl\drivers/peripheral/syspm/cy_syspm.h ****                                                     ((value) == CY_SYSPM_FLASH_VOLTAGE_BIT_LP))
1167:Generated_Source\PSoC6\pdl\drivers/peripheral/syspm/cy_syspm.h **** 
1168:Generated_Source\PSoC6\pdl\drivers/peripheral/syspm/cy_syspm.h **** /** The internal define of the unlock value for the PMIC functions */
1169:Generated_Source\PSoC6\pdl\drivers/peripheral/syspm/cy_syspm.h **** #define CY_SYSPM_PMIC_UNLOCK_KEY                    (0x3AU)
1170:Generated_Source\PSoC6\pdl\drivers/peripheral/syspm/cy_syspm.h **** 
1171:Generated_Source\PSoC6\pdl\drivers/peripheral/syspm/cy_syspm.h **** /** The internal define of the first wakeup pin bit used in the
1172:Generated_Source\PSoC6\pdl\drivers/peripheral/syspm/cy_syspm.h **** * Cy_SysPm_SetHibernateWakeupSource() function
1173:Generated_Source\PSoC6\pdl\drivers/peripheral/syspm/cy_syspm.h **** */
1174:Generated_Source\PSoC6\pdl\drivers/peripheral/syspm/cy_syspm.h **** #define CY_SYSPM_HIB_WAKEUP_PIN0_POS                (1UL)
1175:Generated_Source\PSoC6\pdl\drivers/peripheral/syspm/cy_syspm.h **** 
1176:Generated_Source\PSoC6\pdl\drivers/peripheral/syspm/cy_syspm.h **** /** The internal define of the second wakeup pin bit 
1177:Generated_Source\PSoC6\pdl\drivers/peripheral/syspm/cy_syspm.h **** * used in the Cy_SysPm_SetHibernateWakeupSource() function
1178:Generated_Source\PSoC6\pdl\drivers/peripheral/syspm/cy_syspm.h **** */
1179:Generated_Source\PSoC6\pdl\drivers/peripheral/syspm/cy_syspm.h **** #define CY_SYSPM_HIB_WAKEUP_PIN1_POS                (2UL)
ARM GAS  C:\Users\guill\AppData\Local\Temp\ccSz7NWo.s 			page 32


1180:Generated_Source\PSoC6\pdl\drivers/peripheral/syspm/cy_syspm.h **** 
1181:Generated_Source\PSoC6\pdl\drivers/peripheral/syspm/cy_syspm.h **** /**
1182:Generated_Source\PSoC6\pdl\drivers/peripheral/syspm/cy_syspm.h **** * The internal define of the first LPComparator bit 
1183:Generated_Source\PSoC6\pdl\drivers/peripheral/syspm/cy_syspm.h **** * used in the Cy_SysPm_SetHibernateWakeupSource() function
1184:Generated_Source\PSoC6\pdl\drivers/peripheral/syspm/cy_syspm.h **** */
1185:Generated_Source\PSoC6\pdl\drivers/peripheral/syspm/cy_syspm.h **** #define CY_SYSPM_HIB_WAKEUP_LPCOMP0_POS             (4UL)
1186:Generated_Source\PSoC6\pdl\drivers/peripheral/syspm/cy_syspm.h **** 
1187:Generated_Source\PSoC6\pdl\drivers/peripheral/syspm/cy_syspm.h **** /**
1188:Generated_Source\PSoC6\pdl\drivers/peripheral/syspm/cy_syspm.h **** * The internal define for the second LPComparator bit 
1189:Generated_Source\PSoC6\pdl\drivers/peripheral/syspm/cy_syspm.h **** * used in the Cy_SysPm_SetHibernateWakeupSource() function
1190:Generated_Source\PSoC6\pdl\drivers/peripheral/syspm/cy_syspm.h **** */
1191:Generated_Source\PSoC6\pdl\drivers/peripheral/syspm/cy_syspm.h **** #define CY_SYSPM_HIB_WAKEUP_LPCOMP1_POS             (8UL)
1192:Generated_Source\PSoC6\pdl\drivers/peripheral/syspm/cy_syspm.h **** 
1193:Generated_Source\PSoC6\pdl\drivers/peripheral/syspm/cy_syspm.h **** /**
1194:Generated_Source\PSoC6\pdl\drivers/peripheral/syspm/cy_syspm.h **** * The internal define of the first LPComparator value 
1195:Generated_Source\PSoC6\pdl\drivers/peripheral/syspm/cy_syspm.h **** * used in the Cy_SysPm_SetHibernateWakeupSource() function
1196:Generated_Source\PSoC6\pdl\drivers/peripheral/syspm/cy_syspm.h **** */
1197:Generated_Source\PSoC6\pdl\drivers/peripheral/syspm/cy_syspm.h **** #define CY_SYSPM_HIB_WAKEUP_LPCOMP0_MASK    (_VAL2FLD(SRSS_PWR_HIBERNATE_MASK_HIBPIN, CY_SYSPM_HIB_
1198:Generated_Source\PSoC6\pdl\drivers/peripheral/syspm/cy_syspm.h **** 
1199:Generated_Source\PSoC6\pdl\drivers/peripheral/syspm/cy_syspm.h **** /**
1200:Generated_Source\PSoC6\pdl\drivers/peripheral/syspm/cy_syspm.h **** * The internal define of the second LPComparator value 
1201:Generated_Source\PSoC6\pdl\drivers/peripheral/syspm/cy_syspm.h **** * used in the Cy_SysPm_SetHibernateWakeupSource() function
1202:Generated_Source\PSoC6\pdl\drivers/peripheral/syspm/cy_syspm.h **** */
1203:Generated_Source\PSoC6\pdl\drivers/peripheral/syspm/cy_syspm.h **** #define CY_SYSPM_HIB_WAKEUP_LPCOMP1_MASK    (_VAL2FLD(SRSS_PWR_HIBERNATE_MASK_HIBPIN, CY_SYSPM_HIB_
1204:Generated_Source\PSoC6\pdl\drivers/peripheral/syspm/cy_syspm.h **** 
1205:Generated_Source\PSoC6\pdl\drivers/peripheral/syspm/cy_syspm.h **** /**
1206:Generated_Source\PSoC6\pdl\drivers/peripheral/syspm/cy_syspm.h **** * The internal define of the first wake-up pin value 
1207:Generated_Source\PSoC6\pdl\drivers/peripheral/syspm/cy_syspm.h **** * used in the Cy_SysPm_SetHibernateWakeupSource() function
1208:Generated_Source\PSoC6\pdl\drivers/peripheral/syspm/cy_syspm.h **** */
1209:Generated_Source\PSoC6\pdl\drivers/peripheral/syspm/cy_syspm.h **** #define CY_SYSPM_HIB_WAKEUP_PIN0_MASK    (_VAL2FLD(SRSS_PWR_HIBERNATE_MASK_HIBPIN, CY_SYSPM_HIB_WAK
1210:Generated_Source\PSoC6\pdl\drivers/peripheral/syspm/cy_syspm.h **** 
1211:Generated_Source\PSoC6\pdl\drivers/peripheral/syspm/cy_syspm.h **** /**
1212:Generated_Source\PSoC6\pdl\drivers/peripheral/syspm/cy_syspm.h **** * The internal define of the second wake-up pin value used 
1213:Generated_Source\PSoC6\pdl\drivers/peripheral/syspm/cy_syspm.h **** * in the Cy_SysPm_SetHibernateWakeupSource() function
1214:Generated_Source\PSoC6\pdl\drivers/peripheral/syspm/cy_syspm.h **** */
1215:Generated_Source\PSoC6\pdl\drivers/peripheral/syspm/cy_syspm.h **** #define CY_SYSPM_HIB_WAKEUP_PIN1_MASK    (_VAL2FLD(SRSS_PWR_HIBERNATE_MASK_HIBPIN, CY_SYSPM_HIB_WAK
1216:Generated_Source\PSoC6\pdl\drivers/peripheral/syspm/cy_syspm.h **** 
1217:Generated_Source\PSoC6\pdl\drivers/peripheral/syspm/cy_syspm.h **** /** The internal define for the first LPComparator polarity configuration */
1218:Generated_Source\PSoC6\pdl\drivers/peripheral/syspm/cy_syspm.h **** #define CY_SYSPM_HIB_WAKEUP_LPCOMP0_POLARITY_HIGH_MASK    \
1219:Generated_Source\PSoC6\pdl\drivers/peripheral/syspm/cy_syspm.h ****                                   (_VAL2FLD(SRSS_PWR_HIBERNATE_POLARITY_HIBPIN, CY_SYSPM_HIB_WAKEUP
1220:Generated_Source\PSoC6\pdl\drivers/peripheral/syspm/cy_syspm.h **** 
1221:Generated_Source\PSoC6\pdl\drivers/peripheral/syspm/cy_syspm.h **** /** The internal define for the second LPComparator polarity configuration */
1222:Generated_Source\PSoC6\pdl\drivers/peripheral/syspm/cy_syspm.h **** #define CY_SYSPM_HIB_WAKEUP_LPCOMP1_POLARITY_HIGH_MASK    \
1223:Generated_Source\PSoC6\pdl\drivers/peripheral/syspm/cy_syspm.h ****                                   (_VAL2FLD(SRSS_PWR_HIBERNATE_POLARITY_HIBPIN, CY_SYSPM_HIB_WAKEUP
1224:Generated_Source\PSoC6\pdl\drivers/peripheral/syspm/cy_syspm.h **** 
1225:Generated_Source\PSoC6\pdl\drivers/peripheral/syspm/cy_syspm.h **** /** The internal define for the first wake-up pin polarity configuration */
1226:Generated_Source\PSoC6\pdl\drivers/peripheral/syspm/cy_syspm.h **** #define CY_SYSPM_HIB_WAKEUP_PIN0_POLARITY_HIGH_MASK    \
1227:Generated_Source\PSoC6\pdl\drivers/peripheral/syspm/cy_syspm.h ****                                   (_VAL2FLD(SRSS_PWR_HIBERNATE_POLARITY_HIBPIN, CY_SYSPM_HIB_WAKEUP
1228:Generated_Source\PSoC6\pdl\drivers/peripheral/syspm/cy_syspm.h **** 
1229:Generated_Source\PSoC6\pdl\drivers/peripheral/syspm/cy_syspm.h **** /** The internal define for the second wake-up pin polarity configuration */
1230:Generated_Source\PSoC6\pdl\drivers/peripheral/syspm/cy_syspm.h **** #define CY_SYSPM_HIB_WAKEUP_PIN1_POLARITY_HIGH_MASK    \
1231:Generated_Source\PSoC6\pdl\drivers/peripheral/syspm/cy_syspm.h ****                                   (_VAL2FLD(SRSS_PWR_HIBERNATE_POLARITY_HIBPIN, CY_SYSPM_HIB_WAKEUP
1232:Generated_Source\PSoC6\pdl\drivers/peripheral/syspm/cy_syspm.h **** 
1233:Generated_Source\PSoC6\pdl\drivers/peripheral/syspm/cy_syspm.h **** /* Internal macro of all possible wakeup sources from hibernate power mode */
1234:Generated_Source\PSoC6\pdl\drivers/peripheral/syspm/cy_syspm.h **** #define CY_SYSPM_HIB_WAKEUP_SOURSE_MASK    (CY_SYSPM_HIBERNATE_LPCOMP0_HIGH | CY_SYSPM_HIBERNATE_LP
1235:Generated_Source\PSoC6\pdl\drivers/peripheral/syspm/cy_syspm.h ****                                             CY_SYSPM_HIBERNATE_RTC_ALARM    | CY_SYSPM_HIBERNATE_WD
1236:Generated_Source\PSoC6\pdl\drivers/peripheral/syspm/cy_syspm.h ****                                             CY_SYSPM_HIBERNATE_PIN0_HIGH    | CY_SYSPM_HIBERNATE_PI
ARM GAS  C:\Users\guill\AppData\Local\Temp\ccSz7NWo.s 			page 33


1237:Generated_Source\PSoC6\pdl\drivers/peripheral/syspm/cy_syspm.h **** 
1238:Generated_Source\PSoC6\pdl\drivers/peripheral/syspm/cy_syspm.h **** /* The mask for low power modes the power circuits (POR/BOD, Bandgap 
1239:Generated_Source\PSoC6\pdl\drivers/peripheral/syspm/cy_syspm.h **** *  reference, Reference buffer, Current reference) when active core regulator is
1240:Generated_Source\PSoC6\pdl\drivers/peripheral/syspm/cy_syspm.h **** *  LDO
1241:Generated_Source\PSoC6\pdl\drivers/peripheral/syspm/cy_syspm.h **** */
1242:Generated_Source\PSoC6\pdl\drivers/peripheral/syspm/cy_syspm.h **** #define CY_SYSPM_PWR_CIRCUITS_LPMODE_ACTIVE_LDO_MASK    (SRSS_PWR_CTL_LINREG_LPMODE_Msk | CY_SYSPM_
1243:Generated_Source\PSoC6\pdl\drivers/peripheral/syspm/cy_syspm.h **** 
1244:Generated_Source\PSoC6\pdl\drivers/peripheral/syspm/cy_syspm.h **** /* The mask for low power modes the power circuits (POR/BOD, Bandgap 
1245:Generated_Source\PSoC6\pdl\drivers/peripheral/syspm/cy_syspm.h **** *  reference, Reference buffer, Current reference) when active core regulator is
1246:Generated_Source\PSoC6\pdl\drivers/peripheral/syspm/cy_syspm.h **** *  Buck
1247:Generated_Source\PSoC6\pdl\drivers/peripheral/syspm/cy_syspm.h **** */
1248:Generated_Source\PSoC6\pdl\drivers/peripheral/syspm/cy_syspm.h **** #define CY_SYSPM_PWR_CIRCUITS_LPMODE_ACTIVE_BUCK_MASK    (SRSS_PWR_CTL_PORBOD_LPMODE_Msk |\
1249:Generated_Source\PSoC6\pdl\drivers/peripheral/syspm/cy_syspm.h ****                                                           SRSS_PWR_CTL_ACT_REF_DIS_Msk |\
1250:Generated_Source\PSoC6\pdl\drivers/peripheral/syspm/cy_syspm.h ****                                                           SRSS_PWR_CTL_VREFBUF_LPMODE_Msk |\
1251:Generated_Source\PSoC6\pdl\drivers/peripheral/syspm/cy_syspm.h ****                                                           SRSS_PWR_CTL_IREF_LPMODE_Msk)
1252:Generated_Source\PSoC6\pdl\drivers/peripheral/syspm/cy_syspm.h **** 
1253:Generated_Source\PSoC6\pdl\drivers/peripheral/syspm/cy_syspm.h **** /** \endcond */
1254:Generated_Source\PSoC6\pdl\drivers/peripheral/syspm/cy_syspm.h **** 
1255:Generated_Source\PSoC6\pdl\drivers/peripheral/syspm/cy_syspm.h **** /**
1256:Generated_Source\PSoC6\pdl\drivers/peripheral/syspm/cy_syspm.h **** * \defgroup group_syspm_return_status The Power Mode Status Defines
1257:Generated_Source\PSoC6\pdl\drivers/peripheral/syspm/cy_syspm.h **** * \{
1258:Generated_Source\PSoC6\pdl\drivers/peripheral/syspm/cy_syspm.h **** * Defines for the CPU and system power modes status.
1259:Generated_Source\PSoC6\pdl\drivers/peripheral/syspm/cy_syspm.h **** */
1260:Generated_Source\PSoC6\pdl\drivers/peripheral/syspm/cy_syspm.h **** 
1261:Generated_Source\PSoC6\pdl\drivers/peripheral/syspm/cy_syspm.h **** /** The CM4 is in CPU Active mode */
1262:Generated_Source\PSoC6\pdl\drivers/peripheral/syspm/cy_syspm.h **** #define CY_SYSPM_STATUS_CM4_ACTIVE       (0x01U)
1263:Generated_Source\PSoC6\pdl\drivers/peripheral/syspm/cy_syspm.h **** 
1264:Generated_Source\PSoC6\pdl\drivers/peripheral/syspm/cy_syspm.h **** /** The CM4 is in CPU Sleep mode */
1265:Generated_Source\PSoC6\pdl\drivers/peripheral/syspm/cy_syspm.h **** #define CY_SYSPM_STATUS_CM4_SLEEP        (0x02U)
1266:Generated_Source\PSoC6\pdl\drivers/peripheral/syspm/cy_syspm.h **** 
1267:Generated_Source\PSoC6\pdl\drivers/peripheral/syspm/cy_syspm.h **** /** The CM4 is in CPU Deep Sleep mode */
1268:Generated_Source\PSoC6\pdl\drivers/peripheral/syspm/cy_syspm.h **** #define CY_SYSPM_STATUS_CM4_DEEPSLEEP    (0x04U)
1269:Generated_Source\PSoC6\pdl\drivers/peripheral/syspm/cy_syspm.h **** 
1270:Generated_Source\PSoC6\pdl\drivers/peripheral/syspm/cy_syspm.h **** /** The CM0p is CPU Active mode */
1271:Generated_Source\PSoC6\pdl\drivers/peripheral/syspm/cy_syspm.h **** #define CY_SYSPM_STATUS_CM0_ACTIVE       ((uint32_t) 0x01U << 8U)
1272:Generated_Source\PSoC6\pdl\drivers/peripheral/syspm/cy_syspm.h **** 
1273:Generated_Source\PSoC6\pdl\drivers/peripheral/syspm/cy_syspm.h **** /** The CM0p is in CPU Sleep mode */
1274:Generated_Source\PSoC6\pdl\drivers/peripheral/syspm/cy_syspm.h **** #define CY_SYSPM_STATUS_CM0_SLEEP        ((uint32_t) 0x02U << 8U)
1275:Generated_Source\PSoC6\pdl\drivers/peripheral/syspm/cy_syspm.h **** 
1276:Generated_Source\PSoC6\pdl\drivers/peripheral/syspm/cy_syspm.h **** /** The CM0p is in CPU Deep Sleep mode */
1277:Generated_Source\PSoC6\pdl\drivers/peripheral/syspm/cy_syspm.h **** #define CY_SYSPM_STATUS_CM0_DEEPSLEEP    ((uint32_t) 0x04U << 8U)
1278:Generated_Source\PSoC6\pdl\drivers/peripheral/syspm/cy_syspm.h **** 
1279:Generated_Source\PSoC6\pdl\drivers/peripheral/syspm/cy_syspm.h **** /** The system is Low Power mode */
1280:Generated_Source\PSoC6\pdl\drivers/peripheral/syspm/cy_syspm.h **** #define CY_SYSPM_STATUS_SYSTEM_LP        (0x80U)
1281:Generated_Source\PSoC6\pdl\drivers/peripheral/syspm/cy_syspm.h **** 
1282:Generated_Source\PSoC6\pdl\drivers/peripheral/syspm/cy_syspm.h **** /** The system is in Ultra Low Power mode */
1283:Generated_Source\PSoC6\pdl\drivers/peripheral/syspm/cy_syspm.h **** #define CY_SYSPM_STATUS_SYSTEM_ULP       ((uint32_t) 0x08U << 8U)
1284:Generated_Source\PSoC6\pdl\drivers/peripheral/syspm/cy_syspm.h **** 
1285:Generated_Source\PSoC6\pdl\drivers/peripheral/syspm/cy_syspm.h **** /** \} group_syspm_return_status */
1286:Generated_Source\PSoC6\pdl\drivers/peripheral/syspm/cy_syspm.h **** 
1287:Generated_Source\PSoC6\pdl\drivers/peripheral/syspm/cy_syspm.h **** /** \} group_syspm_macros */
1288:Generated_Source\PSoC6\pdl\drivers/peripheral/syspm/cy_syspm.h **** 
1289:Generated_Source\PSoC6\pdl\drivers/peripheral/syspm/cy_syspm.h **** /*******************************************************************************
1290:Generated_Source\PSoC6\pdl\drivers/peripheral/syspm/cy_syspm.h **** *       Configuration Structures
1291:Generated_Source\PSoC6\pdl\drivers/peripheral/syspm/cy_syspm.h **** *******************************************************************************/
1292:Generated_Source\PSoC6\pdl\drivers/peripheral/syspm/cy_syspm.h **** 
1293:Generated_Source\PSoC6\pdl\drivers/peripheral/syspm/cy_syspm.h **** /**
ARM GAS  C:\Users\guill\AppData\Local\Temp\ccSz7NWo.s 			page 34


1294:Generated_Source\PSoC6\pdl\drivers/peripheral/syspm/cy_syspm.h **** * \addtogroup group_syspm_data_enumerates
1295:Generated_Source\PSoC6\pdl\drivers/peripheral/syspm/cy_syspm.h **** * \{
1296:Generated_Source\PSoC6\pdl\drivers/peripheral/syspm/cy_syspm.h **** */
1297:Generated_Source\PSoC6\pdl\drivers/peripheral/syspm/cy_syspm.h **** 
1298:Generated_Source\PSoC6\pdl\drivers/peripheral/syspm/cy_syspm.h **** /** The SysPm function return value status definitions. */
1299:Generated_Source\PSoC6\pdl\drivers/peripheral/syspm/cy_syspm.h **** typedef enum
1300:Generated_Source\PSoC6\pdl\drivers/peripheral/syspm/cy_syspm.h **** {
1301:Generated_Source\PSoC6\pdl\drivers/peripheral/syspm/cy_syspm.h ****     CY_SYSPM_SUCCESS        = 0x0U,                                         /**< Successful. */
1302:Generated_Source\PSoC6\pdl\drivers/peripheral/syspm/cy_syspm.h ****     CY_SYSPM_BAD_PARAM      = CY_SYSPM_ID | CY_PDL_STATUS_ERROR | 0x01U,    /**< One or more invali
1303:Generated_Source\PSoC6\pdl\drivers/peripheral/syspm/cy_syspm.h ****     CY_SYSPM_TIMEOUT        = CY_SYSPM_ID | CY_PDL_STATUS_ERROR | 0x02U,    /**< A time-out occurre
1304:Generated_Source\PSoC6\pdl\drivers/peripheral/syspm/cy_syspm.h ****     CY_SYSPM_INVALID_STATE  = CY_SYSPM_ID | CY_PDL_STATUS_ERROR | 0x03U,    /**< The operation is n
1305:Generated_Source\PSoC6\pdl\drivers/peripheral/syspm/cy_syspm.h ****                                                                                  improper state. */
1306:Generated_Source\PSoC6\pdl\drivers/peripheral/syspm/cy_syspm.h ****     CY_SYSPM_CANCELED       = CY_SYSPM_ID | CY_PDL_STATUS_ERROR | 0x04U,    /**< Operation canceled
1307:Generated_Source\PSoC6\pdl\drivers/peripheral/syspm/cy_syspm.h ****     CY_SYSPM_FAIL           = CY_SYSPM_ID | CY_PDL_STATUS_ERROR | 0xFFU     /**< Unknown failure. *
1308:Generated_Source\PSoC6\pdl\drivers/peripheral/syspm/cy_syspm.h **** } cy_en_syspm_status_t;
1309:Generated_Source\PSoC6\pdl\drivers/peripheral/syspm/cy_syspm.h **** 
1310:Generated_Source\PSoC6\pdl\drivers/peripheral/syspm/cy_syspm.h **** /**
1311:Generated_Source\PSoC6\pdl\drivers/peripheral/syspm/cy_syspm.h **** * This enumeration is used to initialize the functions wait action. The wait actions can be - 
1312:Generated_Source\PSoC6\pdl\drivers/peripheral/syspm/cy_syspm.h **** * an interrupt or an event. Refer to the CMSIS for WFE and WFI instruction explanations.
1313:Generated_Source\PSoC6\pdl\drivers/peripheral/syspm/cy_syspm.h **** */
1314:Generated_Source\PSoC6\pdl\drivers/peripheral/syspm/cy_syspm.h **** typedef enum
1315:Generated_Source\PSoC6\pdl\drivers/peripheral/syspm/cy_syspm.h **** {
1316:Generated_Source\PSoC6\pdl\drivers/peripheral/syspm/cy_syspm.h ****     CY_SYSPM_WAIT_FOR_INTERRUPT,    /**< Wait for an interrupt. */
1317:Generated_Source\PSoC6\pdl\drivers/peripheral/syspm/cy_syspm.h ****     CY_SYSPM_WAIT_FOR_EVENT         /**< Wait for an event. */
1318:Generated_Source\PSoC6\pdl\drivers/peripheral/syspm/cy_syspm.h **** } cy_en_syspm_waitfor_t;
1319:Generated_Source\PSoC6\pdl\drivers/peripheral/syspm/cy_syspm.h **** 
1320:Generated_Source\PSoC6\pdl\drivers/peripheral/syspm/cy_syspm.h **** /** This enumeration is used to configure wakeup sources for the System Hibernate 
1321:Generated_Source\PSoC6\pdl\drivers/peripheral/syspm/cy_syspm.h **** *   power mode.
1322:Generated_Source\PSoC6\pdl\drivers/peripheral/syspm/cy_syspm.h **** */
1323:Generated_Source\PSoC6\pdl\drivers/peripheral/syspm/cy_syspm.h **** typedef enum
1324:Generated_Source\PSoC6\pdl\drivers/peripheral/syspm/cy_syspm.h **** {
1325:Generated_Source\PSoC6\pdl\drivers/peripheral/syspm/cy_syspm.h ****     /** Wake on a low logic level for the LPComp0. */
1326:Generated_Source\PSoC6\pdl\drivers/peripheral/syspm/cy_syspm.h ****     CY_SYSPM_HIBERNATE_LPCOMP0_LOW  = CY_SYSPM_HIB_WAKEUP_LPCOMP0_MASK,
1327:Generated_Source\PSoC6\pdl\drivers/peripheral/syspm/cy_syspm.h **** 
1328:Generated_Source\PSoC6\pdl\drivers/peripheral/syspm/cy_syspm.h ****     /** Wake on a high logic level for the LPComp0. */
1329:Generated_Source\PSoC6\pdl\drivers/peripheral/syspm/cy_syspm.h ****     CY_SYSPM_HIBERNATE_LPCOMP0_HIGH = CY_SYSPM_HIB_WAKEUP_LPCOMP0_MASK | CY_SYSPM_HIB_WAKEUP_LPCOMP
1330:Generated_Source\PSoC6\pdl\drivers/peripheral/syspm/cy_syspm.h ****     
1331:Generated_Source\PSoC6\pdl\drivers/peripheral/syspm/cy_syspm.h ****     /** Wake on a low logic level for the LPComp1. */
1332:Generated_Source\PSoC6\pdl\drivers/peripheral/syspm/cy_syspm.h ****     CY_SYSPM_HIBERNATE_LPCOMP1_LOW  = CY_SYSPM_HIB_WAKEUP_LPCOMP1_MASK,
1333:Generated_Source\PSoC6\pdl\drivers/peripheral/syspm/cy_syspm.h ****     
1334:Generated_Source\PSoC6\pdl\drivers/peripheral/syspm/cy_syspm.h ****     /** Wake on a high logic level for the LPComp1. */
1335:Generated_Source\PSoC6\pdl\drivers/peripheral/syspm/cy_syspm.h ****     CY_SYSPM_HIBERNATE_LPCOMP1_HIGH = CY_SYSPM_HIB_WAKEUP_LPCOMP1_MASK | CY_SYSPM_HIB_WAKEUP_LPCOMP
1336:Generated_Source\PSoC6\pdl\drivers/peripheral/syspm/cy_syspm.h **** 
1337:Generated_Source\PSoC6\pdl\drivers/peripheral/syspm/cy_syspm.h ****     /** Configure the RTC alarm as wakeup source. */
1338:Generated_Source\PSoC6\pdl\drivers/peripheral/syspm/cy_syspm.h ****     CY_SYSPM_HIBERNATE_RTC_ALARM = SRSS_PWR_HIBERNATE_MASK_HIBALARM_Msk,
1339:Generated_Source\PSoC6\pdl\drivers/peripheral/syspm/cy_syspm.h ****     
1340:Generated_Source\PSoC6\pdl\drivers/peripheral/syspm/cy_syspm.h ****     /** Configure the WDT interrupt as wakeup source. */
1341:Generated_Source\PSoC6\pdl\drivers/peripheral/syspm/cy_syspm.h ****     CY_SYSPM_HIBERNATE_WDT = SRSS_PWR_HIBERNATE_MASK_HIBWDT_Msk,
1342:Generated_Source\PSoC6\pdl\drivers/peripheral/syspm/cy_syspm.h **** 
1343:Generated_Source\PSoC6\pdl\drivers/peripheral/syspm/cy_syspm.h ****     /** Configure a low logic level for the first wakeup-pin. See device datasheet for specific pin
1344:Generated_Source\PSoC6\pdl\drivers/peripheral/syspm/cy_syspm.h ****     CY_SYSPM_HIBERNATE_PIN0_LOW  = CY_SYSPM_HIB_WAKEUP_PIN0_MASK,
1345:Generated_Source\PSoC6\pdl\drivers/peripheral/syspm/cy_syspm.h ****     
1346:Generated_Source\PSoC6\pdl\drivers/peripheral/syspm/cy_syspm.h ****     /** Configure a high logic level for the first wakeup-pin. See device datasheet for specific pi
1347:Generated_Source\PSoC6\pdl\drivers/peripheral/syspm/cy_syspm.h ****     CY_SYSPM_HIBERNATE_PIN0_HIGH = CY_SYSPM_HIB_WAKEUP_PIN0_MASK | CY_SYSPM_HIB_WAKEUP_PIN0_POLARIT
1348:Generated_Source\PSoC6\pdl\drivers/peripheral/syspm/cy_syspm.h **** 
1349:Generated_Source\PSoC6\pdl\drivers/peripheral/syspm/cy_syspm.h ****     /** Configure a low logic level for the second wakeup-pin. See device datasheet for specific pi
1350:Generated_Source\PSoC6\pdl\drivers/peripheral/syspm/cy_syspm.h ****     CY_SYSPM_HIBERNATE_PIN1_LOW  = CY_SYSPM_HIB_WAKEUP_PIN1_MASK,
ARM GAS  C:\Users\guill\AppData\Local\Temp\ccSz7NWo.s 			page 35


1351:Generated_Source\PSoC6\pdl\drivers/peripheral/syspm/cy_syspm.h **** 
1352:Generated_Source\PSoC6\pdl\drivers/peripheral/syspm/cy_syspm.h ****     /** Configure a high logic level for the second wakeup-pin. See device datasheet for specific p
1353:Generated_Source\PSoC6\pdl\drivers/peripheral/syspm/cy_syspm.h ****     CY_SYSPM_HIBERNATE_PIN1_HIGH = CY_SYSPM_HIB_WAKEUP_PIN1_MASK | CY_SYSPM_HIB_WAKEUP_PIN1_POLARIT
1354:Generated_Source\PSoC6\pdl\drivers/peripheral/syspm/cy_syspm.h **** } cy_en_syspm_hibernate_wakeup_source_t;
1355:Generated_Source\PSoC6\pdl\drivers/peripheral/syspm/cy_syspm.h **** 
1356:Generated_Source\PSoC6\pdl\drivers/peripheral/syspm/cy_syspm.h **** /** This enumeration is used to select LDO regulator output voltage. */
1357:Generated_Source\PSoC6\pdl\drivers/peripheral/syspm/cy_syspm.h **** typedef enum
1358:Generated_Source\PSoC6\pdl\drivers/peripheral/syspm/cy_syspm.h **** {
1359:Generated_Source\PSoC6\pdl\drivers/peripheral/syspm/cy_syspm.h ****     CY_SYSPM_LDO_VOLTAGE_ULP  = 0U,    /**< System ULP nominal LDO voltage. 
1360:Generated_Source\PSoC6\pdl\drivers/peripheral/syspm/cy_syspm.h ****                                             See device datasheet for specific voltage. */
1361:Generated_Source\PSoC6\pdl\drivers/peripheral/syspm/cy_syspm.h ****     CY_SYSPM_LDO_VOLTAGE_LP   = 1U,    /**< System LP nominal LDO voltage.
1362:Generated_Source\PSoC6\pdl\drivers/peripheral/syspm/cy_syspm.h ****                                             See device datasheet for specific voltage. */
1363:Generated_Source\PSoC6\pdl\drivers/peripheral/syspm/cy_syspm.h ****     CY_SYSPM_LDO_VOLTAGE_0_9V = 0U,    /**< 0.9 V nominal LDO voltage */
1364:Generated_Source\PSoC6\pdl\drivers/peripheral/syspm/cy_syspm.h ****     CY_SYSPM_LDO_VOLTAGE_1_1V = 1U     /**< 1.1 V nominal LDO voltage */
1365:Generated_Source\PSoC6\pdl\drivers/peripheral/syspm/cy_syspm.h **** } cy_en_syspm_ldo_voltage_t;
1366:Generated_Source\PSoC6\pdl\drivers/peripheral/syspm/cy_syspm.h **** 
1367:Generated_Source\PSoC6\pdl\drivers/peripheral/syspm/cy_syspm.h **** /** This enumeration is used to select the LDO regulator operating mode. */
1368:Generated_Source\PSoC6\pdl\drivers/peripheral/syspm/cy_syspm.h **** typedef enum
1369:Generated_Source\PSoC6\pdl\drivers/peripheral/syspm/cy_syspm.h **** {
1370:Generated_Source\PSoC6\pdl\drivers/peripheral/syspm/cy_syspm.h ****     CY_SYSPM_LDO_MODE_DISABLED = 0U,    /**< Disables the LDO. */
1371:Generated_Source\PSoC6\pdl\drivers/peripheral/syspm/cy_syspm.h ****     CY_SYSPM_LDO_MODE_NORMAL   = 1U,    /**< Sets normal current mode. See device datasheet for 
1372:Generated_Source\PSoC6\pdl\drivers/peripheral/syspm/cy_syspm.h ****                                              specific maximum current limit. */
1373:Generated_Source\PSoC6\pdl\drivers/peripheral/syspm/cy_syspm.h ****     CY_SYSPM_LDO_MODE_MIN      = 2U     /**< Sets minimum current mode. See device datasheet for 
1374:Generated_Source\PSoC6\pdl\drivers/peripheral/syspm/cy_syspm.h ****                                              specific  current limit.  */
1375:Generated_Source\PSoC6\pdl\drivers/peripheral/syspm/cy_syspm.h **** } cy_en_syspm_ldo_mode_t;
1376:Generated_Source\PSoC6\pdl\drivers/peripheral/syspm/cy_syspm.h **** 
1377:Generated_Source\PSoC6\pdl\drivers/peripheral/syspm/cy_syspm.h **** /**
1378:Generated_Source\PSoC6\pdl\drivers/peripheral/syspm/cy_syspm.h **** *  This enumeration is used to select the output voltage for the Buck regulator output 1.
1379:Generated_Source\PSoC6\pdl\drivers/peripheral/syspm/cy_syspm.h **** */
1380:Generated_Source\PSoC6\pdl\drivers/peripheral/syspm/cy_syspm.h **** typedef enum
1381:Generated_Source\PSoC6\pdl\drivers/peripheral/syspm/cy_syspm.h **** {
1382:Generated_Source\PSoC6\pdl\drivers/peripheral/syspm/cy_syspm.h ****     CY_SYSPM_BUCK_OUT1_VOLTAGE_ULP  = 0x02U,    /**< System ULP nominal Buck voltage. 
1383:Generated_Source\PSoC6\pdl\drivers/peripheral/syspm/cy_syspm.h ****                                                      See device datasheet for specific voltage. */
1384:Generated_Source\PSoC6\pdl\drivers/peripheral/syspm/cy_syspm.h ****     CY_SYSPM_BUCK_OUT1_VOLTAGE_LP   = 0x05U,    /**< LP nominal Buck voltage. 
1385:Generated_Source\PSoC6\pdl\drivers/peripheral/syspm/cy_syspm.h ****                                                      See device datasheet for specific voltage. */
1386:Generated_Source\PSoC6\pdl\drivers/peripheral/syspm/cy_syspm.h ****     CY_SYSPM_BUCK_OUT1_VOLTAGE_0_9V = 0x02U,    /**< 0.9 V nominal Buck voltage */
1387:Generated_Source\PSoC6\pdl\drivers/peripheral/syspm/cy_syspm.h ****     CY_SYSPM_BUCK_OUT1_VOLTAGE_1_1V = 0x05U     /**< 1.1 V nominal Buck voltage */
1388:Generated_Source\PSoC6\pdl\drivers/peripheral/syspm/cy_syspm.h **** } cy_en_syspm_buck_voltage1_t;
1389:Generated_Source\PSoC6\pdl\drivers/peripheral/syspm/cy_syspm.h **** 
1390:Generated_Source\PSoC6\pdl\drivers/peripheral/syspm/cy_syspm.h **** /** This enumeration is used to select the Buck regulator outputs. */
1391:Generated_Source\PSoC6\pdl\drivers/peripheral/syspm/cy_syspm.h **** typedef enum
1392:Generated_Source\PSoC6\pdl\drivers/peripheral/syspm/cy_syspm.h **** {
1393:Generated_Source\PSoC6\pdl\drivers/peripheral/syspm/cy_syspm.h ****     CY_SYSPM_BUCK_VBUCK_1 = 0x0U,    /**< Buck output 1 Voltage (Vbuck1). Typically used to 
1394:Generated_Source\PSoC6\pdl\drivers/peripheral/syspm/cy_syspm.h ****                                           supply the PSoC digital core logic. */
1395:Generated_Source\PSoC6\pdl\drivers/peripheral/syspm/cy_syspm.h ****     CY_SYSPM_BUCK_VRF                /**< Buck out 2 Voltage (Vbuckrf). Typically used to 
1396:Generated_Source\PSoC6\pdl\drivers/peripheral/syspm/cy_syspm.h ****                                           supply the BLE radio logic. */
1397:Generated_Source\PSoC6\pdl\drivers/peripheral/syspm/cy_syspm.h **** } cy_en_syspm_buck_out_t;
1398:Generated_Source\PSoC6\pdl\drivers/peripheral/syspm/cy_syspm.h **** 
1399:Generated_Source\PSoC6\pdl\drivers/peripheral/syspm/cy_syspm.h **** /**
1400:Generated_Source\PSoC6\pdl\drivers/peripheral/syspm/cy_syspm.h **** * This enumeration is used to select the output voltage for the Buck regulator
1401:Generated_Source\PSoC6\pdl\drivers/peripheral/syspm/cy_syspm.h **** * output 2, which can source the BLE radio.
1402:Generated_Source\PSoC6\pdl\drivers/peripheral/syspm/cy_syspm.h **** */
1403:Generated_Source\PSoC6\pdl\drivers/peripheral/syspm/cy_syspm.h **** typedef enum
1404:Generated_Source\PSoC6\pdl\drivers/peripheral/syspm/cy_syspm.h **** {
1405:Generated_Source\PSoC6\pdl\drivers/peripheral/syspm/cy_syspm.h ****     CY_SYSPM_BUCK_OUT2_VOLTAGE_1_15V = 0U,    /**< 1.15 V nominal voltage. */
1406:Generated_Source\PSoC6\pdl\drivers/peripheral/syspm/cy_syspm.h ****     CY_SYSPM_BUCK_OUT2_VOLTAGE_1_2V  = 1U,    /**< 1.20 V nominal voltage. */
1407:Generated_Source\PSoC6\pdl\drivers/peripheral/syspm/cy_syspm.h ****     CY_SYSPM_BUCK_OUT2_VOLTAGE_1_25V = 2U,    /**< 1.25 V nominal voltage. */
ARM GAS  C:\Users\guill\AppData\Local\Temp\ccSz7NWo.s 			page 36


1408:Generated_Source\PSoC6\pdl\drivers/peripheral/syspm/cy_syspm.h ****     CY_SYSPM_BUCK_OUT2_VOLTAGE_1_3V  = 3U,    /**< 1.3 V nominal voltage.  */
1409:Generated_Source\PSoC6\pdl\drivers/peripheral/syspm/cy_syspm.h ****     CY_SYSPM_BUCK_OUT2_VOLTAGE_1_35V = 4U,    /**< 1.35 V nominal voltage. */
1410:Generated_Source\PSoC6\pdl\drivers/peripheral/syspm/cy_syspm.h ****     CY_SYSPM_BUCK_OUT2_VOLTAGE_1_4V  = 5U,    /**< 1.4 V nominal voltage. */
1411:Generated_Source\PSoC6\pdl\drivers/peripheral/syspm/cy_syspm.h ****     CY_SYSPM_BUCK_OUT2_VOLTAGE_1_45V = 6U,    /**< 1.45 V nominal voltage. */
1412:Generated_Source\PSoC6\pdl\drivers/peripheral/syspm/cy_syspm.h ****     CY_SYSPM_BUCK_OUT2_VOLTAGE_1_5V  = 7U     /**< 1.5 V nominal voltage. */
1413:Generated_Source\PSoC6\pdl\drivers/peripheral/syspm/cy_syspm.h **** } cy_en_syspm_buck_voltage2_t;
1414:Generated_Source\PSoC6\pdl\drivers/peripheral/syspm/cy_syspm.h **** 
1415:Generated_Source\PSoC6\pdl\drivers/peripheral/syspm/cy_syspm.h **** /**
1416:Generated_Source\PSoC6\pdl\drivers/peripheral/syspm/cy_syspm.h **** * This enumeration is used to set the polarity for the PMIC input. The PMIC output is 
1417:Generated_Source\PSoC6\pdl\drivers/peripheral/syspm/cy_syspm.h **** * automatically enabled when the configured polarity of the PMIC input and the logic level
1418:Generated_Source\PSoC6\pdl\drivers/peripheral/syspm/cy_syspm.h **** * driven to the pmic_wakeup_in pin match.
1419:Generated_Source\PSoC6\pdl\drivers/peripheral/syspm/cy_syspm.h **** *
1420:Generated_Source\PSoC6\pdl\drivers/peripheral/syspm/cy_syspm.h **** * \warning 
1421:Generated_Source\PSoC6\pdl\drivers/peripheral/syspm/cy_syspm.h **** * Do not use CY_SYSPM_PMIC_POLARITY_LOW as it is not supported by hardware.
1422:Generated_Source\PSoC6\pdl\drivers/peripheral/syspm/cy_syspm.h **** */
1423:Generated_Source\PSoC6\pdl\drivers/peripheral/syspm/cy_syspm.h **** typedef enum
1424:Generated_Source\PSoC6\pdl\drivers/peripheral/syspm/cy_syspm.h **** {
1425:Generated_Source\PSoC6\pdl\drivers/peripheral/syspm/cy_syspm.h ****     CY_SYSPM_PMIC_POLARITY_LOW   = 0U,    /**< Set active low logic level for the PMIC input. */
1426:Generated_Source\PSoC6\pdl\drivers/peripheral/syspm/cy_syspm.h ****     CY_SYSPM_PMIC_POLARITY_HIGH  = 1U     /**< Set active high logic level for the PMIC input. */
1427:Generated_Source\PSoC6\pdl\drivers/peripheral/syspm/cy_syspm.h **** } cy_en_syspm_pmic_wakeup_polarity_t;
1428:Generated_Source\PSoC6\pdl\drivers/peripheral/syspm/cy_syspm.h **** 
1429:Generated_Source\PSoC6\pdl\drivers/peripheral/syspm/cy_syspm.h **** /** This enumeration selects Vbackup or Vddd to supply Vddbackup. */
1430:Generated_Source\PSoC6\pdl\drivers/peripheral/syspm/cy_syspm.h **** typedef enum
1431:Generated_Source\PSoC6\pdl\drivers/peripheral/syspm/cy_syspm.h **** {
1432:Generated_Source\PSoC6\pdl\drivers/peripheral/syspm/cy_syspm.h ****     CY_SYSPM_VDDBACKUP_DEFAULT         = 0U,    /**< Logic automatically selects Vddd if present or
1433:Generated_Source\PSoC6\pdl\drivers/peripheral/syspm/cy_syspm.h ****                                                      Vbackup if Vddd is not present to supply Vddba
1434:Generated_Source\PSoC6\pdl\drivers/peripheral/syspm/cy_syspm.h ****     CY_SYSPM_VDDBACKUP_VBACKUP         = 2U     /**< Sets only Vbackup to supply Vddbackup */
1435:Generated_Source\PSoC6\pdl\drivers/peripheral/syspm/cy_syspm.h **** } cy_en_syspm_vddbackup_control_t;
1436:Generated_Source\PSoC6\pdl\drivers/peripheral/syspm/cy_syspm.h **** 
1437:Generated_Source\PSoC6\pdl\drivers/peripheral/syspm/cy_syspm.h **** /** This enumeration enables supercapacitor charging. */
1438:Generated_Source\PSoC6\pdl\drivers/peripheral/syspm/cy_syspm.h **** typedef enum
1439:Generated_Source\PSoC6\pdl\drivers/peripheral/syspm/cy_syspm.h **** {
1440:Generated_Source\PSoC6\pdl\drivers/peripheral/syspm/cy_syspm.h ****     CY_SYSPM_SC_CHARGE_ENABLE     = 0x3CU,    /**< Enables supercapacitor charging */
1441:Generated_Source\PSoC6\pdl\drivers/peripheral/syspm/cy_syspm.h ****     CY_SYSPM_SC_CHARGE_DISABLE    = 0x00U     /**< Disables supercapacitor charging */
1442:Generated_Source\PSoC6\pdl\drivers/peripheral/syspm/cy_syspm.h **** } cy_en_syspm_sc_charge_key_t;
1443:Generated_Source\PSoC6\pdl\drivers/peripheral/syspm/cy_syspm.h **** 
1444:Generated_Source\PSoC6\pdl\drivers/peripheral/syspm/cy_syspm.h **** /** This enumeration configures the flash voltage bit for different system power modes. */
1445:Generated_Source\PSoC6\pdl\drivers/peripheral/syspm/cy_syspm.h **** typedef enum
1446:Generated_Source\PSoC6\pdl\drivers/peripheral/syspm/cy_syspm.h **** {
1447:Generated_Source\PSoC6\pdl\drivers/peripheral/syspm/cy_syspm.h ****     CY_SYSPM_FLASH_VOLTAGE_BIT_LP  = 0U,    /**< Set the flash voltage bit for system LP mode */
1448:Generated_Source\PSoC6\pdl\drivers/peripheral/syspm/cy_syspm.h ****     CY_SYSPM_FLASH_VOLTAGE_BIT_ULP = 1U,    /**< Set the flash voltage bit for system ULP mode */
1449:Generated_Source\PSoC6\pdl\drivers/peripheral/syspm/cy_syspm.h **** } cy_en_syspm_flash_voltage_bit_t;
1450:Generated_Source\PSoC6\pdl\drivers/peripheral/syspm/cy_syspm.h **** 
1451:Generated_Source\PSoC6\pdl\drivers/peripheral/syspm/cy_syspm.h **** /**
1452:Generated_Source\PSoC6\pdl\drivers/peripheral/syspm/cy_syspm.h **** * This enumeration is used to select the low power mode for which the
1453:Generated_Source\PSoC6\pdl\drivers/peripheral/syspm/cy_syspm.h **** * appropriate registered callback handler will be executed. For example,
1454:Generated_Source\PSoC6\pdl\drivers/peripheral/syspm/cy_syspm.h **** * the registered callback of the type CY_SYSPM_SLEEP will be executed while
1455:Generated_Source\PSoC6\pdl\drivers/peripheral/syspm/cy_syspm.h **** * switching into the Sleep power mode.
1456:Generated_Source\PSoC6\pdl\drivers/peripheral/syspm/cy_syspm.h **** */
1457:Generated_Source\PSoC6\pdl\drivers/peripheral/syspm/cy_syspm.h **** typedef enum
1458:Generated_Source\PSoC6\pdl\drivers/peripheral/syspm/cy_syspm.h **** {
1459:Generated_Source\PSoC6\pdl\drivers/peripheral/syspm/cy_syspm.h ****     CY_SYSPM_SLEEP      = 0U,    /**< The Sleep enum callback type */
1460:Generated_Source\PSoC6\pdl\drivers/peripheral/syspm/cy_syspm.h ****     CY_SYSPM_DEEPSLEEP  = 1U,    /**< The Deep Sleep enum callback type */
1461:Generated_Source\PSoC6\pdl\drivers/peripheral/syspm/cy_syspm.h ****     CY_SYSPM_HIBERNATE  = 2U,    /**< The Hibernate enum callback type */
1462:Generated_Source\PSoC6\pdl\drivers/peripheral/syspm/cy_syspm.h ****     CY_SYSPM_LP         = 3U,    /**< The Low Power enum callback type */
1463:Generated_Source\PSoC6\pdl\drivers/peripheral/syspm/cy_syspm.h ****     CY_SYSPM_ULP        = 4U     /**< The Ultra Low Power enum callback type */
1464:Generated_Source\PSoC6\pdl\drivers/peripheral/syspm/cy_syspm.h **** } cy_en_syspm_callback_type_t;
ARM GAS  C:\Users\guill\AppData\Local\Temp\ccSz7NWo.s 			page 37


1465:Generated_Source\PSoC6\pdl\drivers/peripheral/syspm/cy_syspm.h **** 
1466:Generated_Source\PSoC6\pdl\drivers/peripheral/syspm/cy_syspm.h **** /** This enumeration specifies the associated callback mode. This enum defines the callback mode. *
1467:Generated_Source\PSoC6\pdl\drivers/peripheral/syspm/cy_syspm.h **** typedef enum
1468:Generated_Source\PSoC6\pdl\drivers/peripheral/syspm/cy_syspm.h **** {
1469:Generated_Source\PSoC6\pdl\drivers/peripheral/syspm/cy_syspm.h ****     CY_SYSPM_CHECK_READY        = 0x01U,    /**< Callbacks with this mode are executed before enter
1470:Generated_Source\PSoC6\pdl\drivers/peripheral/syspm/cy_syspm.h ****                                                  low power mode. The purpose of his callback functi
1471:Generated_Source\PSoC6\pdl\drivers/peripheral/syspm/cy_syspm.h ****                                                  if the device is ready to enter the low power mode
1472:Generated_Source\PSoC6\pdl\drivers/peripheral/syspm/cy_syspm.h ****     CY_SYSPM_CHECK_FAIL         = 0x02U,    /**< Callbacks with this mode are executed after the CY
1473:Generated_Source\PSoC6\pdl\drivers/peripheral/syspm/cy_syspm.h ****                                                  callbacks execution returns CY_SYSPM_FAIL. 
1474:Generated_Source\PSoC6\pdl\drivers/peripheral/syspm/cy_syspm.h ****                                                  The callback with the CY_SYSPM_CHECK_FAIL mode sho
1475:Generated_Source\PSoC6\pdl\drivers/peripheral/syspm/cy_syspm.h ****                                                  actions performed in the previously executed callb
1476:Generated_Source\PSoC6\pdl\drivers/peripheral/syspm/cy_syspm.h ****                                                  CY_SYSPM_CHECK_READY */
1477:Generated_Source\PSoC6\pdl\drivers/peripheral/syspm/cy_syspm.h ****     CY_SYSPM_BEFORE_TRANSITION  = 0x04U,    /**< Callbacks with this mode are executed after the CY
1478:Generated_Source\PSoC6\pdl\drivers/peripheral/syspm/cy_syspm.h ****                                                  callbacks execution returns CY_SYSPM_SUCCESS.
1479:Generated_Source\PSoC6\pdl\drivers/peripheral/syspm/cy_syspm.h ****                                                  Performs the actions to be done before entering in
1480:Generated_Source\PSoC6\pdl\drivers/peripheral/syspm/cy_syspm.h ****                                                  low power mode. */
1481:Generated_Source\PSoC6\pdl\drivers/peripheral/syspm/cy_syspm.h ****     CY_SYSPM_AFTER_TRANSITION   = 0x08U     /**< Performs the actions to be done after exiting the 
1482:Generated_Source\PSoC6\pdl\drivers/peripheral/syspm/cy_syspm.h ****                                                  if entered. */
1483:Generated_Source\PSoC6\pdl\drivers/peripheral/syspm/cy_syspm.h **** } cy_en_syspm_callback_mode_t;
1484:Generated_Source\PSoC6\pdl\drivers/peripheral/syspm/cy_syspm.h **** 
1485:Generated_Source\PSoC6\pdl\drivers/peripheral/syspm/cy_syspm.h **** /** \} group_syspm_data_enumerates */
1486:Generated_Source\PSoC6\pdl\drivers/peripheral/syspm/cy_syspm.h **** 
1487:Generated_Source\PSoC6\pdl\drivers/peripheral/syspm/cy_syspm.h **** /**
1488:Generated_Source\PSoC6\pdl\drivers/peripheral/syspm/cy_syspm.h **** * \addtogroup group_syspm_macros
1489:Generated_Source\PSoC6\pdl\drivers/peripheral/syspm/cy_syspm.h **** * \{
1490:Generated_Source\PSoC6\pdl\drivers/peripheral/syspm/cy_syspm.h **** */
1491:Generated_Source\PSoC6\pdl\drivers/peripheral/syspm/cy_syspm.h **** /**
1492:Generated_Source\PSoC6\pdl\drivers/peripheral/syspm/cy_syspm.h **** * \defgroup group_syspm_skip_callback_modes Defines to skip the callbacks modes
1493:Generated_Source\PSoC6\pdl\drivers/peripheral/syspm/cy_syspm.h **** * \{
1494:Generated_Source\PSoC6\pdl\drivers/peripheral/syspm/cy_syspm.h **** * Defines for the SysPm callbacks modes that can be skipped during execution.
1495:Generated_Source\PSoC6\pdl\drivers/peripheral/syspm/cy_syspm.h **** * For more information about callbacks modes, refer 
1496:Generated_Source\PSoC6\pdl\drivers/peripheral/syspm/cy_syspm.h **** * to \ref cy_en_syspm_callback_mode_t.
1497:Generated_Source\PSoC6\pdl\drivers/peripheral/syspm/cy_syspm.h **** */
1498:Generated_Source\PSoC6\pdl\drivers/peripheral/syspm/cy_syspm.h **** #define CY_SYSPM_SKIP_CHECK_READY                   (0x01U)   /**< Define to skip check ready mode 
1499:Generated_Source\PSoC6\pdl\drivers/peripheral/syspm/cy_syspm.h **** #define CY_SYSPM_SKIP_CHECK_FAIL                    (0x02U)   /**< Define to skip check fail mode i
1500:Generated_Source\PSoC6\pdl\drivers/peripheral/syspm/cy_syspm.h **** #define CY_SYSPM_SKIP_BEFORE_TRANSITION             (0x04U)   /**< Define to skip before transition
1501:Generated_Source\PSoC6\pdl\drivers/peripheral/syspm/cy_syspm.h **** #define CY_SYSPM_SKIP_AFTER_TRANSITION              (0x08U)   /**< Define to skip after transition 
1502:Generated_Source\PSoC6\pdl\drivers/peripheral/syspm/cy_syspm.h **** /** \} group_syspm_skip_callback_modes */
1503:Generated_Source\PSoC6\pdl\drivers/peripheral/syspm/cy_syspm.h **** /** \} group_syspm_macros */
1504:Generated_Source\PSoC6\pdl\drivers/peripheral/syspm/cy_syspm.h **** 
1505:Generated_Source\PSoC6\pdl\drivers/peripheral/syspm/cy_syspm.h **** /**
1506:Generated_Source\PSoC6\pdl\drivers/peripheral/syspm/cy_syspm.h **** * \addtogroup group_syspm_data_structures
1507:Generated_Source\PSoC6\pdl\drivers/peripheral/syspm/cy_syspm.h **** * \{
1508:Generated_Source\PSoC6\pdl\drivers/peripheral/syspm/cy_syspm.h **** */
1509:Generated_Source\PSoC6\pdl\drivers/peripheral/syspm/cy_syspm.h **** 
1510:Generated_Source\PSoC6\pdl\drivers/peripheral/syspm/cy_syspm.h **** /** The structure contains syspm callback parameters */
1511:Generated_Source\PSoC6\pdl\drivers/peripheral/syspm/cy_syspm.h **** typedef struct
1512:Generated_Source\PSoC6\pdl\drivers/peripheral/syspm/cy_syspm.h **** {
1513:Generated_Source\PSoC6\pdl\drivers/peripheral/syspm/cy_syspm.h ****     void *base;         /**< Base address of a HW instance, matches name of the driver in
1514:Generated_Source\PSoC6\pdl\drivers/peripheral/syspm/cy_syspm.h ****                              the API for the base address. Can be undefined if not required. Base a
1515:Generated_Source\PSoC6\pdl\drivers/peripheral/syspm/cy_syspm.h ****                              required for the SysPm driver as the device has only one set of power 
1516:Generated_Source\PSoC6\pdl\drivers/peripheral/syspm/cy_syspm.h ****     void *context;      /**< Context for the handler function. This item can be 
1517:Generated_Source\PSoC6\pdl\drivers/peripheral/syspm/cy_syspm.h ****                              skipped if not required. Can be undefined if not required. */
1518:Generated_Source\PSoC6\pdl\drivers/peripheral/syspm/cy_syspm.h **** 
1519:Generated_Source\PSoC6\pdl\drivers/peripheral/syspm/cy_syspm.h **** } cy_stc_syspm_callback_params_t;
1520:Generated_Source\PSoC6\pdl\drivers/peripheral/syspm/cy_syspm.h **** 
1521:Generated_Source\PSoC6\pdl\drivers/peripheral/syspm/cy_syspm.h **** /** The type for syspm callbacks */
ARM GAS  C:\Users\guill\AppData\Local\Temp\ccSz7NWo.s 			page 38


1522:Generated_Source\PSoC6\pdl\drivers/peripheral/syspm/cy_syspm.h **** typedef cy_en_syspm_status_t (*Cy_SysPmCallback) (cy_stc_syspm_callback_params_t *callbackParams, c
1523:Generated_Source\PSoC6\pdl\drivers/peripheral/syspm/cy_syspm.h **** 
1524:Generated_Source\PSoC6\pdl\drivers/peripheral/syspm/cy_syspm.h **** /** Structure with syspm callback configuration elements */
1525:Generated_Source\PSoC6\pdl\drivers/peripheral/syspm/cy_syspm.h **** typedef struct cy_stc_syspm_callback
1526:Generated_Source\PSoC6\pdl\drivers/peripheral/syspm/cy_syspm.h **** {
1527:Generated_Source\PSoC6\pdl\drivers/peripheral/syspm/cy_syspm.h ****     Cy_SysPmCallback callback;                         /**< The callback handler function. */
1528:Generated_Source\PSoC6\pdl\drivers/peripheral/syspm/cy_syspm.h ****     cy_en_syspm_callback_type_t type;                  /**< The callback type, see \ref cy_en_syspm
1529:Generated_Source\PSoC6\pdl\drivers/peripheral/syspm/cy_syspm.h ****     uint32_t skipMode;                                 /**< The mask of modes to be skipped during 
1530:Generated_Source\PSoC6\pdl\drivers/peripheral/syspm/cy_syspm.h ****                                                             execution, see \ref group_syspm_skip_ca
1531:Generated_Source\PSoC6\pdl\drivers/peripheral/syspm/cy_syspm.h ****                                                             corresponding callback mode won't execu
1532:Generated_Source\PSoC6\pdl\drivers/peripheral/syspm/cy_syspm.h ****                                                             appropriate define is set. These values
1533:Generated_Source\PSoC6\pdl\drivers/peripheral/syspm/cy_syspm.h ****                                                             If all modes are required to be execute
1534:Generated_Source\PSoC6\pdl\drivers/peripheral/syspm/cy_syspm.h ****                                                             should be equal to zero. Skipping unnee
1535:Generated_Source\PSoC6\pdl\drivers/peripheral/syspm/cy_syspm.h ****                                                             power mode transitions by skipping unne
1536:Generated_Source\PSoC6\pdl\drivers/peripheral/syspm/cy_syspm.h **** 
1537:Generated_Source\PSoC6\pdl\drivers/peripheral/syspm/cy_syspm.h ****     cy_stc_syspm_callback_params_t *callbackParams;    /**< The address of a cy_stc_syspm_callback_
1538:Generated_Source\PSoC6\pdl\drivers/peripheral/syspm/cy_syspm.h ****                                                             the callback is executed with these par
1539:Generated_Source\PSoC6\pdl\drivers/peripheral/syspm/cy_syspm.h **** 
1540:Generated_Source\PSoC6\pdl\drivers/peripheral/syspm/cy_syspm.h ****     struct cy_stc_syspm_callback *prevItm;             /**< The previous list item. This element sh
1541:Generated_Source\PSoC6\pdl\drivers/peripheral/syspm/cy_syspm.h ****                                                             defined, or defined as NULL. It is for 
1542:Generated_Source\PSoC6\pdl\drivers/peripheral/syspm/cy_syspm.h ****                                                             usage to link this structure to the nex
1543:Generated_Source\PSoC6\pdl\drivers/peripheral/syspm/cy_syspm.h ****                                                             structure. It will be updated during ca
1544:Generated_Source\PSoC6\pdl\drivers/peripheral/syspm/cy_syspm.h ****                                                             registration. Do not modify this elemen
1545:Generated_Source\PSoC6\pdl\drivers/peripheral/syspm/cy_syspm.h ****                                                             
1546:Generated_Source\PSoC6\pdl\drivers/peripheral/syspm/cy_syspm.h ****     struct cy_stc_syspm_callback *nextItm;             /**< The next list item. This element should
1547:Generated_Source\PSoC6\pdl\drivers/peripheral/syspm/cy_syspm.h ****                                                             defined, or defined as NULL. It is for 
1548:Generated_Source\PSoC6\pdl\drivers/peripheral/syspm/cy_syspm.h ****                                                             link this structure to the previous reg
1549:Generated_Source\PSoC6\pdl\drivers/peripheral/syspm/cy_syspm.h ****                                                             It will be updated during callback regi
1550:Generated_Source\PSoC6\pdl\drivers/peripheral/syspm/cy_syspm.h ****                                                             modify this element at run-time. */
1551:Generated_Source\PSoC6\pdl\drivers/peripheral/syspm/cy_syspm.h **** } cy_stc_syspm_callback_t;
1552:Generated_Source\PSoC6\pdl\drivers/peripheral/syspm/cy_syspm.h **** 
1553:Generated_Source\PSoC6\pdl\drivers/peripheral/syspm/cy_syspm.h **** /** This internal structure stores non-retained registers in the system Deep Sleep
1554:Generated_Source\PSoC6\pdl\drivers/peripheral/syspm/cy_syspm.h **** *   power mode. On wakeup from system Deep Sleep, these registers are restored.
1555:Generated_Source\PSoC6\pdl\drivers/peripheral/syspm/cy_syspm.h **** */
1556:Generated_Source\PSoC6\pdl\drivers/peripheral/syspm/cy_syspm.h **** typedef struct
1557:Generated_Source\PSoC6\pdl\drivers/peripheral/syspm/cy_syspm.h **** {
1558:Generated_Source\PSoC6\pdl\drivers/peripheral/syspm/cy_syspm.h ****     uint32_t CY_SYSPM_UDB_UDBIF_BANK_CTL_REG;    /**< UDB interface control register */
1559:Generated_Source\PSoC6\pdl\drivers/peripheral/syspm/cy_syspm.h **** 
1560:Generated_Source\PSoC6\pdl\drivers/peripheral/syspm/cy_syspm.h ****     uint32_t CY_SYSPM_UDB_BCTL_MDCLK_EN_REG;    /**< UDB bank MDCLK_EN register */
1561:Generated_Source\PSoC6\pdl\drivers/peripheral/syspm/cy_syspm.h ****     uint32_t CY_SYSPM_UDB_BCTL_MBCLK_EN_REG;    /**< UDB bank MBCLK_EN register */
1562:Generated_Source\PSoC6\pdl\drivers/peripheral/syspm/cy_syspm.h ****     uint32_t CY_SYSPM_UDB_BCTL_BOTSEL_L_REG;    /**< UDB bank BOTSEL_L register */
1563:Generated_Source\PSoC6\pdl\drivers/peripheral/syspm/cy_syspm.h ****     uint32_t CY_SYSPM_UDB_BCTL_BOTSEL_U_REG;    /**< UDB bank BOTSEL_U register */
1564:Generated_Source\PSoC6\pdl\drivers/peripheral/syspm/cy_syspm.h ****     uint32_t CY_SYSPM_UDB_BCTL_QCLK_EN0_REG;    /**< UDB bank QCLK_EN0 register */
1565:Generated_Source\PSoC6\pdl\drivers/peripheral/syspm/cy_syspm.h ****     uint32_t CY_SYSPM_UDB_BCTL_QCLK_EN1_REG;    /**< UDB bank QCLK_EN1 register */
1566:Generated_Source\PSoC6\pdl\drivers/peripheral/syspm/cy_syspm.h ****     uint32_t CY_SYSPM_UDB_BCTL_QCLK_EN2_REG;    /**< UDB bank QCLK_EN2 register */
1567:Generated_Source\PSoC6\pdl\drivers/peripheral/syspm/cy_syspm.h **** } cy_stc_syspm_backup_regs_t;
1568:Generated_Source\PSoC6\pdl\drivers/peripheral/syspm/cy_syspm.h **** /** \} group_syspm_data_structures */
1569:Generated_Source\PSoC6\pdl\drivers/peripheral/syspm/cy_syspm.h **** 
1570:Generated_Source\PSoC6\pdl\drivers/peripheral/syspm/cy_syspm.h **** /**
1571:Generated_Source\PSoC6\pdl\drivers/peripheral/syspm/cy_syspm.h **** * \addtogroup group_syspm_functions
1572:Generated_Source\PSoC6\pdl\drivers/peripheral/syspm/cy_syspm.h **** * \{
1573:Generated_Source\PSoC6\pdl\drivers/peripheral/syspm/cy_syspm.h **** */
1574:Generated_Source\PSoC6\pdl\drivers/peripheral/syspm/cy_syspm.h **** 
1575:Generated_Source\PSoC6\pdl\drivers/peripheral/syspm/cy_syspm.h **** /**
1576:Generated_Source\PSoC6\pdl\drivers/peripheral/syspm/cy_syspm.h **** * \addtogroup group_syspm_functions_general
1577:Generated_Source\PSoC6\pdl\drivers/peripheral/syspm/cy_syspm.h **** * \{
1578:Generated_Source\PSoC6\pdl\drivers/peripheral/syspm/cy_syspm.h **** */
ARM GAS  C:\Users\guill\AppData\Local\Temp\ccSz7NWo.s 			page 39


1579:Generated_Source\PSoC6\pdl\drivers/peripheral/syspm/cy_syspm.h **** cy_en_syspm_status_t Cy_SysPm_WriteVoltageBitForFlash(cy_en_syspm_flash_voltage_bit_t value);
1580:Generated_Source\PSoC6\pdl\drivers/peripheral/syspm/cy_syspm.h **** void Cy_SysPm_SaveRegisters(cy_stc_syspm_backup_regs_t *regs);
1581:Generated_Source\PSoC6\pdl\drivers/peripheral/syspm/cy_syspm.h **** void Cy_SysPm_RestoreRegisters(cy_stc_syspm_backup_regs_t const *regs);
1582:Generated_Source\PSoC6\pdl\drivers/peripheral/syspm/cy_syspm.h **** /** \} group_syspm_functions_general */
1583:Generated_Source\PSoC6\pdl\drivers/peripheral/syspm/cy_syspm.h **** 
1584:Generated_Source\PSoC6\pdl\drivers/peripheral/syspm/cy_syspm.h **** 
1585:Generated_Source\PSoC6\pdl\drivers/peripheral/syspm/cy_syspm.h **** /**
1586:Generated_Source\PSoC6\pdl\drivers/peripheral/syspm/cy_syspm.h **** * \addtogroup group_syspm_functions_power_status
1587:Generated_Source\PSoC6\pdl\drivers/peripheral/syspm/cy_syspm.h **** * \{
1588:Generated_Source\PSoC6\pdl\drivers/peripheral/syspm/cy_syspm.h **** */
1589:Generated_Source\PSoC6\pdl\drivers/peripheral/syspm/cy_syspm.h **** 
1590:Generated_Source\PSoC6\pdl\drivers/peripheral/syspm/cy_syspm.h **** __STATIC_INLINE bool Cy_SysPm_Cm4IsActive(void);
1591:Generated_Source\PSoC6\pdl\drivers/peripheral/syspm/cy_syspm.h **** __STATIC_INLINE bool Cy_SysPm_Cm4IsSleep(void);
1592:Generated_Source\PSoC6\pdl\drivers/peripheral/syspm/cy_syspm.h **** __STATIC_INLINE bool Cy_SysPm_Cm4IsDeepSleep(void);
1593:Generated_Source\PSoC6\pdl\drivers/peripheral/syspm/cy_syspm.h **** 
1594:Generated_Source\PSoC6\pdl\drivers/peripheral/syspm/cy_syspm.h **** __STATIC_INLINE bool Cy_SysPm_Cm0IsActive(void);
1595:Generated_Source\PSoC6\pdl\drivers/peripheral/syspm/cy_syspm.h **** __STATIC_INLINE bool Cy_SysPm_Cm0IsSleep(void);
1596:Generated_Source\PSoC6\pdl\drivers/peripheral/syspm/cy_syspm.h **** __STATIC_INLINE bool Cy_SysPm_Cm0IsDeepSleep(void);
1597:Generated_Source\PSoC6\pdl\drivers/peripheral/syspm/cy_syspm.h **** __STATIC_INLINE bool Cy_SysPm_IsSystemLp(void);
1598:Generated_Source\PSoC6\pdl\drivers/peripheral/syspm/cy_syspm.h **** __STATIC_INLINE bool Cy_SysPm_IsSystemUlp(void);
1599:Generated_Source\PSoC6\pdl\drivers/peripheral/syspm/cy_syspm.h **** 
1600:Generated_Source\PSoC6\pdl\drivers/peripheral/syspm/cy_syspm.h **** uint32_t Cy_SysPm_ReadStatus(void);
1601:Generated_Source\PSoC6\pdl\drivers/peripheral/syspm/cy_syspm.h **** /** \} group_syspm_functions_power_status */
1602:Generated_Source\PSoC6\pdl\drivers/peripheral/syspm/cy_syspm.h **** 
1603:Generated_Source\PSoC6\pdl\drivers/peripheral/syspm/cy_syspm.h **** /**
1604:Generated_Source\PSoC6\pdl\drivers/peripheral/syspm/cy_syspm.h **** * \addtogroup group_syspm_functions_power
1605:Generated_Source\PSoC6\pdl\drivers/peripheral/syspm/cy_syspm.h **** * \{
1606:Generated_Source\PSoC6\pdl\drivers/peripheral/syspm/cy_syspm.h **** */
1607:Generated_Source\PSoC6\pdl\drivers/peripheral/syspm/cy_syspm.h **** cy_en_syspm_status_t Cy_SysPm_CpuEnterSleep(cy_en_syspm_waitfor_t waitFor);
1608:Generated_Source\PSoC6\pdl\drivers/peripheral/syspm/cy_syspm.h **** cy_en_syspm_status_t Cy_SysPm_CpuEnterDeepSleep(cy_en_syspm_waitfor_t waitFor);
1609:Generated_Source\PSoC6\pdl\drivers/peripheral/syspm/cy_syspm.h **** cy_en_syspm_status_t Cy_SysPm_SystemEnterLp(void);
1610:Generated_Source\PSoC6\pdl\drivers/peripheral/syspm/cy_syspm.h **** cy_en_syspm_status_t Cy_SysPm_SystemEnterUlp(void);
1611:Generated_Source\PSoC6\pdl\drivers/peripheral/syspm/cy_syspm.h **** cy_en_syspm_status_t Cy_SysPm_SystemEnterHibernate(void);
1612:Generated_Source\PSoC6\pdl\drivers/peripheral/syspm/cy_syspm.h **** 
1613:Generated_Source\PSoC6\pdl\drivers/peripheral/syspm/cy_syspm.h **** void Cy_SysPm_SetHibernateWakeupSource(uint32_t wakeupSource);
