ARM GAS  C:\Users\guill\AppData\Local\Temp\ccKdZhTR.s 			page 1


   1              		.syntax unified
   2              		.cpu cortex-m4
   3              		.eabi_attribute 27, 1
   4              		.fpu fpv4-sp-d16
   5              		.eabi_attribute 20, 1
   6              		.eabi_attribute 21, 1
   7              		.eabi_attribute 23, 3
   8              		.eabi_attribute 24, 1
   9              		.eabi_attribute 25, 1
  10              		.eabi_attribute 26, 1
  11              		.eabi_attribute 30, 1
  12              		.eabi_attribute 34, 1
  13              		.eabi_attribute 18, 4
  14              		.thumb
  15              		.syntax unified
  16              		.file	"cy_ble_gap.c"
  17              		.text
  18              	.Ltext0:
  19              		.cfi_sections	.debug_frame
  20              		.section	.text.Cy_BLE_ServiceInit,"ax",%progbits
  21              		.align	2
  22              		.global	Cy_BLE_ServiceInit
  23              		.thumb
  24              		.thumb_func
  25              		.type	Cy_BLE_ServiceInit, %function
  26              	Cy_BLE_ServiceInit:
  27              	.LFB256:
  28              		.file 1 "Generated_Source\\PSoC6\\pdl\\middleware\\ble\\cy_ble_gap.c"
   1:Generated_Source\PSoC6\pdl\middleware\ble/cy_ble_gap.c **** /***************************************************************************//**
   2:Generated_Source\PSoC6\pdl\middleware\ble/cy_ble_gap.c **** * \file cy_ble_gap.c
   3:Generated_Source\PSoC6\pdl\middleware\ble/cy_ble_gap.c **** * \version 2.60
   4:Generated_Source\PSoC6\pdl\middleware\ble/cy_ble_gap.c **** *
   5:Generated_Source\PSoC6\pdl\middleware\ble/cy_ble_gap.c **** * \brief
   6:Generated_Source\PSoC6\pdl\middleware\ble/cy_ble_gap.c **** *  This file contains the source code for the GAP API of the BLE Middleware.
   7:Generated_Source\PSoC6\pdl\middleware\ble/cy_ble_gap.c **** *
   8:Generated_Source\PSoC6\pdl\middleware\ble/cy_ble_gap.c **** ********************************************************************************
   9:Generated_Source\PSoC6\pdl\middleware\ble/cy_ble_gap.c **** * \copyright
  10:Generated_Source\PSoC6\pdl\middleware\ble/cy_ble_gap.c **** * Copyright 2017-2020, Cypress Semiconductor Corporation.  All rights reserved.
  11:Generated_Source\PSoC6\pdl\middleware\ble/cy_ble_gap.c **** * You may use this file only in accordance with the license, terms, conditions,
  12:Generated_Source\PSoC6\pdl\middleware\ble/cy_ble_gap.c **** * disclaimers, and limitations in the end user license agreement accompanying
  13:Generated_Source\PSoC6\pdl\middleware\ble/cy_ble_gap.c **** * the software package with which this file was provided.
  14:Generated_Source\PSoC6\pdl\middleware\ble/cy_ble_gap.c **** *******************************************************************************/
  15:Generated_Source\PSoC6\pdl\middleware\ble/cy_ble_gap.c **** 
  16:Generated_Source\PSoC6\pdl\middleware\ble/cy_ble_gap.c **** #include "cy_ble_event_handler.h"
  17:Generated_Source\PSoC6\pdl\middleware\ble/cy_ble_gap.c **** /* C binding of definitions if building with C++ compiler */
  18:Generated_Source\PSoC6\pdl\middleware\ble/cy_ble_gap.c **** #ifdef __cplusplus
  19:Generated_Source\PSoC6\pdl\middleware\ble/cy_ble_gap.c **** extern "C" {
  20:Generated_Source\PSoC6\pdl\middleware\ble/cy_ble_gap.c **** #endif /* __cplusplus */
  21:Generated_Source\PSoC6\pdl\middleware\ble/cy_ble_gap.c **** 
  22:Generated_Source\PSoC6\pdl\middleware\ble/cy_ble_gap.c **** #if (CY_BLE_MODE_PROFILE)
  23:Generated_Source\PSoC6\pdl\middleware\ble/cy_ble_gap.c **** 
  24:Generated_Source\PSoC6\pdl\middleware\ble/cy_ble_gap.c **** #include "cy_ble.h"
  25:Generated_Source\PSoC6\pdl\middleware\ble/cy_ble_gap.c **** #include "cy_ble_hal_pvt.h"
  26:Generated_Source\PSoC6\pdl\middleware\ble/cy_ble_gap.c **** #include <stdlib.h>
  27:Generated_Source\PSoC6\pdl\middleware\ble/cy_ble_gap.c **** 
  28:Generated_Source\PSoC6\pdl\middleware\ble/cy_ble_gap.c **** /***************************************
  29:Generated_Source\PSoC6\pdl\middleware\ble/cy_ble_gap.c **** * Function Prototypes
ARM GAS  C:\Users\guill\AppData\Local\Temp\ccKdZhTR.s 			page 2


  30:Generated_Source\PSoC6\pdl\middleware\ble/cy_ble_gap.c **** ***************************************/
  31:Generated_Source\PSoC6\pdl\middleware\ble/cy_ble_gap.c **** 
  32:Generated_Source\PSoC6\pdl\middleware\ble/cy_ble_gap.c **** #if (CY_BLE_GATT_ROLE_SERVER)
  33:Generated_Source\PSoC6\pdl\middleware\ble/cy_ble_gap.c ****     #if (CY_BLE_GAP_ROLE_PERIPHERAL)
  34:Generated_Source\PSoC6\pdl\middleware\ble/cy_ble_gap.c **** static void Cy_BLE_ChangeAdLocalName(const char8 name[], uint8_t dest);
  35:Generated_Source\PSoC6\pdl\middleware\ble/cy_ble_gap.c ****     #endif /* (CY_BLE_GAP_ROLE_PERIPHERAL) */
  36:Generated_Source\PSoC6\pdl\middleware\ble/cy_ble_gap.c **** #endif     /* (CY_BLE_GATT_ROLE_SERVER) */
  37:Generated_Source\PSoC6\pdl\middleware\ble/cy_ble_gap.c **** 
  38:Generated_Source\PSoC6\pdl\middleware\ble/cy_ble_gap.c **** 
  39:Generated_Source\PSoC6\pdl\middleware\ble/cy_ble_gap.c **** /***************************************
  40:Generated_Source\PSoC6\pdl\middleware\ble/cy_ble_gap.c **** * Global Variables
  41:Generated_Source\PSoC6\pdl\middleware\ble/cy_ble_gap.c **** ***************************************/
  42:Generated_Source\PSoC6\pdl\middleware\ble/cy_ble_gap.c **** 
  43:Generated_Source\PSoC6\pdl\middleware\ble/cy_ble_gap.c **** cy_en_ble_state_t cy_ble_state;
  44:Generated_Source\PSoC6\pdl\middleware\ble/cy_ble_gap.c **** 
  45:Generated_Source\PSoC6\pdl\middleware\ble/cy_ble_gap.c **** #if (CY_BLE_GAP_ROLE_PERIPHERAL || CY_BLE_GAP_ROLE_BROADCASTER)
  46:Generated_Source\PSoC6\pdl\middleware\ble/cy_ble_gap.c **** cy_en_ble_adv_state_t cy_ble_advState;
  47:Generated_Source\PSoC6\pdl\middleware\ble/cy_ble_gap.c **** uint8_t cy_ble_advIndex;
  48:Generated_Source\PSoC6\pdl\middleware\ble/cy_ble_gap.c **** #endif  /* (CY_BLE_GAP_ROLE_PERIPHERAL || CY_BLE_GAP_ROLE_BROADCASTER) */
  49:Generated_Source\PSoC6\pdl\middleware\ble/cy_ble_gap.c **** 
  50:Generated_Source\PSoC6\pdl\middleware\ble/cy_ble_gap.c **** #if (CY_BLE_GAP_ROLE_CENTRAL || CY_BLE_GAP_ROLE_OBSERVER)
  51:Generated_Source\PSoC6\pdl\middleware\ble/cy_ble_gap.c **** cy_en_ble_scan_state_t cy_ble_scanState;
  52:Generated_Source\PSoC6\pdl\middleware\ble/cy_ble_gap.c **** uint8_t cy_ble_scanIndex;
  53:Generated_Source\PSoC6\pdl\middleware\ble/cy_ble_gap.c **** #endif /* (CY_BLE_GAP_ROLE_CENTRAL || CY_BLE_GAP_ROLE_OBSERVER) */
  54:Generated_Source\PSoC6\pdl\middleware\ble/cy_ble_gap.c **** 
  55:Generated_Source\PSoC6\pdl\middleware\ble/cy_ble_gap.c **** #if ((CY_BLE_GAP_ROLE_PERIPHERAL || CY_BLE_GAP_ROLE_CENTRAL))
  56:Generated_Source\PSoC6\pdl\middleware\ble/cy_ble_gap.c **** 
  57:Generated_Source\PSoC6\pdl\middleware\ble/cy_ble_gap.c **** /**
  58:Generated_Source\PSoC6\pdl\middleware\ble/cy_ble_gap.c ****  * \addtogroup group_ble_common_api_global_variables
  59:Generated_Source\PSoC6\pdl\middleware\ble/cy_ble_gap.c ****  * @{
  60:Generated_Source\PSoC6\pdl\middleware\ble/cy_ble_gap.c ****  */    
  61:Generated_Source\PSoC6\pdl\middleware\ble/cy_ble_gap.c **** /** 
  62:Generated_Source\PSoC6\pdl\middleware\ble/cy_ble_gap.c ****  * This global variable is initialized after connection with peer device,
  63:Generated_Source\PSoC6\pdl\middleware\ble/cy_ble_gap.c ****  * after CY_BLE_EVT_GATT_CONNECT_IND event, and could be used by application code
  64:Generated_Source\PSoC6\pdl\middleware\ble/cy_ble_gap.c ****  * to send data to peer device.
  65:Generated_Source\PSoC6\pdl\middleware\ble/cy_ble_gap.c ****  */
  66:Generated_Source\PSoC6\pdl\middleware\ble/cy_ble_gap.c **** cy_stc_ble_conn_handle_t cy_ble_connHandle[CY_BLE_CONN_COUNT];
  67:Generated_Source\PSoC6\pdl\middleware\ble/cy_ble_gap.c **** /** @} group_ble_common_api_global_variables */
  68:Generated_Source\PSoC6\pdl\middleware\ble/cy_ble_gap.c **** 
  69:Generated_Source\PSoC6\pdl\middleware\ble/cy_ble_gap.c **** cy_en_ble_conn_state_t cy_ble_connState[CY_BLE_CONN_COUNT];
  70:Generated_Source\PSoC6\pdl\middleware\ble/cy_ble_gap.c **** 
  71:Generated_Source\PSoC6\pdl\middleware\ble/cy_ble_gap.c **** volatile uint8_t cy_ble_devConnRole[CY_BLE_CONN_COUNT] = {0u}; /* Store information that device con
  72:Generated_Source\PSoC6\pdl\middleware\ble/cy_ble_gap.c ****                                                                 * CY_BLE_GAP_LL_ROLE_SLAVE or CY_BL
  73:Generated_Source\PSoC6\pdl\middleware\ble/cy_ble_gap.c ****                                                                 */
  74:Generated_Source\PSoC6\pdl\middleware\ble/cy_ble_gap.c **** 
  75:Generated_Source\PSoC6\pdl\middleware\ble/cy_ble_gap.c **** volatile bool cy_ble_pairStatus[CY_BLE_CONN_COUNT] = { 0u };  /* Store information is device paired
  76:Generated_Source\PSoC6\pdl\middleware\ble/cy_ble_gap.c **** 
  77:Generated_Source\PSoC6\pdl\middleware\ble/cy_ble_gap.c **** #if (CY_BLE_BONDING_REQUIREMENT == CY_BLE_BONDING_YES)
  78:Generated_Source\PSoC6\pdl\middleware\ble/cy_ble_gap.c **** uint8_t cy_ble_peerBonding[CY_BLE_CONN_COUNT];
  79:Generated_Source\PSoC6\pdl\middleware\ble/cy_ble_gap.c **** uint8_t cy_ble_pendingFlashWrite;
  80:Generated_Source\PSoC6\pdl\middleware\ble/cy_ble_gap.c **** 
  81:Generated_Source\PSoC6\pdl\middleware\ble/cy_ble_gap.c **** #if (CY_BLE_GATT_DB_CCCD_COUNT != 0u)
  82:Generated_Source\PSoC6\pdl\middleware\ble/cy_ble_gap.c **** static uint8_t cy_ble_pendingFlashClearCccdHandle;
  83:Generated_Source\PSoC6\pdl\middleware\ble/cy_ble_gap.c **** #endif /* CY_BLE_GATT_DB_CCCD_COUNT != 0u */
  84:Generated_Source\PSoC6\pdl\middleware\ble/cy_ble_gap.c **** 
  85:Generated_Source\PSoC6\pdl\middleware\ble/cy_ble_gap.c **** #endif /* (CY_BLE_BONDING_REQUIREMENT == CY_BLE_BONDING_YES) */
  86:Generated_Source\PSoC6\pdl\middleware\ble/cy_ble_gap.c **** #endif /* (CY_BLE_BONDING_REQUIREMENT == CY_BLE_BONDING_YES) */
ARM GAS  C:\Users\guill\AppData\Local\Temp\ccKdZhTR.s 			page 3


  87:Generated_Source\PSoC6\pdl\middleware\ble/cy_ble_gap.c **** 
  88:Generated_Source\PSoC6\pdl\middleware\ble/cy_ble_gap.c **** #if (CY_BLE_GAP_ROLE_CENTRAL)
  89:Generated_Source\PSoC6\pdl\middleware\ble/cy_ble_gap.c **** 
  90:Generated_Source\PSoC6\pdl\middleware\ble/cy_ble_gap.c **** cy_stc_ble_gapc_conn_info_t cy_ble_connectionParameters;
  91:Generated_Source\PSoC6\pdl\middleware\ble/cy_ble_gap.c **** 
  92:Generated_Source\PSoC6\pdl\middleware\ble/cy_ble_gap.c **** /* Connecting timeout is set to 30 seconds in Cy_BLE_Init function.
  93:Generated_Source\PSoC6\pdl\middleware\ble/cy_ble_gap.c ****  * Not zero value starts timer in Cy_BLE_GAPC_ConnectDevice().
  94:Generated_Source\PSoC6\pdl\middleware\ble/cy_ble_gap.c ****  */
  95:Generated_Source\PSoC6\pdl\middleware\ble/cy_ble_gap.c **** cy_stc_ble_timer_info_t cy_ble_connectingTimeout;
  96:Generated_Source\PSoC6\pdl\middleware\ble/cy_ble_gap.c **** 
  97:Generated_Source\PSoC6\pdl\middleware\ble/cy_ble_gap.c **** #endif /* CY_BLE_GAP_ROLE_CENTRAL */
  98:Generated_Source\PSoC6\pdl\middleware\ble/cy_ble_gap.c **** 
  99:Generated_Source\PSoC6\pdl\middleware\ble/cy_ble_gap.c **** cy_stc_ble_gap_bd_addr_t * cy_ble_sflashDeviceAddress = CY_BLE_SFLASH_DEVICE_ADDRESS_PTR;
 100:Generated_Source\PSoC6\pdl\middleware\ble/cy_ble_gap.c **** 
 101:Generated_Source\PSoC6\pdl\middleware\ble/cy_ble_gap.c **** 
 102:Generated_Source\PSoC6\pdl\middleware\ble/cy_ble_gap.c **** 
 103:Generated_Source\PSoC6\pdl\middleware\ble/cy_ble_gap.c **** /******************************************************************************
 104:Generated_Source\PSoC6\pdl\middleware\ble/cy_ble_gap.c **** * Function Name: Cy_BLE_ServiceInit
 105:Generated_Source\PSoC6\pdl\middleware\ble/cy_ble_gap.c **** ***************************************************************************//**
 106:Generated_Source\PSoC6\pdl\middleware\ble/cy_ble_gap.c **** *
 107:Generated_Source\PSoC6\pdl\middleware\ble/cy_ble_gap.c **** *  Initializes all included services.
 108:Generated_Source\PSoC6\pdl\middleware\ble/cy_ble_gap.c **** *
 109:Generated_Source\PSoC6\pdl\middleware\ble/cy_ble_gap.c **** * \return
 110:Generated_Source\PSoC6\pdl\middleware\ble/cy_ble_gap.c **** *  None
 111:Generated_Source\PSoC6\pdl\middleware\ble/cy_ble_gap.c **** *
 112:Generated_Source\PSoC6\pdl\middleware\ble/cy_ble_gap.c **** ******************************************************************************/
 113:Generated_Source\PSoC6\pdl\middleware\ble/cy_ble_gap.c **** void Cy_BLE_ServiceInit(void)
 114:Generated_Source\PSoC6\pdl\middleware\ble/cy_ble_gap.c **** {
  29              		.loc 1 114 0
  30              		.cfi_startproc
  31              		@ args = 0, pretend = 0, frame = 0
  32              		@ frame_needed = 0, uses_anonymous_args = 0
  33 0000 08B5     		push	{r3, lr}
  34              		.cfi_def_cfa_offset 8
  35              		.cfi_offset 3, -8
  36              		.cfi_offset 14, -4
  37              	.LVL0:
 115:Generated_Source\PSoC6\pdl\middleware\ble/cy_ble_gap.c ****     #if (CY_BLE_GATT_ROLE_CLIENT)
 116:Generated_Source\PSoC6\pdl\middleware\ble/cy_ble_gap.c ****     uint32_t idx;
 117:Generated_Source\PSoC6\pdl\middleware\ble/cy_ble_gap.c ****     for(idx = 0u; idx < CY_BLE_GATTC_COUNT; idx++)
  38              		.loc 1 117 0
  39 0002 0023     		movs	r3, #0
  40 0004 35E0     		b	.L2
  41              	.LVL1:
  42              	.L5:
 118:Generated_Source\PSoC6\pdl\middleware\ble/cy_ble_gap.c ****     {
 119:Generated_Source\PSoC6\pdl\middleware\ble/cy_ble_gap.c ****         /* Check service range before clearing to support partial discovery */
 120:Generated_Source\PSoC6\pdl\middleware\ble/cy_ble_gap.c ****         if(cy_ble_serverInfo[idx][CY_BLE_SRVI_GAP].range.startHandle == CY_BLE_GATT_INVALID_ATTR_HA
  43              		.loc 1 120 0
  44 0006 03EB4301 		add	r1, r3, r3, lsl #1
  45 000a 8A00     		lsls	r2, r1, #2
  46 000c 1D49     		ldr	r1, .L7
  47 000e 8A5A     		ldrh	r2, [r1, r2]
  48 0010 AAB9     		cbnz	r2, .L3
 121:Generated_Source\PSoC6\pdl\middleware\ble/cy_ble_gap.c ****         {
 122:Generated_Source\PSoC6\pdl\middleware\ble/cy_ble_gap.c ****             (void)memset(&cy_ble_discovery[idx].gapc, 0, sizeof(cy_stc_ble_gapc_t));
  49              		.loc 1 122 0
ARM GAS  C:\Users\guill\AppData\Local\Temp\ccKdZhTR.s 			page 4


  50 0012 03EB0312 		add	r2, r3, r3, lsl #4
  51 0016 9100     		lsls	r1, r2, #2
  52 0018 2031     		adds	r1, r1, #32
  53 001a 1B4A     		ldr	r2, .L7+4
  54 001c 1144     		add	r1, r1, r2
  55 001e 0022     		movs	r2, #0
  56 0020 C1F80620 		str	r2, [r1, #6]	@ unaligned
  57 0024 C1F80A20 		str	r2, [r1, #10]	@ unaligned
  58 0028 C1F80E20 		str	r2, [r1, #14]	@ unaligned
  59 002c 4A82     		strh	r2, [r1, #18]	@ unaligned
 123:Generated_Source\PSoC6\pdl\middleware\ble/cy_ble_gap.c **** 
 124:Generated_Source\PSoC6\pdl\middleware\ble/cy_ble_gap.c ****             /* Initialize UUID  */
 125:Generated_Source\PSoC6\pdl\middleware\ble/cy_ble_gap.c ****             cy_ble_serverInfo[idx][CY_BLE_SRVI_GAP].uuid = CY_BLE_UUID_GAP_SERVICE;
  60              		.loc 1 125 0
  61 002e 03EB4301 		add	r1, r3, r3, lsl #1
  62 0032 8A00     		lsls	r2, r1, #2
  63 0034 1349     		ldr	r1, .L7
  64 0036 0A44     		add	r2, r2, r1
  65 0038 4FF4C051 		mov	r1, #6144
  66 003c 9180     		strh	r1, [r2, #4]	@ movhi
  67              	.L3:
 126:Generated_Source\PSoC6\pdl\middleware\ble/cy_ble_gap.c ****         }
 127:Generated_Source\PSoC6\pdl\middleware\ble/cy_ble_gap.c **** 
 128:Generated_Source\PSoC6\pdl\middleware\ble/cy_ble_gap.c ****         /* Check service range before clearing to support partial discovery */
 129:Generated_Source\PSoC6\pdl\middleware\ble/cy_ble_gap.c ****         if(cy_ble_serverInfo[idx][CY_BLE_SRVI_GATT].range.startHandle == CY_BLE_GATT_INVALID_ATTR_H
  68              		.loc 1 129 0
  69 003e 03EB4301 		add	r1, r3, r3, lsl #1
  70 0042 8A00     		lsls	r2, r1, #2
  71 0044 0F49     		ldr	r1, .L7
  72 0046 0A44     		add	r2, r2, r1
  73 0048 D288     		ldrh	r2, [r2, #6]
  74 004a 8AB9     		cbnz	r2, .L4
 130:Generated_Source\PSoC6\pdl\middleware\ble/cy_ble_gap.c ****         {
 131:Generated_Source\PSoC6\pdl\middleware\ble/cy_ble_gap.c ****             (void)memset(&cy_ble_discovery[idx].gattc, 0, sizeof(cy_stc_ble_gattc_t));
  75              		.loc 1 131 0
  76 004c 03EB0311 		add	r1, r3, r3, lsl #4
  77 0050 8A00     		lsls	r2, r1, #2
  78 0052 02F13001 		add	r1, r2, #48
  79 0056 0C4A     		ldr	r2, .L7+4
  80 0058 0A44     		add	r2, r2, r1
  81 005a 0021     		movs	r1, #0
  82 005c 5160     		str	r1, [r2, #4]	@ unaligned
  83 005e 1181     		strh	r1, [r2, #8]	@ unaligned
 132:Generated_Source\PSoC6\pdl\middleware\ble/cy_ble_gap.c **** 
 133:Generated_Source\PSoC6\pdl\middleware\ble/cy_ble_gap.c ****             /* Initialize UUID  */
 134:Generated_Source\PSoC6\pdl\middleware\ble/cy_ble_gap.c ****             cy_ble_serverInfo[idx][CY_BLE_SRVI_GATT].uuid = CY_BLE_UUID_GATT_SERVICE;
  84              		.loc 1 134 0
  85 0060 03EB4301 		add	r1, r3, r3, lsl #1
  86 0064 8A00     		lsls	r2, r1, #2
  87 0066 0749     		ldr	r1, .L7
  88 0068 0A44     		add	r2, r2, r1
  89 006a 41F60101 		movw	r1, #6145
  90 006e 5181     		strh	r1, [r2, #10]	@ movhi
  91              	.L4:
 117:Generated_Source\PSoC6\pdl\middleware\ble/cy_ble_gap.c ****     {
  92              		.loc 1 117 0 discriminator 2
  93 0070 0133     		adds	r3, r3, #1
ARM GAS  C:\Users\guill\AppData\Local\Temp\ccKdZhTR.s 			page 5


  94              	.LVL2:
  95              	.L2:
 117:Generated_Source\PSoC6\pdl\middleware\ble/cy_ble_gap.c ****     {
  96              		.loc 1 117 0 is_stmt 0 discriminator 1
  97 0072 002B     		cmp	r3, #0
  98 0074 C7D0     		beq	.L5
 135:Generated_Source\PSoC6\pdl\middleware\ble/cy_ble_gap.c ****         }
 136:Generated_Source\PSoC6\pdl\middleware\ble/cy_ble_gap.c **** 
 137:Generated_Source\PSoC6\pdl\middleware\ble/cy_ble_gap.c ****         #ifdef CY_BLE_IPSS_CLIENT
 138:Generated_Source\PSoC6\pdl\middleware\ble/cy_ble_gap.c ****         cy_ble_serverInfo[idx][CY_BLE_SRVI_IPSS].uuid = CY_BLE_UUID_INTERNET_PROTOCOL_SUPPORT_SERVI
 139:Generated_Source\PSoC6\pdl\middleware\ble/cy_ble_gap.c ****         #endif /* CY_BLE_IPSS_CLIENT */
 140:Generated_Source\PSoC6\pdl\middleware\ble/cy_ble_gap.c ****     }
 141:Generated_Source\PSoC6\pdl\middleware\ble/cy_ble_gap.c ****     #endif     /* CY_BLE_GATT_ROLE_CLIENT */
 142:Generated_Source\PSoC6\pdl\middleware\ble/cy_ble_gap.c **** 
 143:Generated_Source\PSoC6\pdl\middleware\ble/cy_ble_gap.c ****     #ifdef CY_BLE_ANCS
 144:Generated_Source\PSoC6\pdl\middleware\ble/cy_ble_gap.c ****     (void)Cy_BLE_ANCS_Init(&cy_ble_ancsConfig);
 145:Generated_Source\PSoC6\pdl\middleware\ble/cy_ble_gap.c ****     #endif /* CY_BLE_ANCS */
 146:Generated_Source\PSoC6\pdl\middleware\ble/cy_ble_gap.c **** 
 147:Generated_Source\PSoC6\pdl\middleware\ble/cy_ble_gap.c ****     #ifdef CY_BLE_ANS
 148:Generated_Source\PSoC6\pdl\middleware\ble/cy_ble_gap.c ****     (void)Cy_BLE_ANS_Init(&cy_ble_ansConfig);
 149:Generated_Source\PSoC6\pdl\middleware\ble/cy_ble_gap.c ****     #endif /* CY_BLE_ANS */
 150:Generated_Source\PSoC6\pdl\middleware\ble/cy_ble_gap.c **** 
 151:Generated_Source\PSoC6\pdl\middleware\ble/cy_ble_gap.c ****     #ifdef CY_BLE_AIOS
 152:Generated_Source\PSoC6\pdl\middleware\ble/cy_ble_gap.c ****     (void)Cy_BLE_AIOS_Init(&cy_ble_aiosConfig);
 153:Generated_Source\PSoC6\pdl\middleware\ble/cy_ble_gap.c ****     #endif /* CY_BLE_AIOS */
 154:Generated_Source\PSoC6\pdl\middleware\ble/cy_ble_gap.c **** 
 155:Generated_Source\PSoC6\pdl\middleware\ble/cy_ble_gap.c ****     #ifdef CY_BLE_BAS
 156:Generated_Source\PSoC6\pdl\middleware\ble/cy_ble_gap.c ****     (void)Cy_BLE_BAS_Init(&cy_ble_basConfig);
 157:Generated_Source\PSoC6\pdl\middleware\ble/cy_ble_gap.c ****     #endif /* CY_BLE_BAS */
 158:Generated_Source\PSoC6\pdl\middleware\ble/cy_ble_gap.c **** 
 159:Generated_Source\PSoC6\pdl\middleware\ble/cy_ble_gap.c ****     #ifdef CY_BLE_BCS
 160:Generated_Source\PSoC6\pdl\middleware\ble/cy_ble_gap.c ****     (void)Cy_BLE_BCS_Init(&cy_ble_bcsConfig);
 161:Generated_Source\PSoC6\pdl\middleware\ble/cy_ble_gap.c ****     #endif /* CY_BLE_BCS */
 162:Generated_Source\PSoC6\pdl\middleware\ble/cy_ble_gap.c **** 
 163:Generated_Source\PSoC6\pdl\middleware\ble/cy_ble_gap.c ****     #ifdef CY_BLE_BLS
 164:Generated_Source\PSoC6\pdl\middleware\ble/cy_ble_gap.c ****     (void)Cy_BLE_BLS_Init(&cy_ble_blsConfig);
 165:Generated_Source\PSoC6\pdl\middleware\ble/cy_ble_gap.c ****     #endif /* CY_BLE_BLS */
 166:Generated_Source\PSoC6\pdl\middleware\ble/cy_ble_gap.c **** 
 167:Generated_Source\PSoC6\pdl\middleware\ble/cy_ble_gap.c ****     #ifdef CY_BLE_BMS
 168:Generated_Source\PSoC6\pdl\middleware\ble/cy_ble_gap.c ****     (void)Cy_BLE_BMS_Init(&cy_ble_bmsConfig);
 169:Generated_Source\PSoC6\pdl\middleware\ble/cy_ble_gap.c ****     #endif /* CY_BLE_BMS */
 170:Generated_Source\PSoC6\pdl\middleware\ble/cy_ble_gap.c **** 
 171:Generated_Source\PSoC6\pdl\middleware\ble/cy_ble_gap.c ****     #ifdef CY_BLE_BTS
 172:Generated_Source\PSoC6\pdl\middleware\ble/cy_ble_gap.c ****     (void)Cy_BLE_BTS_Init(&cy_ble_btsConfig);
 173:Generated_Source\PSoC6\pdl\middleware\ble/cy_ble_gap.c ****     #endif /* CY_BLE_BTS */
 174:Generated_Source\PSoC6\pdl\middleware\ble/cy_ble_gap.c **** 
 175:Generated_Source\PSoC6\pdl\middleware\ble/cy_ble_gap.c ****     #ifdef CY_BLE_CGMS
 176:Generated_Source\PSoC6\pdl\middleware\ble/cy_ble_gap.c ****     (void)Cy_BLE_CGMS_Init(&cy_ble_cgmsConfig);
 177:Generated_Source\PSoC6\pdl\middleware\ble/cy_ble_gap.c ****     #endif /* CY_BLE_CGMS */
 178:Generated_Source\PSoC6\pdl\middleware\ble/cy_ble_gap.c **** 
 179:Generated_Source\PSoC6\pdl\middleware\ble/cy_ble_gap.c ****     #ifdef CY_BLE_CPS
 180:Generated_Source\PSoC6\pdl\middleware\ble/cy_ble_gap.c ****     (void)Cy_BLE_CPS_Init(&cy_ble_cpsConfig);
 181:Generated_Source\PSoC6\pdl\middleware\ble/cy_ble_gap.c ****     #endif /* CY_BLE_CPS */
 182:Generated_Source\PSoC6\pdl\middleware\ble/cy_ble_gap.c **** 
 183:Generated_Source\PSoC6\pdl\middleware\ble/cy_ble_gap.c ****     #ifdef CY_BLE_CSCS
 184:Generated_Source\PSoC6\pdl\middleware\ble/cy_ble_gap.c ****     (void)Cy_BLE_CSCS_Init(&cy_ble_cscsConfig);
 185:Generated_Source\PSoC6\pdl\middleware\ble/cy_ble_gap.c ****     #endif /* CY_BLE_CSCS */
ARM GAS  C:\Users\guill\AppData\Local\Temp\ccKdZhTR.s 			page 6


 186:Generated_Source\PSoC6\pdl\middleware\ble/cy_ble_gap.c **** 
 187:Generated_Source\PSoC6\pdl\middleware\ble/cy_ble_gap.c ****     #ifdef CY_BLE_CTS
 188:Generated_Source\PSoC6\pdl\middleware\ble/cy_ble_gap.c ****     (void)Cy_BLE_CTS_Init(&cy_ble_ctsConfig);
 189:Generated_Source\PSoC6\pdl\middleware\ble/cy_ble_gap.c ****     #endif /* CY_BLE_CTS */
 190:Generated_Source\PSoC6\pdl\middleware\ble/cy_ble_gap.c **** 
 191:Generated_Source\PSoC6\pdl\middleware\ble/cy_ble_gap.c ****     #ifdef CY_BLE_CUSTOM
 192:Generated_Source\PSoC6\pdl\middleware\ble/cy_ble_gap.c ****     (void)Cy_BLE_CUSTOM_Init(&cy_ble_customConfig);
  99              		.loc 1 192 0 is_stmt 1
 100 0076 0548     		ldr	r0, .L7+8
 101 0078 FFF7FEFF 		bl	Cy_BLE_CUSTOM_Init
 102              	.LVL3:
 193:Generated_Source\PSoC6\pdl\middleware\ble/cy_ble_gap.c ****     #endif /* CY_BLE_CUSTOM */
 194:Generated_Source\PSoC6\pdl\middleware\ble/cy_ble_gap.c **** 
 195:Generated_Source\PSoC6\pdl\middleware\ble/cy_ble_gap.c ****     #ifdef CY_BLE_DIS
 196:Generated_Source\PSoC6\pdl\middleware\ble/cy_ble_gap.c ****     (void)Cy_BLE_DIS_Init(&cy_ble_disConfig);
 103              		.loc 1 196 0
 104 007c 0448     		ldr	r0, .L7+12
 105 007e FFF7FEFF 		bl	Cy_BLE_DIS_Init
 106              	.LVL4:
 107 0082 08BD     		pop	{r3, pc}
 108              	.L8:
 109              		.align	2
 110              	.L7:
 111 0084 00000000 		.word	cy_ble_serverInfo
 112 0088 00000000 		.word	cy_ble_discovery
 113 008c 00000000 		.word	cy_ble_customConfig
 114 0090 00000000 		.word	cy_ble_disConfig
 115              		.cfi_endproc
 116              	.LFE256:
 117              		.size	Cy_BLE_ServiceInit, .-Cy_BLE_ServiceInit
 118              		.section	.text.Cy_BLE_StoreAppData,"ax",%progbits
 119              		.align	2
 120              		.global	Cy_BLE_StoreAppData
 121              		.thumb
 122              		.thumb_func
 123              		.type	Cy_BLE_StoreAppData, %function
 124              	Cy_BLE_StoreAppData:
 125              	.LFB257:
 197:Generated_Source\PSoC6\pdl\middleware\ble/cy_ble_gap.c ****     #endif /* CY_BLE_DIS */
 198:Generated_Source\PSoC6\pdl\middleware\ble/cy_ble_gap.c **** 
 199:Generated_Source\PSoC6\pdl\middleware\ble/cy_ble_gap.c ****     #ifdef CY_BLE_ESS
 200:Generated_Source\PSoC6\pdl\middleware\ble/cy_ble_gap.c ****     (void)Cy_BLE_ESS_Init(&cy_ble_essConfig);
 201:Generated_Source\PSoC6\pdl\middleware\ble/cy_ble_gap.c ****     #endif /* CY_BLE_ESS */
 202:Generated_Source\PSoC6\pdl\middleware\ble/cy_ble_gap.c **** 
 203:Generated_Source\PSoC6\pdl\middleware\ble/cy_ble_gap.c ****     #ifdef CY_BLE_GLS
 204:Generated_Source\PSoC6\pdl\middleware\ble/cy_ble_gap.c ****     (void)Cy_BLE_GLS_Init(&cy_ble_glsConfig);
 205:Generated_Source\PSoC6\pdl\middleware\ble/cy_ble_gap.c ****     #endif /* CY_BLE_GLS */
 206:Generated_Source\PSoC6\pdl\middleware\ble/cy_ble_gap.c **** 
 207:Generated_Source\PSoC6\pdl\middleware\ble/cy_ble_gap.c ****     #ifdef CY_BLE_HIDS
 208:Generated_Source\PSoC6\pdl\middleware\ble/cy_ble_gap.c ****     (void)Cy_BLE_HIDS_Init(&cy_ble_hidsConfig);
 209:Generated_Source\PSoC6\pdl\middleware\ble/cy_ble_gap.c ****     #endif /* CY_BLE_HIDS */
 210:Generated_Source\PSoC6\pdl\middleware\ble/cy_ble_gap.c **** 
 211:Generated_Source\PSoC6\pdl\middleware\ble/cy_ble_gap.c ****     #ifdef CY_BLE_HPS
 212:Generated_Source\PSoC6\pdl\middleware\ble/cy_ble_gap.c ****     (void)Cy_BLE_HPS_Init(&cy_ble_hpsConfig);
 213:Generated_Source\PSoC6\pdl\middleware\ble/cy_ble_gap.c ****     #endif /* CY_BLE_HPS */
 214:Generated_Source\PSoC6\pdl\middleware\ble/cy_ble_gap.c **** 
 215:Generated_Source\PSoC6\pdl\middleware\ble/cy_ble_gap.c ****     #ifdef CY_BLE_HRS
ARM GAS  C:\Users\guill\AppData\Local\Temp\ccKdZhTR.s 			page 7


 216:Generated_Source\PSoC6\pdl\middleware\ble/cy_ble_gap.c ****     (void)Cy_BLE_HRS_Init(&cy_ble_hrsConfig);
 217:Generated_Source\PSoC6\pdl\middleware\ble/cy_ble_gap.c ****     #endif /* CY_BLE_HRS */
 218:Generated_Source\PSoC6\pdl\middleware\ble/cy_ble_gap.c **** 
 219:Generated_Source\PSoC6\pdl\middleware\ble/cy_ble_gap.c ****     #ifdef CY_BLE_HTS
 220:Generated_Source\PSoC6\pdl\middleware\ble/cy_ble_gap.c ****     (void)Cy_BLE_HTS_Init(&cy_ble_htsConfig);
 221:Generated_Source\PSoC6\pdl\middleware\ble/cy_ble_gap.c ****     #endif /* CY_BLE_RSCS */
 222:Generated_Source\PSoC6\pdl\middleware\ble/cy_ble_gap.c **** 
 223:Generated_Source\PSoC6\pdl\middleware\ble/cy_ble_gap.c ****     #ifdef CY_BLE_IAS
 224:Generated_Source\PSoC6\pdl\middleware\ble/cy_ble_gap.c ****     (void)Cy_BLE_IAS_Init(&cy_ble_iasConfig);
 225:Generated_Source\PSoC6\pdl\middleware\ble/cy_ble_gap.c ****     #endif /* CY_BLE_IAS */
 226:Generated_Source\PSoC6\pdl\middleware\ble/cy_ble_gap.c **** 
 227:Generated_Source\PSoC6\pdl\middleware\ble/cy_ble_gap.c ****     #ifdef CY_BLE_IPS
 228:Generated_Source\PSoC6\pdl\middleware\ble/cy_ble_gap.c ****     (void)Cy_BLE_IPS_Init(&cy_ble_ipsConfig);
 229:Generated_Source\PSoC6\pdl\middleware\ble/cy_ble_gap.c ****     #endif /* CY_BLE_IPS */
 230:Generated_Source\PSoC6\pdl\middleware\ble/cy_ble_gap.c **** 
 231:Generated_Source\PSoC6\pdl\middleware\ble/cy_ble_gap.c ****     #ifdef CY_BLE_LLS
 232:Generated_Source\PSoC6\pdl\middleware\ble/cy_ble_gap.c ****     (void)Cy_BLE_LLS_Init(&cy_ble_llsConfig);
 233:Generated_Source\PSoC6\pdl\middleware\ble/cy_ble_gap.c ****     #endif /* CY_BLE_LLS */
 234:Generated_Source\PSoC6\pdl\middleware\ble/cy_ble_gap.c **** 
 235:Generated_Source\PSoC6\pdl\middleware\ble/cy_ble_gap.c ****     #ifdef CY_BLE_LNS
 236:Generated_Source\PSoC6\pdl\middleware\ble/cy_ble_gap.c ****     (void)Cy_BLE_LNS_Init(&cy_ble_lnsConfig);
 237:Generated_Source\PSoC6\pdl\middleware\ble/cy_ble_gap.c ****     #endif /* CY_BLE_LNS */
 238:Generated_Source\PSoC6\pdl\middleware\ble/cy_ble_gap.c **** 
 239:Generated_Source\PSoC6\pdl\middleware\ble/cy_ble_gap.c ****     #ifdef CY_BLE_NDCS
 240:Generated_Source\PSoC6\pdl\middleware\ble/cy_ble_gap.c ****     (void)Cy_BLE_NDCS_Init(&cy_ble_ndcsConfig);
 241:Generated_Source\PSoC6\pdl\middleware\ble/cy_ble_gap.c ****     #endif /* CY_BLE_NDCS */
 242:Generated_Source\PSoC6\pdl\middleware\ble/cy_ble_gap.c **** 
 243:Generated_Source\PSoC6\pdl\middleware\ble/cy_ble_gap.c ****     #ifdef CY_BLE_PASS
 244:Generated_Source\PSoC6\pdl\middleware\ble/cy_ble_gap.c ****     (void)Cy_BLE_PASS_Init(&cy_ble_passConfig);
 245:Generated_Source\PSoC6\pdl\middleware\ble/cy_ble_gap.c ****     #endif /* CY_BLE_PASS */
 246:Generated_Source\PSoC6\pdl\middleware\ble/cy_ble_gap.c **** 
 247:Generated_Source\PSoC6\pdl\middleware\ble/cy_ble_gap.c ****     #ifdef CY_BLE_RSCS
 248:Generated_Source\PSoC6\pdl\middleware\ble/cy_ble_gap.c ****     (void)Cy_BLE_RSCS_Init(&cy_ble_rscsConfig);
 249:Generated_Source\PSoC6\pdl\middleware\ble/cy_ble_gap.c ****     #endif /* CY_BLE_RSCS */
 250:Generated_Source\PSoC6\pdl\middleware\ble/cy_ble_gap.c **** 
 251:Generated_Source\PSoC6\pdl\middleware\ble/cy_ble_gap.c ****     #ifdef CY_BLE_PLXS
 252:Generated_Source\PSoC6\pdl\middleware\ble/cy_ble_gap.c ****     (void)Cy_BLE_PLXS_Init(&cy_ble_plxsConfig);
 253:Generated_Source\PSoC6\pdl\middleware\ble/cy_ble_gap.c ****     #endif /* CY_BLE_PLXS */
 254:Generated_Source\PSoC6\pdl\middleware\ble/cy_ble_gap.c **** 
 255:Generated_Source\PSoC6\pdl\middleware\ble/cy_ble_gap.c ****     #ifdef CY_BLE_RTUS
 256:Generated_Source\PSoC6\pdl\middleware\ble/cy_ble_gap.c ****     (void)Cy_BLE_RTUS_Init(&cy_ble_rtusConfig);
 257:Generated_Source\PSoC6\pdl\middleware\ble/cy_ble_gap.c ****     #endif /* CY_BLE_RTUS */
 258:Generated_Source\PSoC6\pdl\middleware\ble/cy_ble_gap.c **** 
 259:Generated_Source\PSoC6\pdl\middleware\ble/cy_ble_gap.c ****     #ifdef CY_BLE_SCPS
 260:Generated_Source\PSoC6\pdl\middleware\ble/cy_ble_gap.c ****     (void)Cy_BLE_SCPS_Init(&cy_ble_scpsConfig);
 261:Generated_Source\PSoC6\pdl\middleware\ble/cy_ble_gap.c ****     #endif /* CY_BLE_SCPS */
 262:Generated_Source\PSoC6\pdl\middleware\ble/cy_ble_gap.c **** 
 263:Generated_Source\PSoC6\pdl\middleware\ble/cy_ble_gap.c ****     #ifdef CY_BLE_TPS
 264:Generated_Source\PSoC6\pdl\middleware\ble/cy_ble_gap.c ****     (void)Cy_BLE_TPS_Init(&cy_ble_tpsConfig);
 265:Generated_Source\PSoC6\pdl\middleware\ble/cy_ble_gap.c ****     #endif /* CY_BLE_TPS */
 266:Generated_Source\PSoC6\pdl\middleware\ble/cy_ble_gap.c **** 
 267:Generated_Source\PSoC6\pdl\middleware\ble/cy_ble_gap.c ****     #ifdef CY_BLE_UDS
 268:Generated_Source\PSoC6\pdl\middleware\ble/cy_ble_gap.c ****     (void)Cy_BLE_UDS_Init(&cy_ble_udsConfig);
 269:Generated_Source\PSoC6\pdl\middleware\ble/cy_ble_gap.c ****     #endif /* CY_BLE_UDS */
 270:Generated_Source\PSoC6\pdl\middleware\ble/cy_ble_gap.c **** 
 271:Generated_Source\PSoC6\pdl\middleware\ble/cy_ble_gap.c ****     #ifdef CY_BLE_WPTS
 272:Generated_Source\PSoC6\pdl\middleware\ble/cy_ble_gap.c ****     (void)Cy_BLE_WPTS_Init(&cy_ble_wptsConfig);
ARM GAS  C:\Users\guill\AppData\Local\Temp\ccKdZhTR.s 			page 8


 273:Generated_Source\PSoC6\pdl\middleware\ble/cy_ble_gap.c ****     #endif /* CY_BLE_WPTS */
 274:Generated_Source\PSoC6\pdl\middleware\ble/cy_ble_gap.c **** 
 275:Generated_Source\PSoC6\pdl\middleware\ble/cy_ble_gap.c ****     #ifdef CY_BLE_WSS
 276:Generated_Source\PSoC6\pdl\middleware\ble/cy_ble_gap.c ****     (void)Cy_BLE_WSS_Init(&cy_ble_wssConfig);
 277:Generated_Source\PSoC6\pdl\middleware\ble/cy_ble_gap.c ****     #endif /* CY_BLE_WSS */
 278:Generated_Source\PSoC6\pdl\middleware\ble/cy_ble_gap.c **** }
 279:Generated_Source\PSoC6\pdl\middleware\ble/cy_ble_gap.c **** 
 280:Generated_Source\PSoC6\pdl\middleware\ble/cy_ble_gap.c **** /******************************************************************************
 281:Generated_Source\PSoC6\pdl\middleware\ble/cy_ble_gap.c **** * Function Name: Cy_BLE_StoreAppData
 282:Generated_Source\PSoC6\pdl\middleware\ble/cy_ble_gap.c **** ***************************************************************************//**
 283:Generated_Source\PSoC6\pdl\middleware\ble/cy_ble_gap.c **** *
 284:Generated_Source\PSoC6\pdl\middleware\ble/cy_ble_gap.c **** *  This function is used to back up application-specific data into the flash.
 285:Generated_Source\PSoC6\pdl\middleware\ble/cy_ble_gap.c **** *
 286:Generated_Source\PSoC6\pdl\middleware\ble/cy_ble_gap.c **** *  This function works in two Write modes: blocking or non-blocking:
 287:Generated_Source\PSoC6\pdl\middleware\ble/cy_ble_gap.c **** *  * Blocking (#CY_BLE_STORE_DATA_MODE_BLOCKING) - The function writes 
 288:Generated_Source\PSoC6\pdl\middleware\ble/cy_ble_gap.c **** *    all data from srcBuff and returns #CY_BLE_SUCCESS when finished.
 289:Generated_Source\PSoC6\pdl\middleware\ble/cy_ble_gap.c **** *  <br> 
 290:Generated_Source\PSoC6\pdl\middleware\ble/cy_ble_gap.c **** *  * Non-blocking (#CY_BLE_STORE_DATA_MODE_NON_BLOCKING) - The function initiates 
 291:Generated_Source\PSoC6\pdl\middleware\ble/cy_ble_gap.c **** *    Write data and returns #CY_BLE_INFO_FLASH_WRITE_IN_PROGRESS when the Write
 292:Generated_Source\PSoC6\pdl\middleware\ble/cy_ble_gap.c **** *    is in progress, or #CY_BLE_SUCCESS when finished. In order to write complete
 293:Generated_Source\PSoC6\pdl\middleware\ble/cy_ble_gap.c **** *    data, the application needs to continue calling this function with 
 294:Generated_Source\PSoC6\pdl\middleware\ble/cy_ble_gap.c **** *    the same input parameter (param), until this function returns CY_BLE_SUCCESS.
 295:Generated_Source\PSoC6\pdl\middleware\ble/cy_ble_gap.c **** *    The application must not change the input parameter's structure and content
 296:Generated_Source\PSoC6\pdl\middleware\ble/cy_ble_gap.c **** *    until this function returns CY_BLE_SUCCESS.
 297:Generated_Source\PSoC6\pdl\middleware\ble/cy_ble_gap.c **** *
 298:Generated_Source\PSoC6\pdl\middleware\ble/cy_ble_gap.c **** *  \param param: The parameter of type \ref cy_stc_ble_app_flash_param_t.
 299:Generated_Source\PSoC6\pdl\middleware\ble/cy_ble_gap.c **** *   * param->srcBuff:   The source buffer.
 300:Generated_Source\PSoC6\pdl\middleware\ble/cy_ble_gap.c **** *   * param->destAddr:  The destination address. The destination buffer size
 301:Generated_Source\PSoC6\pdl\middleware\ble/cy_ble_gap.c **** *                       should be greater than or equal to the source buffer.
 302:Generated_Source\PSoC6\pdl\middleware\ble/cy_ble_gap.c **** *   * param->buffLen:   The length of srcData (in bytes).
 303:Generated_Source\PSoC6\pdl\middleware\ble/cy_ble_gap.c **** *   * param->writeMode: Blocking or non-blocking Write mode.
 304:Generated_Source\PSoC6\pdl\middleware\ble/cy_ble_gap.c **** *
 305:Generated_Source\PSoC6\pdl\middleware\ble/cy_ble_gap.c **** *  param->destAddr - An array address to be defined in the 
 306:Generated_Source\PSoC6\pdl\middleware\ble/cy_ble_gap.c **** *  application and aligned to the size of the device's flash row. 
 307:Generated_Source\PSoC6\pdl\middleware\ble/cy_ble_gap.c **** *
 308:Generated_Source\PSoC6\pdl\middleware\ble/cy_ble_gap.c **** *  An example of a declaration of such an array (100 bytes): 
 309:Generated_Source\PSoC6\pdl\middleware\ble/cy_ble_gap.c **** *   - CY_ALIGN(CY_FLASH_SIZEOF_ROW) const uint8_t appBuff[100u] = {0u}; <br>
 310:Generated_Source\PSoC6\pdl\middleware\ble/cy_ble_gap.c **** *  <br>
 311:Generated_Source\PSoC6\pdl\middleware\ble/cy_ble_gap.c **** *  CY_ALIGN() - Aligns the array to the size of the device`s flash row. 
 312:Generated_Source\PSoC6\pdl\middleware\ble/cy_ble_gap.c **** *  Even if the length of srcData is not a multiple of the flash row size, 
 313:Generated_Source\PSoC6\pdl\middleware\ble/cy_ble_gap.c **** *  Cy_BLE_StoreAppData() forms whole rows, and programs them in sequence.
 314:Generated_Source\PSoC6\pdl\middleware\ble/cy_ble_gap.c **** *
 315:Generated_Source\PSoC6\pdl\middleware\ble/cy_ble_gap.c **** *  The approximate time to write one row - 16ms.
 316:Generated_Source\PSoC6\pdl\middleware\ble/cy_ble_gap.c **** *
 317:Generated_Source\PSoC6\pdl\middleware\ble/cy_ble_gap.c **** *  The following code snippet shows the usage of Cy_BLE_StoreAppData()
 318:Generated_Source\PSoC6\pdl\middleware\ble/cy_ble_gap.c **** * \snippet ble_sut_01_all_api.cydsn/snippets.c BLE Common API: Cy_BLE_StoreAppData()
 319:Generated_Source\PSoC6\pdl\middleware\ble/cy_ble_gap.c **** *
 320:Generated_Source\PSoC6\pdl\middleware\ble/cy_ble_gap.c **** * \return
 321:Generated_Source\PSoC6\pdl\middleware\ble/cy_ble_gap.c **** * \ref cy_en_ble_api_result_t : Return value indicates if the function 
 322:Generated_Source\PSoC6\pdl\middleware\ble/cy_ble_gap.c **** *      succeeded or failed. Following are the possible error codes.
 323:Generated_Source\PSoC6\pdl\middleware\ble/cy_ble_gap.c **** *
 324:Generated_Source\PSoC6\pdl\middleware\ble/cy_ble_gap.c **** *   Error codes                              | Description
 325:Generated_Source\PSoC6\pdl\middleware\ble/cy_ble_gap.c **** *   ------------                             | -----------
 326:Generated_Source\PSoC6\pdl\middleware\ble/cy_ble_gap.c **** *   CY_BLE_SUCCESS                           | On successful operation.
 327:Generated_Source\PSoC6\pdl\middleware\ble/cy_ble_gap.c **** *   CY_BLE_INFO_FLASH_WRITE_IN_PROGRESS      | Write operation is in progress.
 328:Generated_Source\PSoC6\pdl\middleware\ble/cy_ble_gap.c **** *   CY_BLE_ERROR_INVALID_PARAMETER           | An invalid input parameter.
 329:Generated_Source\PSoC6\pdl\middleware\ble/cy_ble_gap.c **** *   CY_BLE_ERROR_FLASH_WRITE                 | An error in the flash Write.
ARM GAS  C:\Users\guill\AppData\Local\Temp\ccKdZhTR.s 			page 9


 330:Generated_Source\PSoC6\pdl\middleware\ble/cy_ble_gap.c **** *   CY_BLE_ERROR_FLASH_WRITE_NOT_PERMITED    | Flash operation is not permitted (see Note)
 331:Generated_Source\PSoC6\pdl\middleware\ble/cy_ble_gap.c **** * 
 332:Generated_Source\PSoC6\pdl\middleware\ble/cy_ble_gap.c **** * \note: Flash operation is not permitted with protection context (PC)
 333:Generated_Source\PSoC6\pdl\middleware\ble/cy_ble_gap.c **** *        value > 0 and core voltage 0.9V, because of a preproduction
 334:Generated_Source\PSoC6\pdl\middleware\ble/cy_ble_gap.c **** *        hardware limitation.
 335:Generated_Source\PSoC6\pdl\middleware\ble/cy_ble_gap.c **** *
 336:Generated_Source\PSoC6\pdl\middleware\ble/cy_ble_gap.c **** ******************************************************************************/
 337:Generated_Source\PSoC6\pdl\middleware\ble/cy_ble_gap.c **** cy_en_ble_api_result_t Cy_BLE_StoreAppData(const cy_stc_ble_app_flash_param_t *param)
 338:Generated_Source\PSoC6\pdl\middleware\ble/cy_ble_gap.c **** {
 126              		.loc 1 338 0
 127              		.cfi_startproc
 128              		@ args = 0, pretend = 0, frame = 0
 129              		@ frame_needed = 0, uses_anonymous_args = 0
 130              	.LVL5:
 339:Generated_Source\PSoC6\pdl\middleware\ble/cy_ble_gap.c ****     static cy_en_ble_api_result_t storeState = CY_BLE_SUCCESS;
 340:Generated_Source\PSoC6\pdl\middleware\ble/cy_ble_gap.c ****     static uint32_t tLength = 0u;
 341:Generated_Source\PSoC6\pdl\middleware\ble/cy_ble_gap.c **** 
 342:Generated_Source\PSoC6\pdl\middleware\ble/cy_ble_gap.c ****     
 343:Generated_Source\PSoC6\pdl\middleware\ble/cy_ble_gap.c ****     if ((param == NULL) || (param->writeMode > CY_BLE_STORE_DATA_MODE_NON_BLOCKING))
 131              		.loc 1 343 0
 132 0000 0028     		cmp	r0, #0
 133 0002 6AD0     		beq	.L26
 338:Generated_Source\PSoC6\pdl\middleware\ble/cy_ble_gap.c ****     static cy_en_ble_api_result_t storeState = CY_BLE_SUCCESS;
 134              		.loc 1 338 0 discriminator 1
 135 0004 2DE9F041 		push	{r4, r5, r6, r7, r8, lr}
 136              		.cfi_def_cfa_offset 24
 137              		.cfi_offset 4, -24
 138              		.cfi_offset 5, -20
 139              		.cfi_offset 6, -16
 140              		.cfi_offset 7, -12
 141              		.cfi_offset 8, -8
 142              		.cfi_offset 14, -4
 143 0008 0746     		mov	r7, r0
 144              		.loc 1 343 0 discriminator 1
 145 000a C368     		ldr	r3, [r0, #12]
 146 000c 012B     		cmp	r3, #1
 147 000e 03D9     		bls	.L11
 344:Generated_Source\PSoC6\pdl\middleware\ble/cy_ble_gap.c ****     {
 345:Generated_Source\PSoC6\pdl\middleware\ble/cy_ble_gap.c ****         storeState = CY_BLE_ERROR_INVALID_PARAMETER;
 148              		.loc 1 345 0
 149 0010 354A     		ldr	r2, .L27
 150 0012 364B     		ldr	r3, .L27+4
 151 0014 1A60     		str	r2, [r3]
 152 0016 5CE0     		b	.L12
 153              	.L11:
 154              	.LBB22:
 346:Generated_Source\PSoC6\pdl\middleware\ble/cy_ble_gap.c ****     }
 347:Generated_Source\PSoC6\pdl\middleware\ble/cy_ble_gap.c ****     else
 348:Generated_Source\PSoC6\pdl\middleware\ble/cy_ble_gap.c ****     {
 349:Generated_Source\PSoC6\pdl\middleware\ble/cy_ble_gap.c ****         uint8_t *tSrcPtr   = (uint8_t *) param->srcBuff;
 155              		.loc 1 349 0
 156 0018 0668     		ldr	r6, [r0]
 157              	.LVL6:
 350:Generated_Source\PSoC6\pdl\middleware\ble/cy_ble_gap.c ****         uint32_t tOffset   = (uint32) param->destAddr - CY_FLASH_BASE;  /* Get offset */
 158              		.loc 1 350 0
 159 001a 4568     		ldr	r5, [r0, #4]
 160 001c 05F17045 		add	r5, r5, #-268435456
ARM GAS  C:\Users\guill\AppData\Local\Temp\ccKdZhTR.s 			page 10


 161              	.LVL7:
 351:Generated_Source\PSoC6\pdl\middleware\ble/cy_ble_gap.c ****         uint32_t blockSize;      
 352:Generated_Source\PSoC6\pdl\middleware\ble/cy_ble_gap.c ****         bool exitFlag = false;
 353:Generated_Source\PSoC6\pdl\middleware\ble/cy_ble_gap.c ****         
 354:Generated_Source\PSoC6\pdl\middleware\ble/cy_ble_gap.c ****         switch (storeState)
 162              		.loc 1 354 0
 163 0020 324B     		ldr	r3, .L27+4
 164 0022 1B68     		ldr	r3, [r3]
 165 0024 324A     		ldr	r2, .L27+8
 166 0026 9342     		cmp	r3, r2
 167 0028 0ED0     		beq	.L14
 168 002a 01D8     		bhi	.L15
 169 002c ABB9     		cbnz	r3, .L22
 170 002e 05E0     		b	.L16
 171              	.L15:
 172 0030 2D4A     		ldr	r2, .L27
 173 0032 9342     		cmp	r3, r2
 174 0034 02D0     		beq	.L16
 175 0036 1232     		adds	r2, r2, #18
 176 0038 9342     		cmp	r3, r2
 177 003a 0ED1     		bne	.L22
 178              	.L16:
 355:Generated_Source\PSoC6\pdl\middleware\ble/cy_ble_gap.c ****         {           
 356:Generated_Source\PSoC6\pdl\middleware\ble/cy_ble_gap.c ****             case CY_BLE_SUCCESS: 
 357:Generated_Source\PSoC6\pdl\middleware\ble/cy_ble_gap.c ****             case CY_BLE_ERROR_INVALID_PARAMETER:
 358:Generated_Source\PSoC6\pdl\middleware\ble/cy_ble_gap.c ****             case CY_BLE_ERROR_FLASH_WRITE:
 359:Generated_Source\PSoC6\pdl\middleware\ble/cy_ble_gap.c ****                 tLength = param->buffLen;
 179              		.loc 1 359 0
 180 003c BA68     		ldr	r2, [r7, #8]
 181 003e 2B4B     		ldr	r3, .L27+4
 182 0040 5A60     		str	r2, [r3, #4]
 352:Generated_Source\PSoC6\pdl\middleware\ble/cy_ble_gap.c ****         
 183              		.loc 1 352 0
 184 0042 4FF00008 		mov	r8, #0
 360:Generated_Source\PSoC6\pdl\middleware\ble/cy_ble_gap.c ****                 break;
 185              		.loc 1 360 0
 186 0046 3EE0     		b	.L18
 187              	.L14:
 361:Generated_Source\PSoC6\pdl\middleware\ble/cy_ble_gap.c ****                 
 362:Generated_Source\PSoC6\pdl\middleware\ble/cy_ble_gap.c ****             case CY_BLE_INFO_FLASH_WRITE_IN_PROGRESS:
 363:Generated_Source\PSoC6\pdl\middleware\ble/cy_ble_gap.c ****                 if (tLength == 0u)
 188              		.loc 1 363 0
 189 0048 284B     		ldr	r3, .L27+4
 190 004a 5B68     		ldr	r3, [r3, #4]
 191 004c 43B9     		cbnz	r3, .L17
 364:Generated_Source\PSoC6\pdl\middleware\ble/cy_ble_gap.c ****                 {
 365:Generated_Source\PSoC6\pdl\middleware\ble/cy_ble_gap.c ****                     storeState = CY_BLE_SUCCESS;
 192              		.loc 1 365 0
 193 004e 0022     		movs	r2, #0
 194 0050 264B     		ldr	r3, .L27+4
 195 0052 1A60     		str	r2, [r3]
 196              	.LVL8:
 366:Generated_Source\PSoC6\pdl\middleware\ble/cy_ble_gap.c ****                     exitFlag = true;
 197              		.loc 1 366 0
 198 0054 4FF00108 		mov	r8, #1
 199 0058 35E0     		b	.L18
 200              	.LVL9:
ARM GAS  C:\Users\guill\AppData\Local\Temp\ccKdZhTR.s 			page 11


 201              	.L22:
 352:Generated_Source\PSoC6\pdl\middleware\ble/cy_ble_gap.c ****         
 202              		.loc 1 352 0
 203 005a 4FF00008 		mov	r8, #0
 204 005e 32E0     		b	.L18
 205              	.L17:
 367:Generated_Source\PSoC6\pdl\middleware\ble/cy_ble_gap.c ****                 }
 368:Generated_Source\PSoC6\pdl\middleware\ble/cy_ble_gap.c ****                 else
 369:Generated_Source\PSoC6\pdl\middleware\ble/cy_ble_gap.c ****                 {
 370:Generated_Source\PSoC6\pdl\middleware\ble/cy_ble_gap.c ****                     /* Restore offset and srcPtr according to length */
 371:Generated_Source\PSoC6\pdl\middleware\ble/cy_ble_gap.c ****                     tSrcPtr += param->buffLen - tLength;
 206              		.loc 1 371 0
 207 0060 8268     		ldr	r2, [r0, #8]
 208 0062 D31A     		subs	r3, r2, r3
 209 0064 1E44     		add	r6, r6, r3
 210              	.LVL10:
 372:Generated_Source\PSoC6\pdl\middleware\ble/cy_ble_gap.c ****                     tOffset += param->buffLen - tLength;
 211              		.loc 1 372 0
 212 0066 1D44     		add	r5, r5, r3
 213              	.LVL11:
 352:Generated_Source\PSoC6\pdl\middleware\ble/cy_ble_gap.c ****         
 214              		.loc 1 352 0
 215 0068 4FF00008 		mov	r8, #0
 216 006c 2BE0     		b	.L18
 217              	.LVL12:
 218              	.L21:
 373:Generated_Source\PSoC6\pdl\middleware\ble/cy_ble_gap.c ****                 }
 374:Generated_Source\PSoC6\pdl\middleware\ble/cy_ble_gap.c ****                 break;
 375:Generated_Source\PSoC6\pdl\middleware\ble/cy_ble_gap.c ****                 
 376:Generated_Source\PSoC6\pdl\middleware\ble/cy_ble_gap.c ****            default:
 377:Generated_Source\PSoC6\pdl\middleware\ble/cy_ble_gap.c ****                 break;
 378:Generated_Source\PSoC6\pdl\middleware\ble/cy_ble_gap.c ****         }
 379:Generated_Source\PSoC6\pdl\middleware\ble/cy_ble_gap.c ****         
 380:Generated_Source\PSoC6\pdl\middleware\ble/cy_ble_gap.c ****         while((tLength != 0u) && (exitFlag == false))
 381:Generated_Source\PSoC6\pdl\middleware\ble/cy_ble_gap.c ****         {
 382:Generated_Source\PSoC6\pdl\middleware\ble/cy_ble_gap.c ****             /* Split srcBuff into parts of flash row size (512 bytes) */
 383:Generated_Source\PSoC6\pdl\middleware\ble/cy_ble_gap.c ****             blockSize = (tOffset >> 9) << 9;                            /* Get current row size reg
 219              		.loc 1 383 0
 220 006e 25F4FF74 		bic	r4, r5, #510
 221 0072 24F00104 		bic	r4, r4, #1
 222              	.LVL13:
 384:Generated_Source\PSoC6\pdl\middleware\ble/cy_ble_gap.c ****             blockSize = CY_FLASH_SIZEOF_ROW - (tOffset - blockSize);    /* Calculate final length o
 223              		.loc 1 384 0
 224 0076 641B     		subs	r4, r4, r5
 225              	.LVL14:
 226 0078 04F50074 		add	r4, r4, #512
 227              	.LVL15:
 385:Generated_Source\PSoC6\pdl\middleware\ble/cy_ble_gap.c ****                                                                            we can write to row */
 386:Generated_Source\PSoC6\pdl\middleware\ble/cy_ble_gap.c ****             blockSize = (blockSize > tLength )? tLength : blockSize;
 228              		.loc 1 386 0
 229 007c 9C42     		cmp	r4, r3
 230 007e 28BF     		it	cs
 231 0080 1C46     		movcs	r4, r3
 232              	.LVL16:
 387:Generated_Source\PSoC6\pdl\middleware\ble/cy_ble_gap.c **** 
 388:Generated_Source\PSoC6\pdl\middleware\ble/cy_ble_gap.c ****             /* Write 512 byte block */
 389:Generated_Source\PSoC6\pdl\middleware\ble/cy_ble_gap.c ****             storeState = Cy_BLE_HAL_NvramWrite(tSrcPtr, (uint8_t *)(tOffset + CY_FLASH_BASE),
ARM GAS  C:\Users\guill\AppData\Local\Temp\ccKdZhTR.s 			page 12


 233              		.loc 1 389 0
 234 0082 0023     		movs	r3, #0
 235 0084 2246     		mov	r2, r4
 236 0086 05F18051 		add	r1, r5, #268435456
 237 008a 3046     		mov	r0, r6
 238 008c FFF7FEFF 		bl	Cy_BLE_HAL_NvramWrite
 239              	.LVL17:
 240 0090 164B     		ldr	r3, .L27+4
 241 0092 1860     		str	r0, [r3]
 390:Generated_Source\PSoC6\pdl\middleware\ble/cy_ble_gap.c ****                                                blockSize, CY_BLE_FLASH_NON_BLOCKING_MODE);
 391:Generated_Source\PSoC6\pdl\middleware\ble/cy_ble_gap.c **** 
 392:Generated_Source\PSoC6\pdl\middleware\ble/cy_ble_gap.c ****             if((storeState & CY_PDL_STATUS_ERROR) != 0u)
 242              		.loc 1 392 0
 243 0094 10F4003F 		tst	r0, #131072
 244 0098 01D0     		beq	.L19
 393:Generated_Source\PSoC6\pdl\middleware\ble/cy_ble_gap.c ****             {
 394:Generated_Source\PSoC6\pdl\middleware\ble/cy_ble_gap.c ****                 exitFlag = true;
 245              		.loc 1 394 0
 246 009a 4FF00108 		mov	r8, #1
 247              	.LVL18:
 248              	.L19:
 395:Generated_Source\PSoC6\pdl\middleware\ble/cy_ble_gap.c ****             }
 396:Generated_Source\PSoC6\pdl\middleware\ble/cy_ble_gap.c ****                              
 397:Generated_Source\PSoC6\pdl\middleware\ble/cy_ble_gap.c ****             tSrcPtr += blockSize;
 249              		.loc 1 397 0
 250 009e 2644     		add	r6, r6, r4
 251              	.LVL19:
 398:Generated_Source\PSoC6\pdl\middleware\ble/cy_ble_gap.c ****             tOffset += blockSize;
 252              		.loc 1 398 0
 253 00a0 2544     		add	r5, r5, r4
 254              	.LVL20:
 399:Generated_Source\PSoC6\pdl\middleware\ble/cy_ble_gap.c ****             tLength -= blockSize;
 255              		.loc 1 399 0
 256 00a2 124A     		ldr	r2, .L27+4
 257 00a4 5368     		ldr	r3, [r2, #4]
 258 00a6 1C1B     		subs	r4, r3, r4
 259              	.LVL21:
 260 00a8 5460     		str	r4, [r2, #4]
 400:Generated_Source\PSoC6\pdl\middleware\ble/cy_ble_gap.c ****             
 401:Generated_Source\PSoC6\pdl\middleware\ble/cy_ble_gap.c ****             /* For CY_BLE_STORE_DATA_MODE_NON_BLOCKING mode write one row per call */
 402:Generated_Source\PSoC6\pdl\middleware\ble/cy_ble_gap.c ****             if(param->writeMode == CY_BLE_STORE_DATA_MODE_NON_BLOCKING)
 261              		.loc 1 402 0
 262 00aa FB68     		ldr	r3, [r7, #12]
 263 00ac 012B     		cmp	r3, #1
 264 00ae 08D1     		bne	.L20
 403:Generated_Source\PSoC6\pdl\middleware\ble/cy_ble_gap.c ****             {
 404:Generated_Source\PSoC6\pdl\middleware\ble/cy_ble_gap.c ****                 if (storeState == CY_BLE_SUCCESS)
 265              		.loc 1 404 0
 266 00b0 28B9     		cbnz	r0, .L24
 405:Generated_Source\PSoC6\pdl\middleware\ble/cy_ble_gap.c ****                 {
 406:Generated_Source\PSoC6\pdl\middleware\ble/cy_ble_gap.c ****                     storeState = CY_BLE_INFO_FLASH_WRITE_IN_PROGRESS;
 267              		.loc 1 406 0
 268 00b2 0F4A     		ldr	r2, .L27+8
 269 00b4 0D4B     		ldr	r3, .L27+4
 270 00b6 1A60     		str	r2, [r3]
 407:Generated_Source\PSoC6\pdl\middleware\ble/cy_ble_gap.c ****                 } 
 408:Generated_Source\PSoC6\pdl\middleware\ble/cy_ble_gap.c ****                 exitFlag = true;
ARM GAS  C:\Users\guill\AppData\Local\Temp\ccKdZhTR.s 			page 13


 271              		.loc 1 408 0
 272 00b8 4FF00108 		mov	r8, #1
 273              	.LVL22:
 274 00bc 01E0     		b	.L20
 275              	.LVL23:
 276              	.L24:
 277 00be 4FF00108 		mov	r8, #1
 278              	.LVL24:
 279              	.L20:
 409:Generated_Source\PSoC6\pdl\middleware\ble/cy_ble_gap.c ****             }
 410:Generated_Source\PSoC6\pdl\middleware\ble/cy_ble_gap.c ****         
 411:Generated_Source\PSoC6\pdl\middleware\ble/cy_ble_gap.c ****             /* Cy_BLE_ProcessEvents() allows BLE Stack to process pending events */
 412:Generated_Source\PSoC6\pdl\middleware\ble/cy_ble_gap.c ****             Cy_BLE_ProcessEvents();
 280              		.loc 1 412 0
 281 00c2 FFF7FEFF 		bl	Cy_BLE_ProcessEvents
 282              	.LVL25:
 283              	.L18:
 380:Generated_Source\PSoC6\pdl\middleware\ble/cy_ble_gap.c ****         {
 284              		.loc 1 380 0
 285 00c6 094B     		ldr	r3, .L27+4
 286 00c8 5B68     		ldr	r3, [r3, #4]
 287 00ca 13B1     		cbz	r3, .L12
 380:Generated_Source\PSoC6\pdl\middleware\ble/cy_ble_gap.c ****         {
 288              		.loc 1 380 0 is_stmt 0 discriminator 1
 289 00cc B8F1000F 		cmp	r8, #0
 290 00d0 CDD0     		beq	.L21
 291              	.LVL26:
 292              	.L12:
 293              	.LBE22:
 413:Generated_Source\PSoC6\pdl\middleware\ble/cy_ble_gap.c ****         }
 414:Generated_Source\PSoC6\pdl\middleware\ble/cy_ble_gap.c ****     }
 415:Generated_Source\PSoC6\pdl\middleware\ble/cy_ble_gap.c ****     return(storeState);
 416:Generated_Source\PSoC6\pdl\middleware\ble/cy_ble_gap.c **** }
 294              		.loc 1 416 0 is_stmt 1
 295 00d2 064B     		ldr	r3, .L27+4
 296 00d4 1868     		ldr	r0, [r3]
 297 00d6 BDE8F081 		pop	{r4, r5, r6, r7, r8, pc}
 298              	.LVL27:
 299              	.L26:
 300              		.cfi_def_cfa_offset 0
 301              		.cfi_restore 4
 302              		.cfi_restore 5
 303              		.cfi_restore 6
 304              		.cfi_restore 7
 305              		.cfi_restore 8
 306              		.cfi_restore 14
 345:Generated_Source\PSoC6\pdl\middleware\ble/cy_ble_gap.c ****     }
 307              		.loc 1 345 0
 308 00da 034A     		ldr	r2, .L27
 309 00dc 034B     		ldr	r3, .L27+4
 310 00de 1A60     		str	r2, [r3]
 311              		.loc 1 416 0
 312 00e0 024B     		ldr	r3, .L27+4
 313 00e2 1868     		ldr	r0, [r3]
 314              	.LVL28:
 315 00e4 7047     		bx	lr
 316              	.L28:
ARM GAS  C:\Users\guill\AppData\Local\Temp\ccKdZhTR.s 			page 14


 317 00e6 00BF     		.align	2
 318              	.L27:
 319 00e8 01001600 		.word	1441793
 320 00ec 00000000 		.word	.LANCHOR0
 321 00f0 01001400 		.word	1310721
 322              		.cfi_endproc
 323              	.LFE257:
 324              		.size	Cy_BLE_StoreAppData, .-Cy_BLE_StoreAppData
 325              		.section	.text.Cy_BLE_StoreBondingData,"ax",%progbits
 326              		.align	2
 327              		.global	Cy_BLE_StoreBondingData
 328              		.thumb
 329              		.thumb_func
 330              		.type	Cy_BLE_StoreBondingData, %function
 331              	Cy_BLE_StoreBondingData:
 332              	.LFB258:
 417:Generated_Source\PSoC6\pdl\middleware\ble/cy_ble_gap.c **** 
 418:Generated_Source\PSoC6\pdl\middleware\ble/cy_ble_gap.c **** 
 419:Generated_Source\PSoC6\pdl\middleware\ble/cy_ble_gap.c **** #if ((CY_BLE_GAP_ROLE_PERIPHERAL || CY_BLE_GAP_ROLE_CENTRAL) && (CY_BLE_BONDING_REQUIREMENT == CY_B
 420:Generated_Source\PSoC6\pdl\middleware\ble/cy_ble_gap.c **** 
 421:Generated_Source\PSoC6\pdl\middleware\ble/cy_ble_gap.c **** 
 422:Generated_Source\PSoC6\pdl\middleware\ble/cy_ble_gap.c **** /******************************************************************************
 423:Generated_Source\PSoC6\pdl\middleware\ble/cy_ble_gap.c **** * Function Name: Cy_BLE_StoreBondingData
 424:Generated_Source\PSoC6\pdl\middleware\ble/cy_ble_gap.c **** ***************************************************************************//**
 425:Generated_Source\PSoC6\pdl\middleware\ble/cy_ble_gap.c **** *
 426:Generated_Source\PSoC6\pdl\middleware\ble/cy_ble_gap.c **** *  This function writes the new bonding data from RAM to the dedicated Flash
 427:Generated_Source\PSoC6\pdl\middleware\ble/cy_ble_gap.c **** *  location as defined by the BLE Middleware. It performs a data comparison 
 428:Generated_Source\PSoC6\pdl\middleware\ble/cy_ble_gap.c **** *  between RAM and Flash before writing to Flash. If there is no change between 
 429:Generated_Source\PSoC6\pdl\middleware\ble/cy_ble_gap.c **** *  RAM and Flash data, then no write is performed. It writes one flash row
 430:Generated_Source\PSoC6\pdl\middleware\ble/cy_ble_gap.c **** *  in one call.
 431:Generated_Source\PSoC6\pdl\middleware\ble/cy_ble_gap.c **** *  The application should keep calling this function until it returns
 432:Generated_Source\PSoC6\pdl\middleware\ble/cy_ble_gap.c **** *  #CY_BLE_SUCCESS. This function is available only when Bonding requirement 
 433:Generated_Source\PSoC6\pdl\middleware\ble/cy_ble_gap.c **** *  is selected in Security settings.
 434:Generated_Source\PSoC6\pdl\middleware\ble/cy_ble_gap.c **** *
 435:Generated_Source\PSoC6\pdl\middleware\ble/cy_ble_gap.c **** * \return
 436:Generated_Source\PSoC6\pdl\middleware\ble/cy_ble_gap.c **** * \ref cy_en_ble_api_result_t : Return value indicates if the function 
 437:Generated_Source\PSoC6\pdl\middleware\ble/cy_ble_gap.c **** *      succeeded or failed. Following are the possible error codes.
 438:Generated_Source\PSoC6\pdl\middleware\ble/cy_ble_gap.c **** *
 439:Generated_Source\PSoC6\pdl\middleware\ble/cy_ble_gap.c **** *   Error Codes                           | Description
 440:Generated_Source\PSoC6\pdl\middleware\ble/cy_ble_gap.c **** *   ----------------------------------    | ------------------------------------
 441:Generated_Source\PSoC6\pdl\middleware\ble/cy_ble_gap.c **** *   CY_BLE_SUCCESS                        | On successful operation
 442:Generated_Source\PSoC6\pdl\middleware\ble/cy_ble_gap.c **** *   CY_BLE_INFO_FLASH_WRITE_IN_PROGRESS   | Writing in progress
 443:Generated_Source\PSoC6\pdl\middleware\ble/cy_ble_gap.c **** *   CY_BLE_ERROR_FLASH_WRITE              | Error in flash Write
 444:Generated_Source\PSoC6\pdl\middleware\ble/cy_ble_gap.c **** *   CY_BLE_ERROR_FLASH_WRITE_NOT_PERMITED | Flash operation is not permitted (see Note)
 445:Generated_Source\PSoC6\pdl\middleware\ble/cy_ble_gap.c **** * 
 446:Generated_Source\PSoC6\pdl\middleware\ble/cy_ble_gap.c **** * \note: Flash operation is not permitted with protection context (PC)
 447:Generated_Source\PSoC6\pdl\middleware\ble/cy_ble_gap.c **** *        value > 0 and core voltage 0.9V, because of a preproduction
 448:Generated_Source\PSoC6\pdl\middleware\ble/cy_ble_gap.c **** *        hardware limitation.
 449:Generated_Source\PSoC6\pdl\middleware\ble/cy_ble_gap.c **** *    
 450:Generated_Source\PSoC6\pdl\middleware\ble/cy_ble_gap.c **** * \globalvars
 451:Generated_Source\PSoC6\pdl\middleware\ble/cy_ble_gap.c **** *  The \ref cy_ble_pendingFlashWrite variable is used to detect status
 452:Generated_Source\PSoC6\pdl\middleware\ble/cy_ble_gap.c **** *  of pending write to flash operation for BLE Stack data and CCCD.
 453:Generated_Source\PSoC6\pdl\middleware\ble/cy_ble_gap.c **** *  This function automatically clears pending bits after the write operation
 454:Generated_Source\PSoC6\pdl\middleware\ble/cy_ble_gap.c **** *  completes.
 455:Generated_Source\PSoC6\pdl\middleware\ble/cy_ble_gap.c **** *
 456:Generated_Source\PSoC6\pdl\middleware\ble/cy_ble_gap.c **** ******************************************************************************/
 457:Generated_Source\PSoC6\pdl\middleware\ble/cy_ble_gap.c **** cy_en_ble_api_result_t Cy_BLE_StoreBondingData(void)
ARM GAS  C:\Users\guill\AppData\Local\Temp\ccKdZhTR.s 			page 15


 458:Generated_Source\PSoC6\pdl\middleware\ble/cy_ble_gap.c **** {
 333              		.loc 1 458 0
 334              		.cfi_startproc
 335              		@ args = 0, pretend = 0, frame = 32
 336              		@ frame_needed = 0, uses_anonymous_args = 0
 337 0000 70B5     		push	{r4, r5, r6, lr}
 338              		.cfi_def_cfa_offset 16
 339              		.cfi_offset 4, -16
 340              		.cfi_offset 5, -12
 341              		.cfi_offset 6, -8
 342              		.cfi_offset 14, -4
 343 0002 88B0     		sub	sp, sp, #32
 344              		.cfi_def_cfa_offset 48
 345              	.LVL29:
 459:Generated_Source\PSoC6\pdl\middleware\ble/cy_ble_gap.c ****     cy_en_ble_api_result_t apiResult = CY_BLE_SUCCESS;
 460:Generated_Source\PSoC6\pdl\middleware\ble/cy_ble_gap.c **** 
 461:Generated_Source\PSoC6\pdl\middleware\ble/cy_ble_gap.c ****     /* Store BLE Stack data */
 462:Generated_Source\PSoC6\pdl\middleware\ble/cy_ble_gap.c ****     if((cy_ble_pendingFlashWrite & CY_BLE_PENDING_STACK_FLASH_WRITE_BIT) != 0u)
 346              		.loc 1 462 0
 347 0004 584B     		ldr	r3, .L48
 348 0006 1B78     		ldrb	r3, [r3]	@ zero_extendqisi2
 349 0008 13F0010F 		tst	r3, #1
 350 000c 11D0     		beq	.L44
 351              	.LBB23:
 463:Generated_Source\PSoC6\pdl\middleware\ble/cy_ble_gap.c ****     {
 464:Generated_Source\PSoC6\pdl\middleware\ble/cy_ble_gap.c ****         cy_stc_ble_stack_flash_param_t stackFlashParam =
 352              		.loc 1 464 0
 353 000e 08A8     		add	r0, sp, #32
 354 0010 0723     		movs	r3, #7
 355 0012 00F8103D 		strb	r3, [r0, #-16]!
 465:Generated_Source\PSoC6\pdl\middleware\ble/cy_ble_gap.c ****         {
 466:Generated_Source\PSoC6\pdl\middleware\ble/cy_ble_gap.c ****             .bitField = CY_BLE_PERSISTENT_BOND_LIST_BITMASK |
 467:Generated_Source\PSoC6\pdl\middleware\ble/cy_ble_gap.c ****                         CY_BLE_PERSISTENT_RPA_LIST_BITMASK |
 468:Generated_Source\PSoC6\pdl\middleware\ble/cy_ble_gap.c ****                         CY_BLE_PERSISTENT_WHITELIST_BITMASK
 469:Generated_Source\PSoC6\pdl\middleware\ble/cy_ble_gap.c ****         };
 470:Generated_Source\PSoC6\pdl\middleware\ble/cy_ble_gap.c **** 
 471:Generated_Source\PSoC6\pdl\middleware\ble/cy_ble_gap.c ****         apiResult = Cy_BLE_StoreStackData(&stackFlashParam);
 356              		.loc 1 471 0
 357 0016 FFF7FEFF 		bl	Cy_BLE_StoreStackData
 358              	.LVL30:
 472:Generated_Source\PSoC6\pdl\middleware\ble/cy_ble_gap.c ****         if(apiResult == CY_BLE_SUCCESS)
 359              		.loc 1 472 0
 360 001a 0346     		mov	r3, r0
 361 001c 50B9     		cbnz	r0, .L30
 473:Generated_Source\PSoC6\pdl\middleware\ble/cy_ble_gap.c ****         {
 474:Generated_Source\PSoC6\pdl\middleware\ble/cy_ble_gap.c ****             cy_ble_pendingFlashWrite &= (uint8_t) ~CY_BLE_PENDING_STACK_FLASH_WRITE_BIT;
 362              		.loc 1 474 0
 363 001e 5249     		ldr	r1, .L48
 364 0020 0A78     		ldrb	r2, [r1]	@ zero_extendqisi2
 365 0022 02F0FE02 		and	r2, r2, #254
 366 0026 0A70     		strb	r2, [r1]
 475:Generated_Source\PSoC6\pdl\middleware\ble/cy_ble_gap.c ****             
 476:Generated_Source\PSoC6\pdl\middleware\ble/cy_ble_gap.c ****             /* Change apiResult if there are more pending data to store */
 477:Generated_Source\PSoC6\pdl\middleware\ble/cy_ble_gap.c ****             if((cy_ble_pendingFlashWrite & CY_BLE_PENDING_CCCD_FLASH_WRITE_BIT) != 0u)
 367              		.loc 1 477 0
 368 0028 12F0020F 		tst	r2, #2
 369 002c 02D0     		beq	.L30
ARM GAS  C:\Users\guill\AppData\Local\Temp\ccKdZhTR.s 			page 16


 478:Generated_Source\PSoC6\pdl\middleware\ble/cy_ble_gap.c ****             {
 479:Generated_Source\PSoC6\pdl\middleware\ble/cy_ble_gap.c ****                 apiResult = CY_BLE_INFO_FLASH_WRITE_IN_PROGRESS;
 370              		.loc 1 479 0
 371 002e 4F4B     		ldr	r3, .L48+4
 372              	.LVL31:
 373 0030 00E0     		b	.L30
 374              	.LVL32:
 375              	.L44:
 376              	.LBE23:
 459:Generated_Source\PSoC6\pdl\middleware\ble/cy_ble_gap.c **** 
 377              		.loc 1 459 0
 378 0032 0023     		movs	r3, #0
 379              	.LVL33:
 380              	.L30:
 480:Generated_Source\PSoC6\pdl\middleware\ble/cy_ble_gap.c ****             }
 481:Generated_Source\PSoC6\pdl\middleware\ble/cy_ble_gap.c ****         }
 482:Generated_Source\PSoC6\pdl\middleware\ble/cy_ble_gap.c ****     }
 483:Generated_Source\PSoC6\pdl\middleware\ble/cy_ble_gap.c **** #if (CY_BLE_GATT_DB_CCCD_COUNT != 0u)
 484:Generated_Source\PSoC6\pdl\middleware\ble/cy_ble_gap.c ****     
 485:Generated_Source\PSoC6\pdl\middleware\ble/cy_ble_gap.c ****     /* Store CCCD values */
 486:Generated_Source\PSoC6\pdl\middleware\ble/cy_ble_gap.c ****     if((apiResult == CY_BLE_SUCCESS) &&
 381              		.loc 1 486 0
 382 0034 002B     		cmp	r3, #0
 383 0036 46D1     		bne	.L32
 487:Generated_Source\PSoC6\pdl\middleware\ble/cy_ble_gap.c ****        ((cy_ble_pendingFlashWrite & CY_BLE_PENDING_CCCD_FLASH_WRITE_BIT) != 0u))
 384              		.loc 1 487 0 discriminator 1
 385 0038 4B4A     		ldr	r2, .L48
 386 003a 1278     		ldrb	r2, [r2]	@ zero_extendqisi2
 486:Generated_Source\PSoC6\pdl\middleware\ble/cy_ble_gap.c ****        ((cy_ble_pendingFlashWrite & CY_BLE_PENDING_CCCD_FLASH_WRITE_BIT) != 0u))
 387              		.loc 1 486 0 discriminator 1
 388 003c 12F0020F 		tst	r2, #2
 389 0040 41D0     		beq	.L32
 390              	.LBB24:
 488:Generated_Source\PSoC6\pdl\middleware\ble/cy_ble_gap.c ****     {
 489:Generated_Source\PSoC6\pdl\middleware\ble/cy_ble_gap.c ****         uint32_t i;
 490:Generated_Source\PSoC6\pdl\middleware\ble/cy_ble_gap.c ****         cy_stc_ble_app_flash_param_t appFlashParam =
 391              		.loc 1 490 0
 392 0042 0024     		movs	r4, #0
 393 0044 0594     		str	r4, [sp, #20]
 394 0046 0794     		str	r4, [sp, #28]
 395 0048 0322     		movs	r2, #3
 396 004a 0692     		str	r2, [sp, #24]
 397              	.LVL34:
 491:Generated_Source\PSoC6\pdl\middleware\ble/cy_ble_gap.c ****         {
 492:Generated_Source\PSoC6\pdl\middleware\ble/cy_ble_gap.c ****             .buffLen = CY_BLE_GATT_DB_CCCD_COUNT + CY_BLE_CCCD_CRC_BYTE,
 493:Generated_Source\PSoC6\pdl\middleware\ble/cy_ble_gap.c ****         };
 494:Generated_Source\PSoC6\pdl\middleware\ble/cy_ble_gap.c **** 
 495:Generated_Source\PSoC6\pdl\middleware\ble/cy_ble_gap.c ****         /* Update CCCD values from RAM for active connections supporting bonding */
 496:Generated_Source\PSoC6\pdl\middleware\ble/cy_ble_gap.c ****         for(i = 0u; i < CY_BLE_CONN_COUNT; i++)
 398              		.loc 1 496 0
 399 004c 33E0     		b	.L33
 400              	.LVL35:
 401              	.L37:
 402 004e 484A     		ldr	r2, .L48+8
 403 0050 32F81420 		ldrh	r2, [r2, r4, lsl #1]	@ unaligned
 404 0054 ADF80420 		strh	r2, [sp, #4]	@ unaligned
 405              	.LBB25:
ARM GAS  C:\Users\guill\AppData\Local\Temp\ccKdZhTR.s 			page 17


 406              	.LBB26:
 407              		.file 2 "Generated_Source\\PSoC6\\pdl\\middleware\\ble\\cy_ble_gap.h"
   1:Generated_Source\PSoC6\pdl\middleware\ble/cy_ble_gap.h **** /***************************************************************************//**
   2:Generated_Source\PSoC6\pdl\middleware\ble/cy_ble_gap.h **** * \file cy_ble_gap.h
   3:Generated_Source\PSoC6\pdl\middleware\ble/cy_ble_gap.h **** * \version 2.60
   4:Generated_Source\PSoC6\pdl\middleware\ble/cy_ble_gap.h **** *
   5:Generated_Source\PSoC6\pdl\middleware\ble/cy_ble_gap.h **** * \brief
   6:Generated_Source\PSoC6\pdl\middleware\ble/cy_ble_gap.h **** *  Contains the prototypes and constants used in the BLE GAP profile.
   7:Generated_Source\PSoC6\pdl\middleware\ble/cy_ble_gap.h **** *
   8:Generated_Source\PSoC6\pdl\middleware\ble/cy_ble_gap.h **** ********************************************************************************
   9:Generated_Source\PSoC6\pdl\middleware\ble/cy_ble_gap.h **** * \copyright
  10:Generated_Source\PSoC6\pdl\middleware\ble/cy_ble_gap.h **** * Copyright 2017-2020, Cypress Semiconductor Corporation.  All rights reserved.
  11:Generated_Source\PSoC6\pdl\middleware\ble/cy_ble_gap.h **** * You may use this file only in accordance with the license, terms, conditions,
  12:Generated_Source\PSoC6\pdl\middleware\ble/cy_ble_gap.h **** * disclaimers, and limitations in the end user license agreement accompanying
  13:Generated_Source\PSoC6\pdl\middleware\ble/cy_ble_gap.h **** * the software package with which this file was provided.
  14:Generated_Source\PSoC6\pdl\middleware\ble/cy_ble_gap.h **** *******************************************************************************/
  15:Generated_Source\PSoC6\pdl\middleware\ble/cy_ble_gap.h **** 
  16:Generated_Source\PSoC6\pdl\middleware\ble/cy_ble_gap.h **** 
  17:Generated_Source\PSoC6\pdl\middleware\ble/cy_ble_gap.h **** #ifndef CY_BLE_GAP_H
  18:Generated_Source\PSoC6\pdl\middleware\ble/cy_ble_gap.h **** #define CY_BLE_GAP_H
  19:Generated_Source\PSoC6\pdl\middleware\ble/cy_ble_gap.h ****     
  20:Generated_Source\PSoC6\pdl\middleware\ble/cy_ble_gap.h **** #include "cy_ble_config.h"
  21:Generated_Source\PSoC6\pdl\middleware\ble/cy_ble_gap.h **** 
  22:Generated_Source\PSoC6\pdl\middleware\ble/cy_ble_gap.h **** /***************************************
  23:Generated_Source\PSoC6\pdl\middleware\ble/cy_ble_gap.h **** * BLE Stack includes
  24:Generated_Source\PSoC6\pdl\middleware\ble/cy_ble_gap.h **** ***************************************/
  25:Generated_Source\PSoC6\pdl\middleware\ble/cy_ble_gap.h **** #include "cy_ble_stack_gatt.h"    
  26:Generated_Source\PSoC6\pdl\middleware\ble/cy_ble_gap.h **** #include "cy_ble_stack_gap.h"
  27:Generated_Source\PSoC6\pdl\middleware\ble/cy_ble_gap.h **** #include "cy_ble_stack_gap_central.h"
  28:Generated_Source\PSoC6\pdl\middleware\ble/cy_ble_gap.h **** #include "cy_ble_stack_gap_peripheral.h"
  29:Generated_Source\PSoC6\pdl\middleware\ble/cy_ble_gap.h **** 
  30:Generated_Source\PSoC6\pdl\middleware\ble/cy_ble_gap.h **** /* C binding of definitions if building with C++ compiler */
  31:Generated_Source\PSoC6\pdl\middleware\ble/cy_ble_gap.h **** #ifdef __cplusplus
  32:Generated_Source\PSoC6\pdl\middleware\ble/cy_ble_gap.h **** extern "C" {
  33:Generated_Source\PSoC6\pdl\middleware\ble/cy_ble_gap.h **** #endif /* __cplusplus */
  34:Generated_Source\PSoC6\pdl\middleware\ble/cy_ble_gap.h **** 
  35:Generated_Source\PSoC6\pdl\middleware\ble/cy_ble_gap.h **** /***************************************
  36:Generated_Source\PSoC6\pdl\middleware\ble/cy_ble_gap.h **** * Conditional Compilation Parameters
  37:Generated_Source\PSoC6\pdl\middleware\ble/cy_ble_gap.h **** ***************************************/
  38:Generated_Source\PSoC6\pdl\middleware\ble/cy_ble_gap.h **** /**
  39:Generated_Source\PSoC6\pdl\middleware\ble/cy_ble_gap.h ****  * The BLE operation mode.
  40:Generated_Source\PSoC6\pdl\middleware\ble/cy_ble_gap.h ****  */
  41:Generated_Source\PSoC6\pdl\middleware\ble/cy_ble_gap.h **** #define CY_BLE_MODE                          (CY_BLE_CONFIG_MODE)
  42:Generated_Source\PSoC6\pdl\middleware\ble/cy_ble_gap.h **** 
  43:Generated_Source\PSoC6\pdl\middleware\ble/cy_ble_gap.h **** /** 
  44:Generated_Source\PSoC6\pdl\middleware\ble/cy_ble_gap.h ****  * Maximum number of BLE connections
  45:Generated_Source\PSoC6\pdl\middleware\ble/cy_ble_gap.h ****  * This parameter displays how many BLE connections (both Central and 
  46:Generated_Source\PSoC6\pdl\middleware\ble/cy_ble_gap.h ****  * Peripheral) are allowed. Valid range is from 1 to 4.
  47:Generated_Source\PSoC6\pdl\middleware\ble/cy_ble_gap.h ****  */
  48:Generated_Source\PSoC6\pdl\middleware\ble/cy_ble_gap.h **** #define CY_BLE_CONN_COUNT                    (CY_BLE_CONFIG_CONN_COUNT)
  49:Generated_Source\PSoC6\pdl\middleware\ble/cy_ble_gap.h ****  
  50:Generated_Source\PSoC6\pdl\middleware\ble/cy_ble_gap.h **** /**
  51:Generated_Source\PSoC6\pdl\middleware\ble/cy_ble_gap.h ****  * The GAP Role 
  52:Generated_Source\PSoC6\pdl\middleware\ble/cy_ble_gap.h ****  * The following defined mask can be used:
  53:Generated_Source\PSoC6\pdl\middleware\ble/cy_ble_gap.h ****  * CY_BLE_GAP_PERIPHERAL  (0x01u) - device operates as peripheral.
  54:Generated_Source\PSoC6\pdl\middleware\ble/cy_ble_gap.h ****  * CY_BLE_GAP_CENTRAL     (0x02u) - device operates as central. 
  55:Generated_Source\PSoC6\pdl\middleware\ble/cy_ble_gap.h ****  * CY_BLE_GAP_BROADCASTER (0x04u) - device operates as broadcaster.
ARM GAS  C:\Users\guill\AppData\Local\Temp\ccKdZhTR.s 			page 18


  56:Generated_Source\PSoC6\pdl\middleware\ble/cy_ble_gap.h ****  * CY_BLE_GAP_OBSERVER    (0x08u) - device operates as observer.
  57:Generated_Source\PSoC6\pdl\middleware\ble/cy_ble_gap.h ****  * CY_BLE_GAP_HCI         (0x00u) - used when BLE operates in HCI mode.
  58:Generated_Source\PSoC6\pdl\middleware\ble/cy_ble_gap.h ****  */ 
  59:Generated_Source\PSoC6\pdl\middleware\ble/cy_ble_gap.h **** #define CY_BLE_GAP_ROLE                       (CY_BLE_CONFIG_GAP_ROLE)
  60:Generated_Source\PSoC6\pdl\middleware\ble/cy_ble_gap.h **** 
  61:Generated_Source\PSoC6\pdl\middleware\ble/cy_ble_gap.h **** /** The number of GAP Peripheral configurations structures */
  62:Generated_Source\PSoC6\pdl\middleware\ble/cy_ble_gap.h **** #define CY_BLE_GAP_PERIPHERAL_COUNT           (CY_BLE_CONFIG_GAP_PERIPHERAL_COUNT)
  63:Generated_Source\PSoC6\pdl\middleware\ble/cy_ble_gap.h **** 
  64:Generated_Source\PSoC6\pdl\middleware\ble/cy_ble_gap.h **** /** The number of GAP Broadcaster configurations structures */
  65:Generated_Source\PSoC6\pdl\middleware\ble/cy_ble_gap.h **** #define CY_BLE_GAP_BROADCASTER_COUNT          (CY_BLE_CONFIG_GAP_BROADCASTER_COUNT)
  66:Generated_Source\PSoC6\pdl\middleware\ble/cy_ble_gap.h **** 
  67:Generated_Source\PSoC6\pdl\middleware\ble/cy_ble_gap.h **** /** The number of GAP Central configurations structures */
  68:Generated_Source\PSoC6\pdl\middleware\ble/cy_ble_gap.h **** #define CY_BLE_GAP_CENTRAL_COUNT              (CY_BLE_CONFIG_GAP_CENTRAL_COUNT)
  69:Generated_Source\PSoC6\pdl\middleware\ble/cy_ble_gap.h **** 
  70:Generated_Source\PSoC6\pdl\middleware\ble/cy_ble_gap.h **** /** The number of GAP Observer configurations structures */
  71:Generated_Source\PSoC6\pdl\middleware\ble/cy_ble_gap.h **** #define CY_BLE_GAP_OBSERVER_COUNT             (CY_BLE_CONFIG_GAP_OBSERVER_COUNT)
  72:Generated_Source\PSoC6\pdl\middleware\ble/cy_ble_gap.h **** 
  73:Generated_Source\PSoC6\pdl\middleware\ble/cy_ble_gap.h **** /** The number of Security configurations structures */
  74:Generated_Source\PSoC6\pdl\middleware\ble/cy_ble_gap.h **** #define CY_BLE_AUTH_INFO_COUNT                (CY_BLE_CONFIG_AUTH_INFO_COUNT)
  75:Generated_Source\PSoC6\pdl\middleware\ble/cy_ble_gap.h **** 
  76:Generated_Source\PSoC6\pdl\middleware\ble/cy_ble_gap.h **** /** The Bonding Requirement structures */
  77:Generated_Source\PSoC6\pdl\middleware\ble/cy_ble_gap.h **** #define CY_BLE_BONDING_REQUIREMENT            (CY_BLE_CONFIG_BONDING_REQUIREMENT)
  78:Generated_Source\PSoC6\pdl\middleware\ble/cy_ble_gap.h **** 
  79:Generated_Source\PSoC6\pdl\middleware\ble/cy_ble_gap.h **** /** The GAP Role defines */
  80:Generated_Source\PSoC6\pdl\middleware\ble/cy_ble_gap.h **** #define CY_BLE_GAP_ROLE_PERIPHERAL            (0u != (CY_BLE_GAP_ROLE & CY_BLE_GAP_PERIPHERAL))
  81:Generated_Source\PSoC6\pdl\middleware\ble/cy_ble_gap.h **** #define CY_BLE_GAP_ROLE_CENTRAL               (0u != (CY_BLE_GAP_ROLE & CY_BLE_GAP_CENTRAL))
  82:Generated_Source\PSoC6\pdl\middleware\ble/cy_ble_gap.h **** #define CY_BLE_GAP_ROLE_OBSERVER              (0u != (CY_BLE_GAP_ROLE & CY_BLE_GAP_OBSERVER))
  83:Generated_Source\PSoC6\pdl\middleware\ble/cy_ble_gap.h **** #define CY_BLE_GAP_ROLE_BROADCASTER           (0u != (CY_BLE_GAP_ROLE & CY_BLE_GAP_BROADCASTER))
  84:Generated_Source\PSoC6\pdl\middleware\ble/cy_ble_gap.h **** 
  85:Generated_Source\PSoC6\pdl\middleware\ble/cy_ble_gap.h **** #define CY_BLE_GAPP_CONF_COUNT                (CY_BLE_GAP_PERIPHERAL_COUNT + CY_BLE_GAP_BROADCASTER
  86:Generated_Source\PSoC6\pdl\middleware\ble/cy_ble_gap.h **** #define CY_BLE_GAPC_CONF_COUNT                (CY_BLE_GAP_CENTRAL_COUNT + CY_BLE_GAP_OBSERVER_COUNT
  87:Generated_Source\PSoC6\pdl\middleware\ble/cy_ble_gap.h **** 
  88:Generated_Source\PSoC6\pdl\middleware\ble/cy_ble_gap.h **** /***************************************
  89:Generated_Source\PSoC6\pdl\middleware\ble/cy_ble_gap.h **** * Type Definitions
  90:Generated_Source\PSoC6\pdl\middleware\ble/cy_ble_gap.h **** ***************************************/
  91:Generated_Source\PSoC6\pdl\middleware\ble/cy_ble_gap.h **** 
  92:Generated_Source\PSoC6\pdl\middleware\ble/cy_ble_gap.h **** #if (CY_BLE_MODE_PROFILE)
  93:Generated_Source\PSoC6\pdl\middleware\ble/cy_ble_gap.h **** 
  94:Generated_Source\PSoC6\pdl\middleware\ble/cy_ble_gap.h **** /***************************************
  95:Generated_Source\PSoC6\pdl\middleware\ble/cy_ble_gap.h **** * Enumerated Types and Structures
  96:Generated_Source\PSoC6\pdl\middleware\ble/cy_ble_gap.h **** ***************************************/
  97:Generated_Source\PSoC6\pdl\middleware\ble/cy_ble_gap.h **** 
  98:Generated_Source\PSoC6\pdl\middleware\ble/cy_ble_gap.h **** /**
  99:Generated_Source\PSoC6\pdl\middleware\ble/cy_ble_gap.h ****  * \addtogroup group_ble_common_api_gap_definitions
 100:Generated_Source\PSoC6\pdl\middleware\ble/cy_ble_gap.h ****  * @{
 101:Generated_Source\PSoC6\pdl\middleware\ble/cy_ble_gap.h ****  */
 102:Generated_Source\PSoC6\pdl\middleware\ble/cy_ble_gap.h **** 
 103:Generated_Source\PSoC6\pdl\middleware\ble/cy_ble_gap.h **** /** BLE state machine type */
 104:Generated_Source\PSoC6\pdl\middleware\ble/cy_ble_gap.h **** typedef enum
 105:Generated_Source\PSoC6\pdl\middleware\ble/cy_ble_gap.h **** {
 106:Generated_Source\PSoC6\pdl\middleware\ble/cy_ble_gap.h ****     CY_BLE_STATE_STOPPED,                             /**< BLE is turned off */
 107:Generated_Source\PSoC6\pdl\middleware\ble/cy_ble_gap.h ****     CY_BLE_STATE_INITIALIZING,                        /**< Initializing state */
 108:Generated_Source\PSoC6\pdl\middleware\ble/cy_ble_gap.h ****     CY_BLE_STATE_ON,                                  /**< BLE is turned on */
 109:Generated_Source\PSoC6\pdl\middleware\ble/cy_ble_gap.h **** #if (CY_BLE_GAP_ROLE_CENTRAL)
 110:Generated_Source\PSoC6\pdl\middleware\ble/cy_ble_gap.h ****     CY_BLE_STATE_CONNECTING,                          /**< Connecting */
 111:Generated_Source\PSoC6\pdl\middleware\ble/cy_ble_gap.h **** #endif /* CY_BLE_GAP_ROLE_CENTRAL */
 112:Generated_Source\PSoC6\pdl\middleware\ble/cy_ble_gap.h **** } cy_en_ble_state_t;
ARM GAS  C:\Users\guill\AppData\Local\Temp\ccKdZhTR.s 			page 19


 113:Generated_Source\PSoC6\pdl\middleware\ble/cy_ble_gap.h **** 
 114:Generated_Source\PSoC6\pdl\middleware\ble/cy_ble_gap.h **** 
 115:Generated_Source\PSoC6\pdl\middleware\ble/cy_ble_gap.h **** /** Scanning state machine type */
 116:Generated_Source\PSoC6\pdl\middleware\ble/cy_ble_gap.h **** typedef enum
 117:Generated_Source\PSoC6\pdl\middleware\ble/cy_ble_gap.h **** {
 118:Generated_Source\PSoC6\pdl\middleware\ble/cy_ble_gap.h ****     CY_BLE_SCAN_STATE_STOPPED,                        /**< Scanning is stopped */
 119:Generated_Source\PSoC6\pdl\middleware\ble/cy_ble_gap.h ****     CY_BLE_SCAN_STATE_SCAN_INITIATED,                 /**< Scanning is initiated */
 120:Generated_Source\PSoC6\pdl\middleware\ble/cy_ble_gap.h ****     CY_BLE_SCAN_STATE_SCANNING,                       /**< Scanning process */
 121:Generated_Source\PSoC6\pdl\middleware\ble/cy_ble_gap.h ****     CY_BLE_SCAN_STATE_STOP_INITIATED                  /**< Stop scanning is initiated */
 122:Generated_Source\PSoC6\pdl\middleware\ble/cy_ble_gap.h **** } cy_en_ble_scan_state_t;
 123:Generated_Source\PSoC6\pdl\middleware\ble/cy_ble_gap.h **** 
 124:Generated_Source\PSoC6\pdl\middleware\ble/cy_ble_gap.h **** /** Advertising state machine type */
 125:Generated_Source\PSoC6\pdl\middleware\ble/cy_ble_gap.h **** typedef enum
 126:Generated_Source\PSoC6\pdl\middleware\ble/cy_ble_gap.h **** {
 127:Generated_Source\PSoC6\pdl\middleware\ble/cy_ble_gap.h ****     CY_BLE_ADV_STATE_STOPPED,                         /**< Advertising is stopped */
 128:Generated_Source\PSoC6\pdl\middleware\ble/cy_ble_gap.h ****     CY_BLE_ADV_STATE_ADV_INITIATED,                   /**< Advertising is initiated */
 129:Generated_Source\PSoC6\pdl\middleware\ble/cy_ble_gap.h ****     CY_BLE_ADV_STATE_ADVERTISING,                     /**< Advertising process */
 130:Generated_Source\PSoC6\pdl\middleware\ble/cy_ble_gap.h ****     CY_BLE_ADV_STATE_STOP_INITIATED                   /**< Stop advertising is initiated */
 131:Generated_Source\PSoC6\pdl\middleware\ble/cy_ble_gap.h **** } cy_en_ble_adv_state_t;
 132:Generated_Source\PSoC6\pdl\middleware\ble/cy_ble_gap.h **** 
 133:Generated_Source\PSoC6\pdl\middleware\ble/cy_ble_gap.h **** /** Connection state machine type */
 134:Generated_Source\PSoC6\pdl\middleware\ble/cy_ble_gap.h **** typedef enum
 135:Generated_Source\PSoC6\pdl\middleware\ble/cy_ble_gap.h **** {
 136:Generated_Source\PSoC6\pdl\middleware\ble/cy_ble_gap.h ****     CY_BLE_CONN_STATE_DISCONNECTED,                   /**< Essentially idle state */
 137:Generated_Source\PSoC6\pdl\middleware\ble/cy_ble_gap.h ****     CY_BLE_CONN_STATE_CLIENT_DISCONNECTED_DISCOVERED, /**< Server is disconnected but discovered */
 138:Generated_Source\PSoC6\pdl\middleware\ble/cy_ble_gap.h ****     CY_BLE_CONN_STATE_CONNECTED,                      /**< Peer device is connected for this and fo
 139:Generated_Source\PSoC6\pdl\middleware\ble/cy_ble_gap.h ****     CY_BLE_CONN_STATE_CLIENT_SRVC_DISCOVERING,        /**< Server services are being discovered */
 140:Generated_Source\PSoC6\pdl\middleware\ble/cy_ble_gap.h ****     CY_BLE_CONN_STATE_CLIENT_INCL_DISCOVERING,        /**< Server included services are being disco
 141:Generated_Source\PSoC6\pdl\middleware\ble/cy_ble_gap.h ****     CY_BLE_CONN_STATE_CLIENT_CHAR_DISCOVERING,        /**< Server characteristics are being discove
 142:Generated_Source\PSoC6\pdl\middleware\ble/cy_ble_gap.h ****     CY_BLE_CONN_STATE_CLIENT_DESCR_DISCOVERING,       /**< Server char. descriptors are being disco
 143:Generated_Source\PSoC6\pdl\middleware\ble/cy_ble_gap.h ****     CY_BLE_CONN_STATE_CLIENT_DISCOVERED               /**< Server is discovered */
 144:Generated_Source\PSoC6\pdl\middleware\ble/cy_ble_gap.h **** } cy_en_ble_conn_state_t;
 145:Generated_Source\PSoC6\pdl\middleware\ble/cy_ble_gap.h **** 
 146:Generated_Source\PSoC6\pdl\middleware\ble/cy_ble_gap.h **** /** Structure with Generic Access Profile Service (GAPS) attribute handles */
 147:Generated_Source\PSoC6\pdl\middleware\ble/cy_ble_gap.h **** typedef struct
 148:Generated_Source\PSoC6\pdl\middleware\ble/cy_ble_gap.h **** {
 149:Generated_Source\PSoC6\pdl\middleware\ble/cy_ble_gap.h ****     /** Service handle*/
 150:Generated_Source\PSoC6\pdl\middleware\ble/cy_ble_gap.h ****     cy_ble_gatt_db_attr_handle_t serviceHandle;
 151:Generated_Source\PSoC6\pdl\middleware\ble/cy_ble_gap.h **** 
 152:Generated_Source\PSoC6\pdl\middleware\ble/cy_ble_gap.h ****     /** Handle of the GAPS Device Name Characteristic */
 153:Generated_Source\PSoC6\pdl\middleware\ble/cy_ble_gap.h ****     cy_ble_gatt_db_attr_handle_t deviceNameCharHandle;
 154:Generated_Source\PSoC6\pdl\middleware\ble/cy_ble_gap.h **** 
 155:Generated_Source\PSoC6\pdl\middleware\ble/cy_ble_gap.h ****     /** Handle of the GAPS Appearance Characteristic */
 156:Generated_Source\PSoC6\pdl\middleware\ble/cy_ble_gap.h ****     cy_ble_gatt_db_attr_handle_t appearanceCharHandle;
 157:Generated_Source\PSoC6\pdl\middleware\ble/cy_ble_gap.h **** 
 158:Generated_Source\PSoC6\pdl\middleware\ble/cy_ble_gap.h ****     /** Handle of the GAPS Peripheral Preferred Connection Parameters Characteristic */
 159:Generated_Source\PSoC6\pdl\middleware\ble/cy_ble_gap.h ****     cy_ble_gatt_db_attr_handle_t prefConnParamCharHandle;
 160:Generated_Source\PSoC6\pdl\middleware\ble/cy_ble_gap.h **** 
 161:Generated_Source\PSoC6\pdl\middleware\ble/cy_ble_gap.h ****     /** Handle of the GAPS Central Address Resolution characteristic */
 162:Generated_Source\PSoC6\pdl\middleware\ble/cy_ble_gap.h ****     cy_ble_gatt_db_attr_handle_t centralAddrResolutionCharHandle;
 163:Generated_Source\PSoC6\pdl\middleware\ble/cy_ble_gap.h **** 
 164:Generated_Source\PSoC6\pdl\middleware\ble/cy_ble_gap.h ****     /** Handle of the GAPS Resolvable Private Address Only characteristic */
 165:Generated_Source\PSoC6\pdl\middleware\ble/cy_ble_gap.h ****     cy_ble_gatt_db_attr_handle_t resolvablePrivateAddressOnly;
 166:Generated_Source\PSoC6\pdl\middleware\ble/cy_ble_gap.h **** } cy_stc_ble_gaps_t;
 167:Generated_Source\PSoC6\pdl\middleware\ble/cy_ble_gap.h **** 
 168:Generated_Source\PSoC6\pdl\middleware\ble/cy_ble_gap.h **** /** GAP Service characteristics server's GATT DB handles structure type */
 169:Generated_Source\PSoC6\pdl\middleware\ble/cy_ble_gap.h **** typedef struct
ARM GAS  C:\Users\guill\AppData\Local\Temp\ccKdZhTR.s 			page 20


 170:Generated_Source\PSoC6\pdl\middleware\ble/cy_ble_gap.h **** {
 171:Generated_Source\PSoC6\pdl\middleware\ble/cy_ble_gap.h ****     /** Handle of the GAPS Device Name Characteristic */
 172:Generated_Source\PSoC6\pdl\middleware\ble/cy_ble_gap.h ****     cy_ble_gatt_db_attr_handle_t deviceNameCharHandle;
 173:Generated_Source\PSoC6\pdl\middleware\ble/cy_ble_gap.h **** 
 174:Generated_Source\PSoC6\pdl\middleware\ble/cy_ble_gap.h ****     /** Handle of the GAPS Appearance Characteristic */
 175:Generated_Source\PSoC6\pdl\middleware\ble/cy_ble_gap.h ****     cy_ble_gatt_db_attr_handle_t appearanceCharHandle;
 176:Generated_Source\PSoC6\pdl\middleware\ble/cy_ble_gap.h **** 
 177:Generated_Source\PSoC6\pdl\middleware\ble/cy_ble_gap.h ****     /** Handle of the GAPS Peripheral Privacy Flag Parameters Characteristic */
 178:Generated_Source\PSoC6\pdl\middleware\ble/cy_ble_gap.h ****     cy_ble_gatt_db_attr_handle_t periphPrivacyCharHandle;
 179:Generated_Source\PSoC6\pdl\middleware\ble/cy_ble_gap.h **** 
 180:Generated_Source\PSoC6\pdl\middleware\ble/cy_ble_gap.h ****     /** Handle of the GAPS Reconnection Address Characteristic */
 181:Generated_Source\PSoC6\pdl\middleware\ble/cy_ble_gap.h ****     cy_ble_gatt_db_attr_handle_t reconnAddrCharHandle;
 182:Generated_Source\PSoC6\pdl\middleware\ble/cy_ble_gap.h **** 
 183:Generated_Source\PSoC6\pdl\middleware\ble/cy_ble_gap.h ****     /** Handle of the GAPS Peripheral Preferred Connection Parameters Characteristic */
 184:Generated_Source\PSoC6\pdl\middleware\ble/cy_ble_gap.h ****     cy_ble_gatt_db_attr_handle_t prefConnParamCharHandle;
 185:Generated_Source\PSoC6\pdl\middleware\ble/cy_ble_gap.h **** 
 186:Generated_Source\PSoC6\pdl\middleware\ble/cy_ble_gap.h ****     /** Handle of the GAPS Central Address Resolution characteristic */
 187:Generated_Source\PSoC6\pdl\middleware\ble/cy_ble_gap.h ****     cy_ble_gatt_db_attr_handle_t centralAddrResolutionCharHandle;
 188:Generated_Source\PSoC6\pdl\middleware\ble/cy_ble_gap.h **** 
 189:Generated_Source\PSoC6\pdl\middleware\ble/cy_ble_gap.h ****     /** Handle of the GAPS Resolvable Private Address Only characteristic */
 190:Generated_Source\PSoC6\pdl\middleware\ble/cy_ble_gap.h ****     cy_ble_gatt_db_attr_handle_t resolvablePrivateAddressOnly;
 191:Generated_Source\PSoC6\pdl\middleware\ble/cy_ble_gap.h **** }cy_stc_ble_gapc_t;
 192:Generated_Source\PSoC6\pdl\middleware\ble/cy_ble_gap.h **** 
 193:Generated_Source\PSoC6\pdl\middleware\ble/cy_ble_gap.h **** /* Stack mode defines */
 194:Generated_Source\PSoC6\pdl\middleware\ble/cy_ble_gap.h **** 
 195:Generated_Source\PSoC6\pdl\middleware\ble/cy_ble_gap.h **** /** Advertisement SIG assigned numbers */
 196:Generated_Source\PSoC6\pdl\middleware\ble/cy_ble_gap.h **** typedef enum
 197:Generated_Source\PSoC6\pdl\middleware\ble/cy_ble_gap.h **** {
 198:Generated_Source\PSoC6\pdl\middleware\ble/cy_ble_gap.h ****     /** Flags */
 199:Generated_Source\PSoC6\pdl\middleware\ble/cy_ble_gap.h ****     CY_BLE_GAP_ADV_FLAGS = 0x01u,
 200:Generated_Source\PSoC6\pdl\middleware\ble/cy_ble_gap.h **** 
 201:Generated_Source\PSoC6\pdl\middleware\ble/cy_ble_gap.h ****     /** Incomplete List of 16-bit Service Class UUIDs */
 202:Generated_Source\PSoC6\pdl\middleware\ble/cy_ble_gap.h ****     CY_BLE_GAP_ADV_INCOMPL_16UUID,
 203:Generated_Source\PSoC6\pdl\middleware\ble/cy_ble_gap.h **** 
 204:Generated_Source\PSoC6\pdl\middleware\ble/cy_ble_gap.h ****     /** Complete List of 16-bit Service Class UUIDs */
 205:Generated_Source\PSoC6\pdl\middleware\ble/cy_ble_gap.h ****     CY_BLE_GAP_ADV_COMPL_16UUID,
 206:Generated_Source\PSoC6\pdl\middleware\ble/cy_ble_gap.h **** 
 207:Generated_Source\PSoC6\pdl\middleware\ble/cy_ble_gap.h ****     /** Incomplete List of 32-bit Service Class UUIDs */
 208:Generated_Source\PSoC6\pdl\middleware\ble/cy_ble_gap.h ****     CY_BLE_GAP_ADV_INCOMPL_32_UUID,
 209:Generated_Source\PSoC6\pdl\middleware\ble/cy_ble_gap.h **** 
 210:Generated_Source\PSoC6\pdl\middleware\ble/cy_ble_gap.h ****     /** Complete List of 32-bit Service Class UUIDs */
 211:Generated_Source\PSoC6\pdl\middleware\ble/cy_ble_gap.h ****     CY_BLE_GAP_ADV_COMPL_32_UUID,
 212:Generated_Source\PSoC6\pdl\middleware\ble/cy_ble_gap.h **** 
 213:Generated_Source\PSoC6\pdl\middleware\ble/cy_ble_gap.h ****     /** Incomplete List of 128-bit Service Class UUIDs */
 214:Generated_Source\PSoC6\pdl\middleware\ble/cy_ble_gap.h ****     CY_BLE_GAP_ADV_INCOMPL_128_UUID,
 215:Generated_Source\PSoC6\pdl\middleware\ble/cy_ble_gap.h **** 
 216:Generated_Source\PSoC6\pdl\middleware\ble/cy_ble_gap.h ****     /** Complete List of 128-bit Service Class UUIDs */
 217:Generated_Source\PSoC6\pdl\middleware\ble/cy_ble_gap.h ****     CY_BLE_GAP_ADV_COMPL_128_UUID,
 218:Generated_Source\PSoC6\pdl\middleware\ble/cy_ble_gap.h **** 
 219:Generated_Source\PSoC6\pdl\middleware\ble/cy_ble_gap.h ****     /** Shortened Local Name */
 220:Generated_Source\PSoC6\pdl\middleware\ble/cy_ble_gap.h ****     CY_BLE_GAP_ADV_SHORT_NAME,
 221:Generated_Source\PSoC6\pdl\middleware\ble/cy_ble_gap.h **** 
 222:Generated_Source\PSoC6\pdl\middleware\ble/cy_ble_gap.h ****     /** Complete Local Name */
 223:Generated_Source\PSoC6\pdl\middleware\ble/cy_ble_gap.h ****     CY_BLE_GAP_ADV_COMPL_NAME,
 224:Generated_Source\PSoC6\pdl\middleware\ble/cy_ble_gap.h **** 
 225:Generated_Source\PSoC6\pdl\middleware\ble/cy_ble_gap.h ****     /** Tx Power Level */
 226:Generated_Source\PSoC6\pdl\middleware\ble/cy_ble_gap.h ****     CY_BLE_GAP_ADV_TX_PWR_LVL,
ARM GAS  C:\Users\guill\AppData\Local\Temp\ccKdZhTR.s 			page 21


 227:Generated_Source\PSoC6\pdl\middleware\ble/cy_ble_gap.h **** 
 228:Generated_Source\PSoC6\pdl\middleware\ble/cy_ble_gap.h ****     /** Class of Device */
 229:Generated_Source\PSoC6\pdl\middleware\ble/cy_ble_gap.h ****     CY_BLE_GAP_ADV_CLASS_OF_DEVICE = 0x0Du,
 230:Generated_Source\PSoC6\pdl\middleware\ble/cy_ble_gap.h **** 
 231:Generated_Source\PSoC6\pdl\middleware\ble/cy_ble_gap.h ****     /** Simple Pairing Hash C */
 232:Generated_Source\PSoC6\pdl\middleware\ble/cy_ble_gap.h ****     CY_BLE_GAP_ADV_SMPL_PAIR_HASH_C,
 233:Generated_Source\PSoC6\pdl\middleware\ble/cy_ble_gap.h **** 
 234:Generated_Source\PSoC6\pdl\middleware\ble/cy_ble_gap.h ****     /** Simple Pairing Randomizer R */
 235:Generated_Source\PSoC6\pdl\middleware\ble/cy_ble_gap.h ****     CY_BLE_GAP_ADV_SMPL_PAIR_RANDOM_R,
 236:Generated_Source\PSoC6\pdl\middleware\ble/cy_ble_gap.h **** 
 237:Generated_Source\PSoC6\pdl\middleware\ble/cy_ble_gap.h ****     /** Device ID*/
 238:Generated_Source\PSoC6\pdl\middleware\ble/cy_ble_gap.h ****     CY_BLE_GAP_ADV_DEVICE_ID,
 239:Generated_Source\PSoC6\pdl\middleware\ble/cy_ble_gap.h **** 
 240:Generated_Source\PSoC6\pdl\middleware\ble/cy_ble_gap.h ****     /** Security Manager TK Value */
 241:Generated_Source\PSoC6\pdl\middleware\ble/cy_ble_gap.h ****     CY_BLE_GAP_ADV_SCRT_MNGR_TK_VAL = 0x10u,
 242:Generated_Source\PSoC6\pdl\middleware\ble/cy_ble_gap.h **** 
 243:Generated_Source\PSoC6\pdl\middleware\ble/cy_ble_gap.h ****     /** Security Manager Out of Band Flags */
 244:Generated_Source\PSoC6\pdl\middleware\ble/cy_ble_gap.h ****     CY_BLE_GAP_ADV_SCRT_MNGR_OOB_FLAGS,
 245:Generated_Source\PSoC6\pdl\middleware\ble/cy_ble_gap.h **** 
 246:Generated_Source\PSoC6\pdl\middleware\ble/cy_ble_gap.h ****     /** Slave Connection Interval Range */
 247:Generated_Source\PSoC6\pdl\middleware\ble/cy_ble_gap.h ****     CY_BLE_GAP_ADV_SLAVE_CONN_INTRV_RANGE,
 248:Generated_Source\PSoC6\pdl\middleware\ble/cy_ble_gap.h **** 
 249:Generated_Source\PSoC6\pdl\middleware\ble/cy_ble_gap.h ****     /** List of 16-bit Service Solicitation UUIDs */
 250:Generated_Source\PSoC6\pdl\middleware\ble/cy_ble_gap.h ****     CY_BLE_GAP_ADV_SOLICIT_16UUID = 0x14u,
 251:Generated_Source\PSoC6\pdl\middleware\ble/cy_ble_gap.h **** 
 252:Generated_Source\PSoC6\pdl\middleware\ble/cy_ble_gap.h ****     /** List of 128-bit Service Solicitation UUIDs */
 253:Generated_Source\PSoC6\pdl\middleware\ble/cy_ble_gap.h ****     CY_BLE_GAP_ADV_SOLICIT_128UUID,
 254:Generated_Source\PSoC6\pdl\middleware\ble/cy_ble_gap.h **** 
 255:Generated_Source\PSoC6\pdl\middleware\ble/cy_ble_gap.h ****     /** Service Data - 16-bit UUID */
 256:Generated_Source\PSoC6\pdl\middleware\ble/cy_ble_gap.h ****     CY_BLE_GAP_ADV_SRVC_DATA_16UUID,
 257:Generated_Source\PSoC6\pdl\middleware\ble/cy_ble_gap.h **** 
 258:Generated_Source\PSoC6\pdl\middleware\ble/cy_ble_gap.h ****     /** Public Target Address */
 259:Generated_Source\PSoC6\pdl\middleware\ble/cy_ble_gap.h ****     CY_BLE_GAP_ADV_PUBLIC_TARGET_ADDR,
 260:Generated_Source\PSoC6\pdl\middleware\ble/cy_ble_gap.h **** 
 261:Generated_Source\PSoC6\pdl\middleware\ble/cy_ble_gap.h ****     /** Random Target Address */
 262:Generated_Source\PSoC6\pdl\middleware\ble/cy_ble_gap.h ****     CY_BLE_GAP_ADV_RANDOM_TARGET_ADDR,
 263:Generated_Source\PSoC6\pdl\middleware\ble/cy_ble_gap.h **** 
 264:Generated_Source\PSoC6\pdl\middleware\ble/cy_ble_gap.h ****     /** Appearance */
 265:Generated_Source\PSoC6\pdl\middleware\ble/cy_ble_gap.h ****     CY_BLE_GAP_ADV_APPEARANCE,
 266:Generated_Source\PSoC6\pdl\middleware\ble/cy_ble_gap.h **** 
 267:Generated_Source\PSoC6\pdl\middleware\ble/cy_ble_gap.h ****     /** Advertising Interval */
 268:Generated_Source\PSoC6\pdl\middleware\ble/cy_ble_gap.h ****     CY_BLE_GAP_ADV_ADVERT_INTERVAL,
 269:Generated_Source\PSoC6\pdl\middleware\ble/cy_ble_gap.h **** 
 270:Generated_Source\PSoC6\pdl\middleware\ble/cy_ble_gap.h ****     /** LE Bluetooth Device Address */
 271:Generated_Source\PSoC6\pdl\middleware\ble/cy_ble_gap.h ****     CY_BLE_GAP_ADV_LE_BT_DEVICE_ADDR,
 272:Generated_Source\PSoC6\pdl\middleware\ble/cy_ble_gap.h **** 
 273:Generated_Source\PSoC6\pdl\middleware\ble/cy_ble_gap.h ****     /** LE Role */
 274:Generated_Source\PSoC6\pdl\middleware\ble/cy_ble_gap.h ****     CY_BLE_GAP_ADV_LE_ROLE,
 275:Generated_Source\PSoC6\pdl\middleware\ble/cy_ble_gap.h **** 
 276:Generated_Source\PSoC6\pdl\middleware\ble/cy_ble_gap.h ****     /** Simple Pairing Hash C-256 */
 277:Generated_Source\PSoC6\pdl\middleware\ble/cy_ble_gap.h ****     CY_BLE_GAP_ADV_SMPL_PAIR_HASH_C256,
 278:Generated_Source\PSoC6\pdl\middleware\ble/cy_ble_gap.h **** 
 279:Generated_Source\PSoC6\pdl\middleware\ble/cy_ble_gap.h ****     /** Simple Pairing Randomizer R-256 */
 280:Generated_Source\PSoC6\pdl\middleware\ble/cy_ble_gap.h ****     CY_BLE_GAP_ADV_SMPL_PAIR_RANDOM_R256,
 281:Generated_Source\PSoC6\pdl\middleware\ble/cy_ble_gap.h **** 
 282:Generated_Source\PSoC6\pdl\middleware\ble/cy_ble_gap.h ****     /** List of 32-bit Service Solicitation UUIDs */
 283:Generated_Source\PSoC6\pdl\middleware\ble/cy_ble_gap.h ****     CY_BLE_GAP_ADV_SOLICIT_32UUID,
ARM GAS  C:\Users\guill\AppData\Local\Temp\ccKdZhTR.s 			page 22


 284:Generated_Source\PSoC6\pdl\middleware\ble/cy_ble_gap.h **** 
 285:Generated_Source\PSoC6\pdl\middleware\ble/cy_ble_gap.h ****     /** Service Data - 32-bit UUID */
 286:Generated_Source\PSoC6\pdl\middleware\ble/cy_ble_gap.h ****     CY_BLE_GAP_ADV_SRVC_DATA_32UUID,
 287:Generated_Source\PSoC6\pdl\middleware\ble/cy_ble_gap.h **** 
 288:Generated_Source\PSoC6\pdl\middleware\ble/cy_ble_gap.h ****     /** Service Data - 128-bit UUID */
 289:Generated_Source\PSoC6\pdl\middleware\ble/cy_ble_gap.h ****     CY_BLE_GAP_ADV_SRVC_DATA_128UUID,
 290:Generated_Source\PSoC6\pdl\middleware\ble/cy_ble_gap.h **** 
 291:Generated_Source\PSoC6\pdl\middleware\ble/cy_ble_gap.h ****     /** 3D Information Data */
 292:Generated_Source\PSoC6\pdl\middleware\ble/cy_ble_gap.h ****     CY_BLE_GAP_ADV_3D_INFO_DATA = 0x3D,
 293:Generated_Source\PSoC6\pdl\middleware\ble/cy_ble_gap.h **** 
 294:Generated_Source\PSoC6\pdl\middleware\ble/cy_ble_gap.h ****     /** Manufacturer Specific Data */
 295:Generated_Source\PSoC6\pdl\middleware\ble/cy_ble_gap.h ****     CY_BLE_GAP_ADV_MANUFACTURER_SPECIFIC_DATA = 0xFF
 296:Generated_Source\PSoC6\pdl\middleware\ble/cy_ble_gap.h **** }cy_en_ble_gap_adv_assign_numbers_t;
 297:Generated_Source\PSoC6\pdl\middleware\ble/cy_ble_gap.h **** 
 298:Generated_Source\PSoC6\pdl\middleware\ble/cy_ble_gap.h **** /** GAPP advertising configuration parameters structure */
 299:Generated_Source\PSoC6\pdl\middleware\ble/cy_ble_gap.h **** typedef struct
 300:Generated_Source\PSoC6\pdl\middleware\ble/cy_ble_gap.h **** {
 301:Generated_Source\PSoC6\pdl\middleware\ble/cy_ble_gap.h ****     /** The minimum interval for fast advertising the data and establishing the LE Connection */
 302:Generated_Source\PSoC6\pdl\middleware\ble/cy_ble_gap.h ****     uint16_t fastAdvIntervalMin;
 303:Generated_Source\PSoC6\pdl\middleware\ble/cy_ble_gap.h **** 
 304:Generated_Source\PSoC6\pdl\middleware\ble/cy_ble_gap.h ****     /** The maximum interval for fast advertising the data and establishing the LE Connection */
 305:Generated_Source\PSoC6\pdl\middleware\ble/cy_ble_gap.h ****     uint16_t fastAdvIntervalMax;
 306:Generated_Source\PSoC6\pdl\middleware\ble/cy_ble_gap.h **** 
 307:Generated_Source\PSoC6\pdl\middleware\ble/cy_ble_gap.h ****     /** The timeout value of  fast advertising with fast advertising interval parameters */
 308:Generated_Source\PSoC6\pdl\middleware\ble/cy_ble_gap.h ****     uint16_t fastAdvTimeOut;
 309:Generated_Source\PSoC6\pdl\middleware\ble/cy_ble_gap.h **** 
 310:Generated_Source\PSoC6\pdl\middleware\ble/cy_ble_gap.h ****     /** Slow advertising enable */
 311:Generated_Source\PSoC6\pdl\middleware\ble/cy_ble_gap.h ****     uint8_t  slowAdvEnable;
 312:Generated_Source\PSoC6\pdl\middleware\ble/cy_ble_gap.h **** 
 313:Generated_Source\PSoC6\pdl\middleware\ble/cy_ble_gap.h ****     /** The minimum interval for slow advertising the data and establishing the LE Connection */
 314:Generated_Source\PSoC6\pdl\middleware\ble/cy_ble_gap.h ****     uint16_t slowAdvIntervalMin;
 315:Generated_Source\PSoC6\pdl\middleware\ble/cy_ble_gap.h **** 
 316:Generated_Source\PSoC6\pdl\middleware\ble/cy_ble_gap.h ****     /** The maximum interval for slow  advertising the data and establishing the LE Connection */
 317:Generated_Source\PSoC6\pdl\middleware\ble/cy_ble_gap.h ****     uint16_t slowAdvIntervalMax;
 318:Generated_Source\PSoC6\pdl\middleware\ble/cy_ble_gap.h **** 
 319:Generated_Source\PSoC6\pdl\middleware\ble/cy_ble_gap.h ****     /** The timeout value of slow advertising with slow advertising interval parameters */
 320:Generated_Source\PSoC6\pdl\middleware\ble/cy_ble_gap.h ****     uint16_t slowAdvTimeOut;
 321:Generated_Source\PSoC6\pdl\middleware\ble/cy_ble_gap.h **** }cy_stc_ble_gapp_adv_params_t;
 322:Generated_Source\PSoC6\pdl\middleware\ble/cy_ble_gap.h **** 
 323:Generated_Source\PSoC6\pdl\middleware\ble/cy_ble_gap.h **** /** GAPC advertising configuration parameters structure */
 324:Generated_Source\PSoC6\pdl\middleware\ble/cy_ble_gap.h **** typedef struct
 325:Generated_Source\PSoC6\pdl\middleware\ble/cy_ble_gap.h **** {
 326:Generated_Source\PSoC6\pdl\middleware\ble/cy_ble_gap.h ****     /** The scan interval when operating in Fast connection */
 327:Generated_Source\PSoC6\pdl\middleware\ble/cy_ble_gap.h ****     uint16_t fastScanInterval;
 328:Generated_Source\PSoC6\pdl\middleware\ble/cy_ble_gap.h **** 
 329:Generated_Source\PSoC6\pdl\middleware\ble/cy_ble_gap.h ****     /** Defines the scan window when operating in Fast connection */
 330:Generated_Source\PSoC6\pdl\middleware\ble/cy_ble_gap.h ****     uint16_t fastScanWindow;
 331:Generated_Source\PSoC6\pdl\middleware\ble/cy_ble_gap.h **** 
 332:Generated_Source\PSoC6\pdl\middleware\ble/cy_ble_gap.h ****     /** The timeout value of scanning with fast scan parameters */
 333:Generated_Source\PSoC6\pdl\middleware\ble/cy_ble_gap.h ****     uint16_t fastScanTimeOut;
 334:Generated_Source\PSoC6\pdl\middleware\ble/cy_ble_gap.h **** 
 335:Generated_Source\PSoC6\pdl\middleware\ble/cy_ble_gap.h ****     /** Slow scan enable/disable */
 336:Generated_Source\PSoC6\pdl\middleware\ble/cy_ble_gap.h ****     uint8_t  slowScanEnabled;
 337:Generated_Source\PSoC6\pdl\middleware\ble/cy_ble_gap.h **** 
 338:Generated_Source\PSoC6\pdl\middleware\ble/cy_ble_gap.h ****     /** The scan interval when operating in Slow connection */
 339:Generated_Source\PSoC6\pdl\middleware\ble/cy_ble_gap.h ****     uint16_t slowScanInterval;
 340:Generated_Source\PSoC6\pdl\middleware\ble/cy_ble_gap.h **** 
ARM GAS  C:\Users\guill\AppData\Local\Temp\ccKdZhTR.s 			page 23


 341:Generated_Source\PSoC6\pdl\middleware\ble/cy_ble_gap.h ****     /** Defines the scan window when operating in Slow connection */
 342:Generated_Source\PSoC6\pdl\middleware\ble/cy_ble_gap.h ****     uint16_t slowScanWindow;
 343:Generated_Source\PSoC6\pdl\middleware\ble/cy_ble_gap.h **** 
 344:Generated_Source\PSoC6\pdl\middleware\ble/cy_ble_gap.h ****     /** The timeout value of scanning with Slow scan parameters */
 345:Generated_Source\PSoC6\pdl\middleware\ble/cy_ble_gap.h ****     uint16_t slowScanTimeOut;
 346:Generated_Source\PSoC6\pdl\middleware\ble/cy_ble_gap.h **** 
 347:Generated_Source\PSoC6\pdl\middleware\ble/cy_ble_gap.h ****     /** The minimum permissible connection time value to be used during a connection event */
 348:Generated_Source\PSoC6\pdl\middleware\ble/cy_ble_gap.h ****     uint16_t gapcConnectionIntervalMin;
 349:Generated_Source\PSoC6\pdl\middleware\ble/cy_ble_gap.h **** 
 350:Generated_Source\PSoC6\pdl\middleware\ble/cy_ble_gap.h ****     /** The maximum permissible connection time value to be used during a connection event */
 351:Generated_Source\PSoC6\pdl\middleware\ble/cy_ble_gap.h ****     uint16_t gapcConnectionIntervalMax;
 352:Generated_Source\PSoC6\pdl\middleware\ble/cy_ble_gap.h **** 
 353:Generated_Source\PSoC6\pdl\middleware\ble/cy_ble_gap.h ****     /** Defines the maximum time between two received Data Packet PDUs before
 354:Generated_Source\PSoC6\pdl\middleware\ble/cy_ble_gap.h ****      *  the connection is considered lost */
 355:Generated_Source\PSoC6\pdl\middleware\ble/cy_ble_gap.h ****     uint16_t gapcConnectionSlaveLatency;
 356:Generated_Source\PSoC6\pdl\middleware\ble/cy_ble_gap.h **** 
 357:Generated_Source\PSoC6\pdl\middleware\ble/cy_ble_gap.h ****     /** Defines the LE link supervision timeout interval */
 358:Generated_Source\PSoC6\pdl\middleware\ble/cy_ble_gap.h ****     uint16_t gapcConnectionTimeOut;
 359:Generated_Source\PSoC6\pdl\middleware\ble/cy_ble_gap.h **** }cy_stc_ble_gapc_scan_params_t;
 360:Generated_Source\PSoC6\pdl\middleware\ble/cy_ble_gap.h **** 
 361:Generated_Source\PSoC6\pdl\middleware\ble/cy_ble_gap.h **** /** Store BLE Application Data parameter into flash */
 362:Generated_Source\PSoC6\pdl\middleware\ble/cy_ble_gap.h **** typedef struct
 363:Generated_Source\PSoC6\pdl\middleware\ble/cy_ble_gap.h **** {
 364:Generated_Source\PSoC6\pdl\middleware\ble/cy_ble_gap.h ****     /** Source buffer */
 365:Generated_Source\PSoC6\pdl\middleware\ble/cy_ble_gap.h ****     const uint8_t *srcBuff;
 366:Generated_Source\PSoC6\pdl\middleware\ble/cy_ble_gap.h **** 
 367:Generated_Source\PSoC6\pdl\middleware\ble/cy_ble_gap.h ****     /** Destination buffer */
 368:Generated_Source\PSoC6\pdl\middleware\ble/cy_ble_gap.h ****     const uint8_t *destAddr;
 369:Generated_Source\PSoC6\pdl\middleware\ble/cy_ble_gap.h **** 
 370:Generated_Source\PSoC6\pdl\middleware\ble/cy_ble_gap.h ****     /** Source buffer length */
 371:Generated_Source\PSoC6\pdl\middleware\ble/cy_ble_gap.h ****     uint32_t      buffLen;
 372:Generated_Source\PSoC6\pdl\middleware\ble/cy_ble_gap.h ****     
 373:Generated_Source\PSoC6\pdl\middleware\ble/cy_ble_gap.h ****     /** Write mode: blocking (default) / non-blocking */
 374:Generated_Source\PSoC6\pdl\middleware\ble/cy_ble_gap.h ****     uint32_t      writeMode;
 375:Generated_Source\PSoC6\pdl\middleware\ble/cy_ble_gap.h ****     
 376:Generated_Source\PSoC6\pdl\middleware\ble/cy_ble_gap.h **** } cy_stc_ble_app_flash_param_t;
 377:Generated_Source\PSoC6\pdl\middleware\ble/cy_ble_gap.h **** 
 378:Generated_Source\PSoC6\pdl\middleware\ble/cy_ble_gap.h **** /** @} group_ble_common_api_gap_definitions */
 379:Generated_Source\PSoC6\pdl\middleware\ble/cy_ble_gap.h ****  
 380:Generated_Source\PSoC6\pdl\middleware\ble/cy_ble_gap.h **** /***************************************
 381:Generated_Source\PSoC6\pdl\middleware\ble/cy_ble_gap.h **** * API Constants
 382:Generated_Source\PSoC6\pdl\middleware\ble/cy_ble_gap.h **** ***************************************/
 383:Generated_Source\PSoC6\pdl\middleware\ble/cy_ble_gap.h **** #define CY_BLE_AD_TYPE_MORE16UUID                  (0x02u)
 384:Generated_Source\PSoC6\pdl\middleware\ble/cy_ble_gap.h **** #define CY_BLE_AD_TYPE_CMPL16UUID                  (0x03u)
 385:Generated_Source\PSoC6\pdl\middleware\ble/cy_ble_gap.h **** #define CY_BLE_AD_TYPE_MORE32UUID                  (0x04u)
 386:Generated_Source\PSoC6\pdl\middleware\ble/cy_ble_gap.h **** #define CY_BLE_AD_TYPE_CMPL32UUID                  (0x05u)
 387:Generated_Source\PSoC6\pdl\middleware\ble/cy_ble_gap.h **** #define CY_BLE_AD_TYPE_MORE128UUID                 (0x06u)
 388:Generated_Source\PSoC6\pdl\middleware\ble/cy_ble_gap.h **** #define CY_BLE_AD_TYPE_CMPL128UUID                 (0x07u)
 389:Generated_Source\PSoC6\pdl\middleware\ble/cy_ble_gap.h **** 
 390:Generated_Source\PSoC6\pdl\middleware\ble/cy_ble_gap.h **** #define CY_BLE_AD_TYPE_SERVICE_DATA                (0x16u)
 391:Generated_Source\PSoC6\pdl\middleware\ble/cy_ble_gap.h **** #define CY_BLE_AD_SERVICE_DATA_OVERHEAD            (0x03u)
 392:Generated_Source\PSoC6\pdl\middleware\ble/cy_ble_gap.h **** 
 393:Generated_Source\PSoC6\pdl\middleware\ble/cy_ble_gap.h **** #define CY_BLE_DISCOVERY_IDLE                      (0x00u)
 394:Generated_Source\PSoC6\pdl\middleware\ble/cy_ble_gap.h **** #define CY_BLE_DISCOVERY_SERVICE                   (0x01u)
 395:Generated_Source\PSoC6\pdl\middleware\ble/cy_ble_gap.h **** #define CY_BLE_DISCOVERY_CHAR                      (0x02u)
 396:Generated_Source\PSoC6\pdl\middleware\ble/cy_ble_gap.h **** #define CY_BLE_DISCOVERY_DESCR                     (0x03u)
 397:Generated_Source\PSoC6\pdl\middleware\ble/cy_ble_gap.h **** #define CY_BLE_DISCOVERY_DONE                      (0x04u)
ARM GAS  C:\Users\guill\AppData\Local\Temp\ccKdZhTR.s 			page 24


 398:Generated_Source\PSoC6\pdl\middleware\ble/cy_ble_gap.h **** 
 399:Generated_Source\PSoC6\pdl\middleware\ble/cy_ble_gap.h **** /* Cy_BLE_NextCharDscrDiscovery parameters */
 400:Generated_Source\PSoC6\pdl\middleware\ble/cy_ble_gap.h **** #define CY_BLE_DISCOVERY_INIT                      (0x00u)
 401:Generated_Source\PSoC6\pdl\middleware\ble/cy_ble_gap.h **** #define CY_BLE_DISCOVERY_CONTINUE                  (0x01u)
 402:Generated_Source\PSoC6\pdl\middleware\ble/cy_ble_gap.h **** 
 403:Generated_Source\PSoC6\pdl\middleware\ble/cy_ble_gap.h **** #define CY_BLE_SFLASH_DIE_X_MASK                   (0x3Fu)
 404:Generated_Source\PSoC6\pdl\middleware\ble/cy_ble_gap.h **** #define CY_BLE_SFLASH_DIE_X_BITS                   (6u)
 405:Generated_Source\PSoC6\pdl\middleware\ble/cy_ble_gap.h **** #define CY_BLE_SFLASH_DIE_Y_MASK                   (0x3Fu)
 406:Generated_Source\PSoC6\pdl\middleware\ble/cy_ble_gap.h **** #define CY_BLE_SFLASH_DIE_Y_BITS                   (6u)
 407:Generated_Source\PSoC6\pdl\middleware\ble/cy_ble_gap.h **** #define CY_BLE_SFLASH_DIE_XY_BITS                  (CY_BLE_SFLASH_DIE_X_BITS + CY_BLE_SFLASH_DIE_Y_
 408:Generated_Source\PSoC6\pdl\middleware\ble/cy_ble_gap.h **** #define CY_BLE_SFLASH_DIE_WAFER_MASK               (0x1Fu)
 409:Generated_Source\PSoC6\pdl\middleware\ble/cy_ble_gap.h **** #define CY_BLE_SFLASH_DIE_WAFER_BITS               (5u)
 410:Generated_Source\PSoC6\pdl\middleware\ble/cy_ble_gap.h **** #define CY_BLE_SFLASH_DIE_XYWAFER_BITS             (CY_BLE_SFLASH_DIE_XY_BITS + CY_BLE_SFLASH_DIE_W
 411:Generated_Source\PSoC6\pdl\middleware\ble/cy_ble_gap.h **** #define CY_BLE_SFLASH_DIE_LOT_MASK                 (0x7Fu)
 412:Generated_Source\PSoC6\pdl\middleware\ble/cy_ble_gap.h **** #define CY_BLE_SFLASH_DIE_LOT_BITS                 (7u)
 413:Generated_Source\PSoC6\pdl\middleware\ble/cy_ble_gap.h **** 
 414:Generated_Source\PSoC6\pdl\middleware\ble/cy_ble_gap.h **** /* Device address stored by user in ROW4 of the SFLASH */
 415:Generated_Source\PSoC6\pdl\middleware\ble/cy_ble_gap.h **** #define CY_BLE_SFLASH_DEVICE_ADDRESS_PTR           ((cy_stc_ble_gap_bd_addr_t*)(SFLASH->BLE_DEVICE_
 416:Generated_Source\PSoC6\pdl\middleware\ble/cy_ble_gap.h **** #define CY_BLE_AD_STRUCTURE_MAX_LENGTH             (31u)
 417:Generated_Source\PSoC6\pdl\middleware\ble/cy_ble_gap.h **** 
 418:Generated_Source\PSoC6\pdl\middleware\ble/cy_ble_gap.h **** /* AD types for complete, shortened local name and device address */
 419:Generated_Source\PSoC6\pdl\middleware\ble/cy_ble_gap.h **** #define CY_BLE_SHORT_LOCAL_NAME                    (0x08u)  /**< Shortened Local Name */
 420:Generated_Source\PSoC6\pdl\middleware\ble/cy_ble_gap.h **** #define CY_BLE_COMPLETE_LOCAL_NAME                 (0x09u)  /**< Complete Local Name */
 421:Generated_Source\PSoC6\pdl\middleware\ble/cy_ble_gap.h **** #define CY_BLE_ADV_DEVICE_ADDR                     (0x1Bu)  /**< LE Bluetooth Device Address */
 422:Generated_Source\PSoC6\pdl\middleware\ble/cy_ble_gap.h **** 
 423:Generated_Source\PSoC6\pdl\middleware\ble/cy_ble_gap.h **** #define CY_BLE_ADVERTISING_FAST                    (0x00u)
 424:Generated_Source\PSoC6\pdl\middleware\ble/cy_ble_gap.h **** #define CY_BLE_ADVERTISING_SLOW                    (0x01u)
 425:Generated_Source\PSoC6\pdl\middleware\ble/cy_ble_gap.h **** #define CY_BLE_ADVERTISING_CUSTOM                  (0x02u)
 426:Generated_Source\PSoC6\pdl\middleware\ble/cy_ble_gap.h **** 
 427:Generated_Source\PSoC6\pdl\middleware\ble/cy_ble_gap.h **** #define CY_BLE_SCANNING_FAST                       (0x00u)
 428:Generated_Source\PSoC6\pdl\middleware\ble/cy_ble_gap.h **** #define CY_BLE_SCANNING_SLOW                       (0x01u)
 429:Generated_Source\PSoC6\pdl\middleware\ble/cy_ble_gap.h **** #define CY_BLE_SCANNING_CUSTOM                     (0x02u)
 430:Generated_Source\PSoC6\pdl\middleware\ble/cy_ble_gap.h **** 
 431:Generated_Source\PSoC6\pdl\middleware\ble/cy_ble_gap.h **** #define CY_BLE_PENDING_STACK_FLASH_WRITE_BIT       (0x01u)
 432:Generated_Source\PSoC6\pdl\middleware\ble/cy_ble_gap.h **** #define CY_BLE_PENDING_CCCD_FLASH_WRITE_BIT        (0x02u)
 433:Generated_Source\PSoC6\pdl\middleware\ble/cy_ble_gap.h **** #define CY_BLE_PENDING_CCCD_FLASH_CLEAR_BIT        (0x04u)
 434:Generated_Source\PSoC6\pdl\middleware\ble/cy_ble_gap.h **** #define CY_BLE_PENDING_CCCD_FLASH_CLEAR_ALL_BIT    (0x08u)
 435:Generated_Source\PSoC6\pdl\middleware\ble/cy_ble_gap.h **** #define CY_BLE_PENDING_CCCD_FLASH_CLEAR_MASK \
 436:Generated_Source\PSoC6\pdl\middleware\ble/cy_ble_gap.h ****     (CY_BLE_PENDING_CCCD_FLASH_CLEAR_BIT | CY_BLE_PENDING_CCCD_FLASH_CLEAR_ALL_BIT)
 437:Generated_Source\PSoC6\pdl\middleware\ble/cy_ble_gap.h ****   
 438:Generated_Source\PSoC6\pdl\middleware\ble/cy_ble_gap.h **** /**
 439:Generated_Source\PSoC6\pdl\middleware\ble/cy_ble_gap.h ****  * \addtogroup group_ble_common_api_macros
 440:Generated_Source\PSoC6\pdl\middleware\ble/cy_ble_gap.h ****  * @{
 441:Generated_Source\PSoC6\pdl\middleware\ble/cy_ble_gap.h ****  */
 442:Generated_Source\PSoC6\pdl\middleware\ble/cy_ble_gap.h ****  
 443:Generated_Source\PSoC6\pdl\middleware\ble/cy_ble_gap.h **** /* GAP Advertisement Flags */
 444:Generated_Source\PSoC6\pdl\middleware\ble/cy_ble_gap.h **** #define CY_BLE_GAP_ADV_FLAG_LE_LIMITED_DISC_MODE        (0x01u)     /**< LE Limited Discoverable Mo
 445:Generated_Source\PSoC6\pdl\middleware\ble/cy_ble_gap.h **** #define CY_BLE_GAP_ADV_FLAG_LE_GENERAL_DISC_MODE        (0x02u)     /**< LE General Discoverable Mo
 446:Generated_Source\PSoC6\pdl\middleware\ble/cy_ble_gap.h **** #define CY_BLE_GAP_ADV_FLAG_BR_EDR_NOT_SUPPORTED        (0x04u)     /**< BR/EDR not supported. */
 447:Generated_Source\PSoC6\pdl\middleware\ble/cy_ble_gap.h **** #define CY_BLE_GAP_ADV_FLAG_LE_BR_EDR_CONTROLLER        (0x08u)     /**< Simultaneous LE and BR/EDR
 448:Generated_Source\PSoC6\pdl\middleware\ble/cy_ble_gap.h **** #define CY_BLE_GAP_ADV_FLAG_LE_BR_EDR_HOST              (0x10u)     /**< Simultaneous LE and BR/EDR
 449:Generated_Source\PSoC6\pdl\middleware\ble/cy_ble_gap.h **** #define CY_BLE_GAP_ADV_FLAGS_PACKET_LENGTH              (0x02u)     /**< Length of flags in an adve
 450:Generated_Source\PSoC6\pdl\middleware\ble/cy_ble_gap.h **** 
 451:Generated_Source\PSoC6\pdl\middleware\ble/cy_ble_gap.h **** /* GAP Advertising interval min and max */
 452:Generated_Source\PSoC6\pdl\middleware\ble/cy_ble_gap.h **** #define CY_BLE_GAP_ADV_ADVERT_INTERVAL_MIN              (0x0020u)   /**< Minimum Advertising interv
 453:Generated_Source\PSoC6\pdl\middleware\ble/cy_ble_gap.h ****                                                                      *   i.e. 20 ms. */
 454:Generated_Source\PSoC6\pdl\middleware\ble/cy_ble_gap.h **** #define CY_BLE_GAP_ADV_ADVERT_INTERVAL_NONCON_MIN       (0x00A0u)   /**< Minimum Advertising interv
ARM GAS  C:\Users\guill\AppData\Local\Temp\ccKdZhTR.s 			page 25


 455:Generated_Source\PSoC6\pdl\middleware\ble/cy_ble_gap.h ****                                                                      *   for non connectable mode, 
 456:Generated_Source\PSoC6\pdl\middleware\ble/cy_ble_gap.h **** #define CY_BLE_GAP_ADV_ADVERT_INTERVAL_MAX              (0x4000u)   /**< Maximum Advertising interv
 457:Generated_Source\PSoC6\pdl\middleware\ble/cy_ble_gap.h ****                                                                      *   i.e. 10.24 s. */
 458:Generated_Source\PSoC6\pdl\middleware\ble/cy_ble_gap.h **** #define CY_BLE_GAP_ADV_ADVERT_INTERVAL_PACKET_LENGTH    (0x03u)     /**< Length of the Advertising 
 459:Generated_Source\PSoC6\pdl\middleware\ble/cy_ble_gap.h ****                                                                      *   an advertisement packet */
 460:Generated_Source\PSoC6\pdl\middleware\ble/cy_ble_gap.h **** #define CY_BLE_GAPC_CONNECTING_TIMEOUT                  (30u)       /**< Seconds */
 461:Generated_Source\PSoC6\pdl\middleware\ble/cy_ble_gap.h **** #define CY_BLE_INVALID_CONN_HANDLE_VALUE                (0xFFu)     /**< Invalid Connection Handle 
 462:Generated_Source\PSoC6\pdl\middleware\ble/cy_ble_gap.h **** 
 463:Generated_Source\PSoC6\pdl\middleware\ble/cy_ble_gap.h **** /* Write mode for Cy_BLE_StoreAppData */
 464:Generated_Source\PSoC6\pdl\middleware\ble/cy_ble_gap.h **** #define CY_BLE_STORE_DATA_MODE_BLOCKING                 (0x0u)      /**< Blocking write */
 465:Generated_Source\PSoC6\pdl\middleware\ble/cy_ble_gap.h **** #define CY_BLE_STORE_DATA_MODE_NON_BLOCKING             (0x1u)      /**< Non-blocking write */
 466:Generated_Source\PSoC6\pdl\middleware\ble/cy_ble_gap.h **** 
 467:Generated_Source\PSoC6\pdl\middleware\ble/cy_ble_gap.h **** /** @} group_ble_common_api_macros */
 468:Generated_Source\PSoC6\pdl\middleware\ble/cy_ble_gap.h **** 
 469:Generated_Source\PSoC6\pdl\middleware\ble/cy_ble_gap.h **** /***************************************
 470:Generated_Source\PSoC6\pdl\middleware\ble/cy_ble_gap.h **** * Private Function Prototypes
 471:Generated_Source\PSoC6\pdl\middleware\ble/cy_ble_gap.h **** ***************************************/
 472:Generated_Source\PSoC6\pdl\middleware\ble/cy_ble_gap.h **** void Cy_BLE_ServiceInit(void);
 473:Generated_Source\PSoC6\pdl\middleware\ble/cy_ble_gap.h **** uint32_t Cy_BLE_GetDiscoveryIdx(cy_stc_ble_conn_handle_t connHandle);
 474:Generated_Source\PSoC6\pdl\middleware\ble/cy_ble_gap.h **** 
 475:Generated_Source\PSoC6\pdl\middleware\ble/cy_ble_gap.h **** /***************************************
 476:Generated_Source\PSoC6\pdl\middleware\ble/cy_ble_gap.h **** * Function Prototypes
 477:Generated_Source\PSoC6\pdl\middleware\ble/cy_ble_gap.h **** ***************************************/
 478:Generated_Source\PSoC6\pdl\middleware\ble/cy_ble_gap.h **** /**
 479:Generated_Source\PSoC6\pdl\middleware\ble/cy_ble_gap.h ****  * \addtogroup group_ble_common_api_functions
 480:Generated_Source\PSoC6\pdl\middleware\ble/cy_ble_gap.h ****  * @{
 481:Generated_Source\PSoC6\pdl\middleware\ble/cy_ble_gap.h ****  */
 482:Generated_Source\PSoC6\pdl\middleware\ble/cy_ble_gap.h **** 
 483:Generated_Source\PSoC6\pdl\middleware\ble/cy_ble_gap.h **** cy_en_ble_api_result_t Cy_BLE_StoreAppData(const cy_stc_ble_app_flash_param_t *param);
 484:Generated_Source\PSoC6\pdl\middleware\ble/cy_ble_gap.h **** 
 485:Generated_Source\PSoC6\pdl\middleware\ble/cy_ble_gap.h **** #if ((CY_BLE_GAP_ROLE_PERIPHERAL || CY_BLE_GAP_ROLE_CENTRAL) && (CY_BLE_BONDING_REQUIREMENT == CY_B
 486:Generated_Source\PSoC6\pdl\middleware\ble/cy_ble_gap.h **** cy_en_ble_api_result_t Cy_BLE_StoreBondingData(void);
 487:Generated_Source\PSoC6\pdl\middleware\ble/cy_ble_gap.h **** cy_en_ble_api_result_t Cy_BLE_GAP_RemoveBondedDevice(cy_stc_ble_gap_bd_addr_t* bdAddr);
 488:Generated_Source\PSoC6\pdl\middleware\ble/cy_ble_gap.h **** #endif /* (CY_BLE_GAP_ROLE_PERIPHERAL || CY_BLE_GAP_ROLE_CENTRAL) && (CY_BLE_BONDING_REQUIREMENT ==
 489:Generated_Source\PSoC6\pdl\middleware\ble/cy_ble_gap.h **** 
 490:Generated_Source\PSoC6\pdl\middleware\ble/cy_ble_gap.h **** #if (CY_BLE_GAP_ROLE_PERIPHERAL || CY_BLE_GAP_ROLE_CENTRAL)
 491:Generated_Source\PSoC6\pdl\middleware\ble/cy_ble_gap.h **** bool Cy_BLE_IsPeerConnected(uint8_t *bdAddr);
 492:Generated_Source\PSoC6\pdl\middleware\ble/cy_ble_gap.h **** bool Cy_BLE_IsDevicePaired(cy_stc_ble_conn_handle_t *connHandle);
 493:Generated_Source\PSoC6\pdl\middleware\ble/cy_ble_gap.h **** uint8_t Cy_BLE_GetDeviceRole(cy_stc_ble_conn_handle_t *connHandle);
 494:Generated_Source\PSoC6\pdl\middleware\ble/cy_ble_gap.h **** 
 495:Generated_Source\PSoC6\pdl\middleware\ble/cy_ble_gap.h **** cy_en_ble_api_result_t Cy_BLE_GetRssiPeer(uint8_t  bdHandle);
 496:Generated_Source\PSoC6\pdl\middleware\ble/cy_ble_gap.h **** #endif /* (CY_BLE_GAP_ROLE_PERIPHERAL || CY_BLE_GAP_ROLE_CENTRAL) */
 497:Generated_Source\PSoC6\pdl\middleware\ble/cy_ble_gap.h **** /** @} group_ble_common_api_functions */
 498:Generated_Source\PSoC6\pdl\middleware\ble/cy_ble_gap.h **** 
 499:Generated_Source\PSoC6\pdl\middleware\ble/cy_ble_gap.h **** /**
 500:Generated_Source\PSoC6\pdl\middleware\ble/cy_ble_gap.h ****  * \addtogroup group_ble_common_api_gap_peripheral_functions
 501:Generated_Source\PSoC6\pdl\middleware\ble/cy_ble_gap.h ****  * @{
 502:Generated_Source\PSoC6\pdl\middleware\ble/cy_ble_gap.h ****  */
 503:Generated_Source\PSoC6\pdl\middleware\ble/cy_ble_gap.h ****  
 504:Generated_Source\PSoC6\pdl\middleware\ble/cy_ble_gap.h **** #if (CY_BLE_GAP_ROLE_PERIPHERAL || CY_BLE_GAP_ROLE_BROADCASTER)
 505:Generated_Source\PSoC6\pdl\middleware\ble/cy_ble_gap.h **** cy_en_ble_api_result_t Cy_BLE_GAPP_StartAdvertisement(uint8_t advertisingIntervalType, uint8_t adve
 506:Generated_Source\PSoC6\pdl\middleware\ble/cy_ble_gap.h **** cy_en_ble_api_result_t Cy_BLE_GAPP_StopAdvertisement(void);
 507:Generated_Source\PSoC6\pdl\middleware\ble/cy_ble_gap.h **** 
 508:Generated_Source\PSoC6\pdl\middleware\ble/cy_ble_gap.h **** /** \cond IGNORE */
 509:Generated_Source\PSoC6\pdl\middleware\ble/cy_ble_gap.h **** void Cy_BLE_ChangeAdDeviceAddress(const cy_stc_ble_gap_bd_addr_t* bdAddr, uint8_t dest);
 510:Generated_Source\PSoC6\pdl\middleware\ble/cy_ble_gap.h **** /** \endcond */
 511:Generated_Source\PSoC6\pdl\middleware\ble/cy_ble_gap.h **** 
ARM GAS  C:\Users\guill\AppData\Local\Temp\ccKdZhTR.s 			page 26


 512:Generated_Source\PSoC6\pdl\middleware\ble/cy_ble_gap.h **** #endif /* CY_BLE_GAP_ROLE_PERIPHERAL */
 513:Generated_Source\PSoC6\pdl\middleware\ble/cy_ble_gap.h **** 
 514:Generated_Source\PSoC6\pdl\middleware\ble/cy_ble_gap.h **** /** @} group_ble_common_api_gap_peripheral_functions */
 515:Generated_Source\PSoC6\pdl\middleware\ble/cy_ble_gap.h **** 
 516:Generated_Source\PSoC6\pdl\middleware\ble/cy_ble_gap.h **** /**
 517:Generated_Source\PSoC6\pdl\middleware\ble/cy_ble_gap.h ****  * \addtogroup group_ble_common_api_gap_central_functions
 518:Generated_Source\PSoC6\pdl\middleware\ble/cy_ble_gap.h ****  * @{
 519:Generated_Source\PSoC6\pdl\middleware\ble/cy_ble_gap.h ****  */
 520:Generated_Source\PSoC6\pdl\middleware\ble/cy_ble_gap.h ****  
 521:Generated_Source\PSoC6\pdl\middleware\ble/cy_ble_gap.h **** #if (CY_BLE_GAP_ROLE_CENTRAL || CY_BLE_GAP_ROLE_OBSERVER)
 522:Generated_Source\PSoC6\pdl\middleware\ble/cy_ble_gap.h **** cy_en_ble_api_result_t Cy_BLE_GAPC_StartScan(uint8_t scanningIntervalType, uint8_t scanParamIndex);
 523:Generated_Source\PSoC6\pdl\middleware\ble/cy_ble_gap.h **** cy_en_ble_api_result_t Cy_BLE_GAPC_StopScan(void);
 524:Generated_Source\PSoC6\pdl\middleware\ble/cy_ble_gap.h **** #endif /* CY_BLE_GAP_ROLE_CENTRAL || CY_BLE_GAP_ROLE_OBSERVER */
 525:Generated_Source\PSoC6\pdl\middleware\ble/cy_ble_gap.h **** 
 526:Generated_Source\PSoC6\pdl\middleware\ble/cy_ble_gap.h **** #if (CY_BLE_GAP_ROLE_CENTRAL)
 527:Generated_Source\PSoC6\pdl\middleware\ble/cy_ble_gap.h **** cy_en_ble_api_result_t Cy_BLE_GAPC_ConnectDevice(const cy_stc_ble_gap_bd_addr_t * address, uint8_t 
 528:Generated_Source\PSoC6\pdl\middleware\ble/cy_ble_gap.h **** cy_en_ble_api_result_t Cy_BLE_GAPC_CancelDeviceConnection(void);
 529:Generated_Source\PSoC6\pdl\middleware\ble/cy_ble_gap.h **** #endif /* CY_BLE_GAP_ROLE_CENTRAL */
 530:Generated_Source\PSoC6\pdl\middleware\ble/cy_ble_gap.h **** 
 531:Generated_Source\PSoC6\pdl\middleware\ble/cy_ble_gap.h **** /** @} group_ble_common_api_gap_central_functions */
 532:Generated_Source\PSoC6\pdl\middleware\ble/cy_ble_gap.h **** 
 533:Generated_Source\PSoC6\pdl\middleware\ble/cy_ble_gap.h **** /***************************************
 534:Generated_Source\PSoC6\pdl\middleware\ble/cy_ble_gap.h **** * External data references
 535:Generated_Source\PSoC6\pdl\middleware\ble/cy_ble_gap.h **** ***************************************/
 536:Generated_Source\PSoC6\pdl\middleware\ble/cy_ble_gap.h **** extern volatile uint8_t cy_ble_eventHandlerFlag;
 537:Generated_Source\PSoC6\pdl\middleware\ble/cy_ble_gap.h **** extern cy_stc_ble_gap_bd_addr_t *cy_ble_sflashDeviceAddress;
 538:Generated_Source\PSoC6\pdl\middleware\ble/cy_ble_gap.h **** extern cy_stc_ble_gap_bd_addr_t cy_ble_deviceAddress;
 539:Generated_Source\PSoC6\pdl\middleware\ble/cy_ble_gap.h **** extern cy_en_ble_state_t cy_ble_state;
 540:Generated_Source\PSoC6\pdl\middleware\ble/cy_ble_gap.h **** 
 541:Generated_Source\PSoC6\pdl\middleware\ble/cy_ble_gap.h **** #if ((CY_BLE_GAP_ROLE_PERIPHERAL || CY_BLE_GAP_ROLE_CENTRAL))
 542:Generated_Source\PSoC6\pdl\middleware\ble/cy_ble_gap.h **** extern cy_stc_ble_gap_auth_info_t cy_ble_authInfo[CY_BLE_AUTH_INFO_COUNT];
 543:Generated_Source\PSoC6\pdl\middleware\ble/cy_ble_gap.h **** #endif /* ((CY_BLE_GAP_ROLE_PERIPHERAL || CY_BLE_GAP_ROLE_CENTRAL)) */
 544:Generated_Source\PSoC6\pdl\middleware\ble/cy_ble_gap.h **** 
 545:Generated_Source\PSoC6\pdl\middleware\ble/cy_ble_gap.h **** #if (CY_BLE_GAP_ROLE_PERIPHERAL || CY_BLE_GAP_ROLE_BROADCASTER)
 546:Generated_Source\PSoC6\pdl\middleware\ble/cy_ble_gap.h **** extern cy_en_ble_adv_state_t cy_ble_advState;
 547:Generated_Source\PSoC6\pdl\middleware\ble/cy_ble_gap.h **** extern uint8_t cy_ble_advIndex;
 548:Generated_Source\PSoC6\pdl\middleware\ble/cy_ble_gap.h **** #endif  /* (CY_BLE_GAP_ROLE_PERIPHERAL || CY_BLE_GAP_ROLE_BROADCASTER) */
 549:Generated_Source\PSoC6\pdl\middleware\ble/cy_ble_gap.h **** 
 550:Generated_Source\PSoC6\pdl\middleware\ble/cy_ble_gap.h **** #if (CY_BLE_GAP_ROLE_CENTRAL || CY_BLE_GAP_ROLE_OBSERVER)
 551:Generated_Source\PSoC6\pdl\middleware\ble/cy_ble_gap.h **** extern cy_en_ble_scan_state_t cy_ble_scanState;
 552:Generated_Source\PSoC6\pdl\middleware\ble/cy_ble_gap.h **** extern uint8_t cy_ble_scanIndex;
 553:Generated_Source\PSoC6\pdl\middleware\ble/cy_ble_gap.h **** #endif /* (CY_BLE_GAP_ROLE_CENTRAL || CY_BLE_GAP_ROLE_OBSERVER) */
 554:Generated_Source\PSoC6\pdl\middleware\ble/cy_ble_gap.h **** 
 555:Generated_Source\PSoC6\pdl\middleware\ble/cy_ble_gap.h **** #if ((CY_BLE_GAP_ROLE_PERIPHERAL || CY_BLE_GAP_ROLE_CENTRAL))
 556:Generated_Source\PSoC6\pdl\middleware\ble/cy_ble_gap.h **** extern cy_stc_ble_conn_handle_t cy_ble_connHandle[CY_BLE_CONN_COUNT];
 557:Generated_Source\PSoC6\pdl\middleware\ble/cy_ble_gap.h **** extern cy_en_ble_conn_state_t cy_ble_connState[CY_BLE_CONN_COUNT];
 558:Generated_Source\PSoC6\pdl\middleware\ble/cy_ble_gap.h **** 
 559:Generated_Source\PSoC6\pdl\middleware\ble/cy_ble_gap.h **** extern volatile uint8_t cy_ble_devConnRole[CY_BLE_CONN_COUNT];                                     
 560:Generated_Source\PSoC6\pdl\middleware\ble/cy_ble_gap.h **** extern volatile bool cy_ble_pairStatus[CY_BLE_CONN_COUNT];
 561:Generated_Source\PSoC6\pdl\middleware\ble/cy_ble_gap.h **** 
 562:Generated_Source\PSoC6\pdl\middleware\ble/cy_ble_gap.h **** #endif /* ((CY_BLE_GAP_ROLE_PERIPHERAL || CY_BLE_GAP_ROLE_CENTRAL)) */
 563:Generated_Source\PSoC6\pdl\middleware\ble/cy_ble_gap.h **** 
 564:Generated_Source\PSoC6\pdl\middleware\ble/cy_ble_gap.h **** #if (CY_BLE_GAP_ROLE_CENTRAL || CY_BLE_GAP_ROLE_OBSERVER)
 565:Generated_Source\PSoC6\pdl\middleware\ble/cy_ble_gap.h **** extern cy_stc_ble_gapc_disc_info_t cy_ble_discoveryInfo[CY_BLE_GAPC_CONF_COUNT];
 566:Generated_Source\PSoC6\pdl\middleware\ble/cy_ble_gap.h **** #endif /* CY_BLE_GAP_ROLE_CENTRAL || CY_BLE_GAP_ROLE_OBSERVER */
 567:Generated_Source\PSoC6\pdl\middleware\ble/cy_ble_gap.h **** 
 568:Generated_Source\PSoC6\pdl\middleware\ble/cy_ble_gap.h **** #if (CY_BLE_GAP_ROLE_CENTRAL)
ARM GAS  C:\Users\guill\AppData\Local\Temp\ccKdZhTR.s 			page 27


 569:Generated_Source\PSoC6\pdl\middleware\ble/cy_ble_gap.h **** extern cy_stc_ble_gapc_conn_info_t cy_ble_connectionParameters;
 570:Generated_Source\PSoC6\pdl\middleware\ble/cy_ble_gap.h **** extern cy_stc_ble_timer_info_t cy_ble_connectingTimeout;
 571:Generated_Source\PSoC6\pdl\middleware\ble/cy_ble_gap.h **** #endif /* CY_BLE_GAP_ROLE_CENTRAL */
 572:Generated_Source\PSoC6\pdl\middleware\ble/cy_ble_gap.h **** 
 573:Generated_Source\PSoC6\pdl\middleware\ble/cy_ble_gap.h **** #if (CY_BLE_GAP_ROLE_PERIPHERAL || CY_BLE_GAP_ROLE_BROADCASTER)
 574:Generated_Source\PSoC6\pdl\middleware\ble/cy_ble_gap.h **** extern cy_stc_ble_gapp_disc_mode_info_t cy_ble_discoveryModeInfo[CY_BLE_GAPP_CONF_COUNT];
 575:Generated_Source\PSoC6\pdl\middleware\ble/cy_ble_gap.h **** extern cy_stc_ble_gapp_disc_param_t cy_ble_discoveryParam[CY_BLE_GAPP_CONF_COUNT];
 576:Generated_Source\PSoC6\pdl\middleware\ble/cy_ble_gap.h **** extern cy_stc_ble_gapp_disc_data_t cy_ble_discoveryData[CY_BLE_GAPP_CONF_COUNT];
 577:Generated_Source\PSoC6\pdl\middleware\ble/cy_ble_gap.h **** extern cy_stc_ble_gapp_scan_rsp_data_t cy_ble_scanRspData[CY_BLE_GAPP_CONF_COUNT];
 578:Generated_Source\PSoC6\pdl\middleware\ble/cy_ble_gap.h **** #endif /* CY_BLE_GAP_ROLE_PERIPHERAL || CY_BLE_GAP_ROLE_BROADCASTER */
 579:Generated_Source\PSoC6\pdl\middleware\ble/cy_ble_gap.h **** 
 580:Generated_Source\PSoC6\pdl\middleware\ble/cy_ble_gap.h **** #if ((CY_BLE_GAP_ROLE_PERIPHERAL || CY_BLE_GAP_ROLE_CENTRAL) && (CY_BLE_BONDING_REQUIREMENT == CY_B
 581:Generated_Source\PSoC6\pdl\middleware\ble/cy_ble_gap.h **** 
 582:Generated_Source\PSoC6\pdl\middleware\ble/cy_ble_gap.h **** /**
 583:Generated_Source\PSoC6\pdl\middleware\ble/cy_ble_gap.h ****  * \addtogroup group_ble_common_api_global_variables
 584:Generated_Source\PSoC6\pdl\middleware\ble/cy_ble_gap.h ****  * @{
 585:Generated_Source\PSoC6\pdl\middleware\ble/cy_ble_gap.h ****  */  
 586:Generated_Source\PSoC6\pdl\middleware\ble/cy_ble_gap.h **** /** This is a two-bit variable that contains status of pending write to flash operation.
 587:Generated_Source\PSoC6\pdl\middleware\ble/cy_ble_gap.h ****  * This variable is initialized to zero in Cy_BLE_Init().
 588:Generated_Source\PSoC6\pdl\middleware\ble/cy_ble_gap.h ****  * CY_BLE_PENDING_CCCD_FLASH_WRITE_BIT flag is set after write to CCCD event when a
 589:Generated_Source\PSoC6\pdl\middleware\ble/cy_ble_gap.h ****  * peer device supports bonding (cy_ble_peerBonding[eventParam->connHandle.attId] == CY_BLE_GAP_BON
 590:Generated_Source\PSoC6\pdl\middleware\ble/cy_ble_gap.h ****  * CY_BLE_PENDING_STACK_FLASH_WRITE_BIT flag is set after CY_BLE_EVT_PENDING_FLASH_WRITE event.
 591:Generated_Source\PSoC6\pdl\middleware\ble/cy_ble_gap.h ****  * Cy_BLE_StoreBondingData() should be called to store pending bonding data.
 592:Generated_Source\PSoC6\pdl\middleware\ble/cy_ble_gap.h ****  * This function automatically clears pending bits after write operation is complete.
 593:Generated_Source\PSoC6\pdl\middleware\ble/cy_ble_gap.h ****  */
 594:Generated_Source\PSoC6\pdl\middleware\ble/cy_ble_gap.h **** extern uint8_t cy_ble_pendingFlashWrite;
 595:Generated_Source\PSoC6\pdl\middleware\ble/cy_ble_gap.h **** /** @} group_ble_common_api_global_variables */
 596:Generated_Source\PSoC6\pdl\middleware\ble/cy_ble_gap.h ****     
 597:Generated_Source\PSoC6\pdl\middleware\ble/cy_ble_gap.h **** /** Bonding type setting of peer device, CY_BLE_GAP_BONDING_NONE or CY_BLE_GAP_BONDING.
 598:Generated_Source\PSoC6\pdl\middleware\ble/cy_ble_gap.h ****  * It is initialized after pairing with peer device and used for cy_ble_pendingFlashWrite variable
 599:Generated_Source\PSoC6\pdl\middleware\ble/cy_ble_gap.h ****  * setting.
 600:Generated_Source\PSoC6\pdl\middleware\ble/cy_ble_gap.h ****  */
 601:Generated_Source\PSoC6\pdl\middleware\ble/cy_ble_gap.h **** extern uint8_t cy_ble_peerBonding[CY_BLE_CONN_COUNT];
 602:Generated_Source\PSoC6\pdl\middleware\ble/cy_ble_gap.h **** 
 603:Generated_Source\PSoC6\pdl\middleware\ble/cy_ble_gap.h **** #endif  /* (CY_BLE_BONDING_REQUIREMENT == CY_BLE_BONDING_YES) */
 604:Generated_Source\PSoC6\pdl\middleware\ble/cy_ble_gap.h **** 
 605:Generated_Source\PSoC6\pdl\middleware\ble/cy_ble_gap.h **** 
 606:Generated_Source\PSoC6\pdl\middleware\ble/cy_ble_gap.h **** /***************************************
 607:Generated_Source\PSoC6\pdl\middleware\ble/cy_ble_gap.h **** * Exported Functions (MACROS)
 608:Generated_Source\PSoC6\pdl\middleware\ble/cy_ble_gap.h **** ***************************************/
 609:Generated_Source\PSoC6\pdl\middleware\ble/cy_ble_gap.h **** #if ((CY_BLE_GAP_ROLE_PERIPHERAL || CY_BLE_GAP_ROLE_CENTRAL))
 610:Generated_Source\PSoC6\pdl\middleware\ble/cy_ble_gap.h ****    
 611:Generated_Source\PSoC6\pdl\middleware\ble/cy_ble_gap.h **** /******************************************************************************
 612:Generated_Source\PSoC6\pdl\middleware\ble/cy_ble_gap.h **** * Function Name: Cy_BLE_GetConnHandleIdx
 613:Generated_Source\PSoC6\pdl\middleware\ble/cy_ble_gap.h **** ***************************************************************************//**
 614:Generated_Source\PSoC6\pdl\middleware\ble/cy_ble_gap.h **** *
 615:Generated_Source\PSoC6\pdl\middleware\ble/cy_ble_gap.h **** *  This function searches the array of connection handles (cy_ble_connHandle[])
 616:Generated_Source\PSoC6\pdl\middleware\ble/cy_ble_gap.h **** *  for the location (index) of a handle that corresponds to the input parameter
 617:Generated_Source\PSoC6\pdl\middleware\ble/cy_ble_gap.h **** *  connHandle. bdHandle.
 618:Generated_Source\PSoC6\pdl\middleware\ble/cy_ble_gap.h **** *
 619:Generated_Source\PSoC6\pdl\middleware\ble/cy_ble_gap.h **** *  This function is designated for internal usage. 
 620:Generated_Source\PSoC6\pdl\middleware\ble/cy_ble_gap.h **** *    
 621:Generated_Source\PSoC6\pdl\middleware\ble/cy_ble_gap.h **** *  \param connHandle: The connection handle.
 622:Generated_Source\PSoC6\pdl\middleware\ble/cy_ble_gap.h **** *
 623:Generated_Source\PSoC6\pdl\middleware\ble/cy_ble_gap.h **** *  \return
 624:Generated_Source\PSoC6\pdl\middleware\ble/cy_ble_gap.h **** *  retValue: the index of connHandle  
 625:Generated_Source\PSoC6\pdl\middleware\ble/cy_ble_gap.h **** *    
ARM GAS  C:\Users\guill\AppData\Local\Temp\ccKdZhTR.s 			page 28


 626:Generated_Source\PSoC6\pdl\middleware\ble/cy_ble_gap.h **** ******************************************************************************/
 627:Generated_Source\PSoC6\pdl\middleware\ble/cy_ble_gap.h **** __STATIC_INLINE uint8_t Cy_BLE_GetConnHandleIdx(cy_stc_ble_conn_handle_t connHandle)
 628:Generated_Source\PSoC6\pdl\middleware\ble/cy_ble_gap.h **** {
 629:Generated_Source\PSoC6\pdl\middleware\ble/cy_ble_gap.h ****     uint8_t idx;
 630:Generated_Source\PSoC6\pdl\middleware\ble/cy_ble_gap.h ****     uint8_t retValue = CY_BLE_CONN_COUNT;
 631:Generated_Source\PSoC6\pdl\middleware\ble/cy_ble_gap.h **** 
 632:Generated_Source\PSoC6\pdl\middleware\ble/cy_ble_gap.h ****     for(idx = 0u; idx < CY_BLE_CONN_COUNT; idx++)
 633:Generated_Source\PSoC6\pdl\middleware\ble/cy_ble_gap.h ****     {
 634:Generated_Source\PSoC6\pdl\middleware\ble/cy_ble_gap.h ****         if(cy_ble_connHandle[idx].bdHandle == connHandle.bdHandle)
 635:Generated_Source\PSoC6\pdl\middleware\ble/cy_ble_gap.h ****         {
 636:Generated_Source\PSoC6\pdl\middleware\ble/cy_ble_gap.h ****             retValue = idx;
 637:Generated_Source\PSoC6\pdl\middleware\ble/cy_ble_gap.h ****             break;
 638:Generated_Source\PSoC6\pdl\middleware\ble/cy_ble_gap.h ****         }
 639:Generated_Source\PSoC6\pdl\middleware\ble/cy_ble_gap.h ****     }
 640:Generated_Source\PSoC6\pdl\middleware\ble/cy_ble_gap.h ****     if(retValue == CY_BLE_CONN_COUNT)
 641:Generated_Source\PSoC6\pdl\middleware\ble/cy_ble_gap.h ****     {
 642:Generated_Source\PSoC6\pdl\middleware\ble/cy_ble_gap.h ****         /* HALT in debug mode */
 643:Generated_Source\PSoC6\pdl\middleware\ble/cy_ble_gap.h ****         CY_ASSERT(retValue != CY_BLE_CONN_COUNT);
 644:Generated_Source\PSoC6\pdl\middleware\ble/cy_ble_gap.h ****         retValue = 0u;
 645:Generated_Source\PSoC6\pdl\middleware\ble/cy_ble_gap.h ****     }
 646:Generated_Source\PSoC6\pdl\middleware\ble/cy_ble_gap.h **** 
 647:Generated_Source\PSoC6\pdl\middleware\ble/cy_ble_gap.h ****     return(retValue);
 648:Generated_Source\PSoC6\pdl\middleware\ble/cy_ble_gap.h **** }
 649:Generated_Source\PSoC6\pdl\middleware\ble/cy_ble_gap.h **** #endif  /* ((CY_BLE_GAP_ROLE_PERIPHERAL || CY_BLE_GAP_ROLE_CENTRAL)) */
 650:Generated_Source\PSoC6\pdl\middleware\ble/cy_ble_gap.h **** 
 651:Generated_Source\PSoC6\pdl\middleware\ble/cy_ble_gap.h **** /**
 652:Generated_Source\PSoC6\pdl\middleware\ble/cy_ble_gap.h ****  * \addtogroup group_ble_common_api_functions
 653:Generated_Source\PSoC6\pdl\middleware\ble/cy_ble_gap.h ****  * @{
 654:Generated_Source\PSoC6\pdl\middleware\ble/cy_ble_gap.h **** */
 655:Generated_Source\PSoC6\pdl\middleware\ble/cy_ble_gap.h **** /******************************************************************************
 656:Generated_Source\PSoC6\pdl\middleware\ble/cy_ble_gap.h **** * Function Name: Cy_BLE_GetState
 657:Generated_Source\PSoC6\pdl\middleware\ble/cy_ble_gap.h **** ***************************************************************************//**
 658:Generated_Source\PSoC6\pdl\middleware\ble/cy_ble_gap.h **** *
 659:Generated_Source\PSoC6\pdl\middleware\ble/cy_ble_gap.h **** *  This function is used to determine the current state of the BLE Middleware
 660:Generated_Source\PSoC6\pdl\middleware\ble/cy_ble_gap.h **** *  state machine :
 661:Generated_Source\PSoC6\pdl\middleware\ble/cy_ble_gap.h **** *
 662:Generated_Source\PSoC6\pdl\middleware\ble/cy_ble_gap.h **** *  \image html ble_middleware_state_machine.png
 663:Generated_Source\PSoC6\pdl\middleware\ble/cy_ble_gap.h **** *
 664:Generated_Source\PSoC6\pdl\middleware\ble/cy_ble_gap.h **** *  The BLE Middleware is in the state #CY_BLE_STATE_INITIALIZING after the 
 665:Generated_Source\PSoC6\pdl\middleware\ble/cy_ble_gap.h **** *  Cy_BLE_Enable() is called and until the #CY_BLE_EVT_STACK_ON event is not 
 666:Generated_Source\PSoC6\pdl\middleware\ble/cy_ble_gap.h **** *  received. After successful initialization the state is changed to 
 667:Generated_Source\PSoC6\pdl\middleware\ble/cy_ble_gap.h **** *  #CY_BLE_STATE_ON.
 668:Generated_Source\PSoC6\pdl\middleware\ble/cy_ble_gap.h **** *
 669:Generated_Source\PSoC6\pdl\middleware\ble/cy_ble_gap.h **** *  The BLE Middleware is in the state #CY_BLE_STATE_STOPPED 
 670:Generated_Source\PSoC6\pdl\middleware\ble/cy_ble_gap.h **** *  when the #CY_BLE_EVT_STACK_SHUTDOWN_COMPLETE event is received (after the 
 671:Generated_Source\PSoC6\pdl\middleware\ble/cy_ble_gap.h **** *  Cy_BLE_Disable() is called).
 672:Generated_Source\PSoC6\pdl\middleware\ble/cy_ble_gap.h **** *  
 673:Generated_Source\PSoC6\pdl\middleware\ble/cy_ble_gap.h **** *  For GAP Central role when the Cy_BLE_GAPC_ConnectDevice() is called, the state
 674:Generated_Source\PSoC6\pdl\middleware\ble/cy_ble_gap.h **** *  is changed to #CY_BLE_STATE_CONNECTING. After successful connection indicated
 675:Generated_Source\PSoC6\pdl\middleware\ble/cy_ble_gap.h **** *  by #CY_BLE_EVT_GAP_DEVICE_CONNECTED or #CY_BLE_EVT_GAP_ENHANCE_CONN_COMPLETE
 676:Generated_Source\PSoC6\pdl\middleware\ble/cy_ble_gap.h **** *  event or the timeout indicated by #CY_BLE_EVT_TIMEOUT event, the state is
 677:Generated_Source\PSoC6\pdl\middleware\ble/cy_ble_gap.h **** *  changed to #CY_BLE_STATE_ON.
 678:Generated_Source\PSoC6\pdl\middleware\ble/cy_ble_gap.h **** *
 679:Generated_Source\PSoC6\pdl\middleware\ble/cy_ble_gap.h **** * \return
 680:Generated_Source\PSoC6\pdl\middleware\ble/cy_ble_gap.h **** * \ref cy_en_ble_state_t : The current BLE Middleware state. The following are 
 681:Generated_Source\PSoC6\pdl\middleware\ble/cy_ble_gap.h **** *                         possible states:
 682:Generated_Source\PSoC6\pdl\middleware\ble/cy_ble_gap.h **** *
ARM GAS  C:\Users\guill\AppData\Local\Temp\ccKdZhTR.s 			page 29


 683:Generated_Source\PSoC6\pdl\middleware\ble/cy_ble_gap.h **** *   State                      | Description
 684:Generated_Source\PSoC6\pdl\middleware\ble/cy_ble_gap.h **** *   -------------------------- | -----------
 685:Generated_Source\PSoC6\pdl\middleware\ble/cy_ble_gap.h **** *   CY_BLE_STATE_STOPPED       | BLE is turned off.
 686:Generated_Source\PSoC6\pdl\middleware\ble/cy_ble_gap.h **** *   CY_BLE_STATE_INITIALIZING  | BLE is initializing (waiting for #CY_BLE_EVT_STACK_ON event).
 687:Generated_Source\PSoC6\pdl\middleware\ble/cy_ble_gap.h **** *   CY_BLE_STATE_ON            | BLE is turned on.
 688:Generated_Source\PSoC6\pdl\middleware\ble/cy_ble_gap.h **** *   CY_BLE_STATE_CONNECTING    | BLE is connecting.
 689:Generated_Source\PSoC6\pdl\middleware\ble/cy_ble_gap.h **** 
 690:Generated_Source\PSoC6\pdl\middleware\ble/cy_ble_gap.h **** ******************************************************************************/
 691:Generated_Source\PSoC6\pdl\middleware\ble/cy_ble_gap.h **** #define Cy_BLE_GetState()    (cy_ble_state)
 692:Generated_Source\PSoC6\pdl\middleware\ble/cy_ble_gap.h **** 
 693:Generated_Source\PSoC6\pdl\middleware\ble/cy_ble_gap.h **** /** \cond IGNORE */
 694:Generated_Source\PSoC6\pdl\middleware\ble/cy_ble_gap.h **** /******************************************************************************
 695:Generated_Source\PSoC6\pdl\middleware\ble/cy_ble_gap.h **** * Function Name: Cy_BLE_SetState
 696:Generated_Source\PSoC6\pdl\middleware\ble/cy_ble_gap.h **** ***************************************************************************//**
 697:Generated_Source\PSoC6\pdl\middleware\ble/cy_ble_gap.h **** *
 698:Generated_Source\PSoC6\pdl\middleware\ble/cy_ble_gap.h **** *  Used to set the BLE Middleware state machine's state.
 699:Generated_Source\PSoC6\pdl\middleware\ble/cy_ble_gap.h **** *
 700:Generated_Source\PSoC6\pdl\middleware\ble/cy_ble_gap.h **** *  \param state: The desired state to which the event handler's
 701:Generated_Source\PSoC6\pdl\middleware\ble/cy_ble_gap.h **** *   state machine should be set. The parameter state is a variable
 702:Generated_Source\PSoC6\pdl\middleware\ble/cy_ble_gap.h **** *   of type cy_en_ble_state_t.
 703:Generated_Source\PSoC6\pdl\middleware\ble/cy_ble_gap.h **** *
 704:Generated_Source\PSoC6\pdl\middleware\ble/cy_ble_gap.h **** * \return
 705:Generated_Source\PSoC6\pdl\middleware\ble/cy_ble_gap.h **** *  None
 706:Generated_Source\PSoC6\pdl\middleware\ble/cy_ble_gap.h **** *
 707:Generated_Source\PSoC6\pdl\middleware\ble/cy_ble_gap.h **** ******************************************************************************/
 708:Generated_Source\PSoC6\pdl\middleware\ble/cy_ble_gap.h **** #define Cy_BLE_SetState(state)    (cy_ble_state = (state))
 709:Generated_Source\PSoC6\pdl\middleware\ble/cy_ble_gap.h **** /** \endcond */
 710:Generated_Source\PSoC6\pdl\middleware\ble/cy_ble_gap.h **** 
 711:Generated_Source\PSoC6\pdl\middleware\ble/cy_ble_gap.h **** #if (CY_BLE_GAP_ROLE_PERIPHERAL || CY_BLE_GAP_ROLE_BROADCASTER)
 712:Generated_Source\PSoC6\pdl\middleware\ble/cy_ble_gap.h **** 
 713:Generated_Source\PSoC6\pdl\middleware\ble/cy_ble_gap.h **** 
 714:Generated_Source\PSoC6\pdl\middleware\ble/cy_ble_gap.h **** /******************************************************************************
 715:Generated_Source\PSoC6\pdl\middleware\ble/cy_ble_gap.h **** * Function Name: Cy_BLE_GetAdvertisementState
 716:Generated_Source\PSoC6\pdl\middleware\ble/cy_ble_gap.h **** ***************************************************************************//**
 717:Generated_Source\PSoC6\pdl\middleware\ble/cy_ble_gap.h **** *    
 718:Generated_Source\PSoC6\pdl\middleware\ble/cy_ble_gap.h **** *  This function returns the state of the link layer hardware advertisement
 719:Generated_Source\PSoC6\pdl\middleware\ble/cy_ble_gap.h **** *  engine.
 720:Generated_Source\PSoC6\pdl\middleware\ble/cy_ble_gap.h **** *
 721:Generated_Source\PSoC6\pdl\middleware\ble/cy_ble_gap.h **** *  \image html ble_advertisement_state_machine.png
 722:Generated_Source\PSoC6\pdl\middleware\ble/cy_ble_gap.h **** *
 723:Generated_Source\PSoC6\pdl\middleware\ble/cy_ble_gap.h **** *  When Cy_BLE_GAPP_StartAdvertisement() is called, the state is set to
 724:Generated_Source\PSoC6\pdl\middleware\ble/cy_ble_gap.h **** *  #CY_BLE_ADV_STATE_ADV_INITIATED. It automatically changes to
 725:Generated_Source\PSoC6\pdl\middleware\ble/cy_ble_gap.h **** *  #CY_BLE_ADV_STATE_ADVERTISING when #CY_BLE_EVT_GAPP_ADVERTISEMENT_START_STOP
 726:Generated_Source\PSoC6\pdl\middleware\ble/cy_ble_gap.h **** *  event is received. When Cy_BLE_GAPP_StopAdvertisement() is called, the
 727:Generated_Source\PSoC6\pdl\middleware\ble/cy_ble_gap.h **** *  state is set to #CY_BLE_ADV_STATE_STOP_INITIATED. It automatically changes
 728:Generated_Source\PSoC6\pdl\middleware\ble/cy_ble_gap.h **** *  to #CY_BLE_ADV_STATE_STOPPED when the #CY_BLE_EVT_GAPP_ADVERTISEMENT_START_STOP
 729:Generated_Source\PSoC6\pdl\middleware\ble/cy_ble_gap.h **** *  event is received.
 730:Generated_Source\PSoC6\pdl\middleware\ble/cy_ble_gap.h **** *
 731:Generated_Source\PSoC6\pdl\middleware\ble/cy_ble_gap.h **** * \return
 732:Generated_Source\PSoC6\pdl\middleware\ble/cy_ble_gap.h **** * \ref cy_en_ble_adv_state_t :The current advertising state. The following are 
 733:Generated_Source\PSoC6\pdl\middleware\ble/cy_ble_gap.h **** *                              possible states.
 734:Generated_Source\PSoC6\pdl\middleware\ble/cy_ble_gap.h **** *
 735:Generated_Source\PSoC6\pdl\middleware\ble/cy_ble_gap.h **** *               State                |         Description
 736:Generated_Source\PSoC6\pdl\middleware\ble/cy_ble_gap.h **** *   -------------------------------- | -----------------------------
 737:Generated_Source\PSoC6\pdl\middleware\ble/cy_ble_gap.h **** *   CY_BLE_ADV_STATE_STOPPED         | Advertising is stopped.
 738:Generated_Source\PSoC6\pdl\middleware\ble/cy_ble_gap.h **** *   CY_BLE_ADV_STATE_ADV_INITIATED   | Advertising is initiated.
 739:Generated_Source\PSoC6\pdl\middleware\ble/cy_ble_gap.h **** *   CY_BLE_ADV_STATE_ADVERTISING     | Advertising is initiated.
ARM GAS  C:\Users\guill\AppData\Local\Temp\ccKdZhTR.s 			page 30


 740:Generated_Source\PSoC6\pdl\middleware\ble/cy_ble_gap.h **** *   CY_BLE_ADV_STATE_STOP_INITIATED  | Stop advertising is initiated.
 741:Generated_Source\PSoC6\pdl\middleware\ble/cy_ble_gap.h **** *
 742:Generated_Source\PSoC6\pdl\middleware\ble/cy_ble_gap.h **** ******************************************************************************/
 743:Generated_Source\PSoC6\pdl\middleware\ble/cy_ble_gap.h **** __STATIC_INLINE cy_en_ble_adv_state_t Cy_BLE_GetAdvertisementState(void)
 744:Generated_Source\PSoC6\pdl\middleware\ble/cy_ble_gap.h **** {
 745:Generated_Source\PSoC6\pdl\middleware\ble/cy_ble_gap.h ****     return(cy_ble_advState);
 746:Generated_Source\PSoC6\pdl\middleware\ble/cy_ble_gap.h **** }
 747:Generated_Source\PSoC6\pdl\middleware\ble/cy_ble_gap.h **** 
 748:Generated_Source\PSoC6\pdl\middleware\ble/cy_ble_gap.h **** /** \cond IGNORE */
 749:Generated_Source\PSoC6\pdl\middleware\ble/cy_ble_gap.h **** /******************************************************************************
 750:Generated_Source\PSoC6\pdl\middleware\ble/cy_ble_gap.h **** * Function Name: Cy_BLE_SetAdvertisementState
 751:Generated_Source\PSoC6\pdl\middleware\ble/cy_ble_gap.h **** ***************************************************************************//**
 752:Generated_Source\PSoC6\pdl\middleware\ble/cy_ble_gap.h **** *
 753:Generated_Source\PSoC6\pdl\middleware\ble/cy_ble_gap.h **** *  Used to set the state of the link layer hardware advertisement engine.
 754:Generated_Source\PSoC6\pdl\middleware\ble/cy_ble_gap.h **** *
 755:Generated_Source\PSoC6\pdl\middleware\ble/cy_ble_gap.h **** *  \param state: The desired state.
 756:Generated_Source\PSoC6\pdl\middleware\ble/cy_ble_gap.h **** *
 757:Generated_Source\PSoC6\pdl\middleware\ble/cy_ble_gap.h **** * \return
 758:Generated_Source\PSoC6\pdl\middleware\ble/cy_ble_gap.h **** *  None
 759:Generated_Source\PSoC6\pdl\middleware\ble/cy_ble_gap.h **** *
 760:Generated_Source\PSoC6\pdl\middleware\ble/cy_ble_gap.h **** ******************************************************************************/
 761:Generated_Source\PSoC6\pdl\middleware\ble/cy_ble_gap.h **** __STATIC_INLINE void Cy_BLE_SetAdvertisementState(cy_en_ble_adv_state_t state)
 762:Generated_Source\PSoC6\pdl\middleware\ble/cy_ble_gap.h **** {
 763:Generated_Source\PSoC6\pdl\middleware\ble/cy_ble_gap.h ****     cy_ble_advState = state;
 764:Generated_Source\PSoC6\pdl\middleware\ble/cy_ble_gap.h **** }
 765:Generated_Source\PSoC6\pdl\middleware\ble/cy_ble_gap.h **** /** \endcond */
 766:Generated_Source\PSoC6\pdl\middleware\ble/cy_ble_gap.h **** 
 767:Generated_Source\PSoC6\pdl\middleware\ble/cy_ble_gap.h **** #endif /* (CY_BLE_GAP_ROLE_PERIPHERAL || CY_BLE_GAP_ROLE_BROADCASTER) */
 768:Generated_Source\PSoC6\pdl\middleware\ble/cy_ble_gap.h **** 
 769:Generated_Source\PSoC6\pdl\middleware\ble/cy_ble_gap.h **** #if (CY_BLE_GAP_ROLE_CENTRAL || CY_BLE_GAP_ROLE_OBSERVER)
 770:Generated_Source\PSoC6\pdl\middleware\ble/cy_ble_gap.h **** 
 771:Generated_Source\PSoC6\pdl\middleware\ble/cy_ble_gap.h **** /******************************************************************************
 772:Generated_Source\PSoC6\pdl\middleware\ble/cy_ble_gap.h **** * Function Name: Cy_BLE_GetScanState
 773:Generated_Source\PSoC6\pdl\middleware\ble/cy_ble_gap.h **** ***************************************************************************//**
 774:Generated_Source\PSoC6\pdl\middleware\ble/cy_ble_gap.h **** *    
 775:Generated_Source\PSoC6\pdl\middleware\ble/cy_ble_gap.h **** *  This returns the state of the link layer hardware scan engine.
 776:Generated_Source\PSoC6\pdl\middleware\ble/cy_ble_gap.h **** *
 777:Generated_Source\PSoC6\pdl\middleware\ble/cy_ble_gap.h **** *  \image html ble_scanning_state_machine.png
 778:Generated_Source\PSoC6\pdl\middleware\ble/cy_ble_gap.h **** *   
 779:Generated_Source\PSoC6\pdl\middleware\ble/cy_ble_gap.h **** *  When Cy_BLE_GAPC_StartScan() is called the state is set to
 780:Generated_Source\PSoC6\pdl\middleware\ble/cy_ble_gap.h **** *  #CY_BLE_SCAN_STATE_SCAN_INITIATED. It automatically changes to
 781:Generated_Source\PSoC6\pdl\middleware\ble/cy_ble_gap.h **** *  #CY_BLE_SCAN_STATE_SCANNING when the #CY_BLE_EVT_GAPC_SCAN_START_STOP event is
 782:Generated_Source\PSoC6\pdl\middleware\ble/cy_ble_gap.h **** *  received. 
 783:Generated_Source\PSoC6\pdl\middleware\ble/cy_ble_gap.h **** *  When Cy_BLE_GAPC_StopScan() is called, the state is set to
 784:Generated_Source\PSoC6\pdl\middleware\ble/cy_ble_gap.h **** *  #CY_BLE_SCAN_STATE_STOP_INITIATED. It automatically changes to
 785:Generated_Source\PSoC6\pdl\middleware\ble/cy_ble_gap.h **** *  #CY_BLE_SCAN_STATE_STOPPED when the #CY_BLE_EVT_GAPC_SCAN_START_STOP event is
 786:Generated_Source\PSoC6\pdl\middleware\ble/cy_ble_gap.h **** *  received.
 787:Generated_Source\PSoC6\pdl\middleware\ble/cy_ble_gap.h **** *
 788:Generated_Source\PSoC6\pdl\middleware\ble/cy_ble_gap.h **** *  \return
 789:Generated_Source\PSoC6\pdl\middleware\ble/cy_ble_gap.h **** *  \ref cy_en_ble_scan_state_t : The current scan state. The following are 
 790:Generated_Source\PSoC6\pdl\middleware\ble/cy_ble_gap.h **** *                                possible states.
 791:Generated_Source\PSoC6\pdl\middleware\ble/cy_ble_gap.h **** *
 792:Generated_Source\PSoC6\pdl\middleware\ble/cy_ble_gap.h **** *               State                |         Description
 793:Generated_Source\PSoC6\pdl\middleware\ble/cy_ble_gap.h **** *   -------------------------------- | -----------------------------
 794:Generated_Source\PSoC6\pdl\middleware\ble/cy_ble_gap.h **** *   CY_BLE_SCAN_STATE_STOPPED        | Scanning is stopped.
 795:Generated_Source\PSoC6\pdl\middleware\ble/cy_ble_gap.h **** *   CY_BLE_SCAN_STATE_SCAN_INITIATED | Scanning is initiated.
 796:Generated_Source\PSoC6\pdl\middleware\ble/cy_ble_gap.h **** *   CY_BLE_SCAN_STATE_SCANNING       | Scanning process.
ARM GAS  C:\Users\guill\AppData\Local\Temp\ccKdZhTR.s 			page 31


 797:Generated_Source\PSoC6\pdl\middleware\ble/cy_ble_gap.h **** *   CY_BLE_SCAN_STATE_STOP_INITIATED | Stop scanning is initiated.
 798:Generated_Source\PSoC6\pdl\middleware\ble/cy_ble_gap.h **** *
 799:Generated_Source\PSoC6\pdl\middleware\ble/cy_ble_gap.h **** ******************************************************************************/
 800:Generated_Source\PSoC6\pdl\middleware\ble/cy_ble_gap.h **** __STATIC_INLINE cy_en_ble_scan_state_t Cy_BLE_GetScanState(void)
 801:Generated_Source\PSoC6\pdl\middleware\ble/cy_ble_gap.h **** {
 802:Generated_Source\PSoC6\pdl\middleware\ble/cy_ble_gap.h ****     return(cy_ble_scanState);
 803:Generated_Source\PSoC6\pdl\middleware\ble/cy_ble_gap.h **** }
 804:Generated_Source\PSoC6\pdl\middleware\ble/cy_ble_gap.h **** 
 805:Generated_Source\PSoC6\pdl\middleware\ble/cy_ble_gap.h **** /** \cond IGNORE */
 806:Generated_Source\PSoC6\pdl\middleware\ble/cy_ble_gap.h **** /******************************************************************************
 807:Generated_Source\PSoC6\pdl\middleware\ble/cy_ble_gap.h **** * Function Name: Cy_BLE_SetScanState
 808:Generated_Source\PSoC6\pdl\middleware\ble/cy_ble_gap.h **** ***************************************************************************//**
 809:Generated_Source\PSoC6\pdl\middleware\ble/cy_ble_gap.h **** *
 810:Generated_Source\PSoC6\pdl\middleware\ble/cy_ble_gap.h **** *  Used to set the state of the link layer hardware scan engine.
 811:Generated_Source\PSoC6\pdl\middleware\ble/cy_ble_gap.h **** *
 812:Generated_Source\PSoC6\pdl\middleware\ble/cy_ble_gap.h **** *  \param state: The desired state.
 813:Generated_Source\PSoC6\pdl\middleware\ble/cy_ble_gap.h **** *
 814:Generated_Source\PSoC6\pdl\middleware\ble/cy_ble_gap.h **** *  \return
 815:Generated_Source\PSoC6\pdl\middleware\ble/cy_ble_gap.h **** *  None
 816:Generated_Source\PSoC6\pdl\middleware\ble/cy_ble_gap.h **** *
 817:Generated_Source\PSoC6\pdl\middleware\ble/cy_ble_gap.h **** ******************************************************************************/
 818:Generated_Source\PSoC6\pdl\middleware\ble/cy_ble_gap.h **** __STATIC_INLINE void Cy_BLE_SetScanState(cy_en_ble_scan_state_t state)
 819:Generated_Source\PSoC6\pdl\middleware\ble/cy_ble_gap.h **** {
 820:Generated_Source\PSoC6\pdl\middleware\ble/cy_ble_gap.h ****     cy_ble_scanState = state;
 821:Generated_Source\PSoC6\pdl\middleware\ble/cy_ble_gap.h **** }
 822:Generated_Source\PSoC6\pdl\middleware\ble/cy_ble_gap.h **** /** \endcond */
 823:Generated_Source\PSoC6\pdl\middleware\ble/cy_ble_gap.h **** 
 824:Generated_Source\PSoC6\pdl\middleware\ble/cy_ble_gap.h **** #endif  /* (CY_BLE_GAP_ROLE_CENTRAL || CY_BLE_GAP_ROLE_OBSERVER) */
 825:Generated_Source\PSoC6\pdl\middleware\ble/cy_ble_gap.h **** 
 826:Generated_Source\PSoC6\pdl\middleware\ble/cy_ble_gap.h ****  
 827:Generated_Source\PSoC6\pdl\middleware\ble/cy_ble_gap.h **** #if ((CY_BLE_GAP_ROLE_PERIPHERAL || CY_BLE_GAP_ROLE_CENTRAL))
 828:Generated_Source\PSoC6\pdl\middleware\ble/cy_ble_gap.h **** 
 829:Generated_Source\PSoC6\pdl\middleware\ble/cy_ble_gap.h **** /******************************************************************************
 830:Generated_Source\PSoC6\pdl\middleware\ble/cy_ble_gap.h **** * Function Name: Cy_BLE_GetConnectionState
 831:Generated_Source\PSoC6\pdl\middleware\ble/cy_ble_gap.h **** ***************************************************************************//**
 832:Generated_Source\PSoC6\pdl\middleware\ble/cy_ble_gap.h **** *  This function returns the state of the BLE link for the specified connection
 833:Generated_Source\PSoC6\pdl\middleware\ble/cy_ble_gap.h **** *  handle.
 834:Generated_Source\PSoC6\pdl\middleware\ble/cy_ble_gap.h **** *
 835:Generated_Source\PSoC6\pdl\middleware\ble/cy_ble_gap.h **** *  The state is set to #CY_BLE_CONN_STATE_CONNECTED when #CY_BLE_EVT_GATT_CONNECT_IND
 836:Generated_Source\PSoC6\pdl\middleware\ble/cy_ble_gap.h **** *  event is received with the corresponding connection handle.
 837:Generated_Source\PSoC6\pdl\middleware\ble/cy_ble_gap.h **** *  The state is set to #CY_BLE_CONN_STATE_DISCONNECTED when the
 838:Generated_Source\PSoC6\pdl\middleware\ble/cy_ble_gap.h **** *  #CY_BLE_EVT_GATT_DISCONNECT_IND event is received.
 839:Generated_Source\PSoC6\pdl\middleware\ble/cy_ble_gap.h **** *
 840:Generated_Source\PSoC6\pdl\middleware\ble/cy_ble_gap.h **** *  For GATT Client role when Cy_BLE_GATTC_StartDiscovery() is called, the state
 841:Generated_Source\PSoC6\pdl\middleware\ble/cy_ble_gap.h **** *  indicates the current flow of the discovery procedure by
 842:Generated_Source\PSoC6\pdl\middleware\ble/cy_ble_gap.h **** *  #CY_BLE_CONN_STATE_CLIENT_SRVC_DISCOVERING,
 843:Generated_Source\PSoC6\pdl\middleware\ble/cy_ble_gap.h **** *  #CY_BLE_CONN_STATE_CLIENT_INCL_DISCOVERING,
 844:Generated_Source\PSoC6\pdl\middleware\ble/cy_ble_gap.h **** *  #CY_BLE_CONN_STATE_CLIENT_CHAR_DISCOVERING,
 845:Generated_Source\PSoC6\pdl\middleware\ble/cy_ble_gap.h **** *  #CY_BLE_CONN_STATE_CLIENT_DESCR_DISCOVERING and changes to
 846:Generated_Source\PSoC6\pdl\middleware\ble/cy_ble_gap.h **** *  #CY_BLE_CONN_STATE_CLIENT_DISCOVERED when the procedure successfully completes.
 847:Generated_Source\PSoC6\pdl\middleware\ble/cy_ble_gap.h **** *
 848:Generated_Source\PSoC6\pdl\middleware\ble/cy_ble_gap.h **** *  The state changes from #CY_BLE_CONN_STATE_CLIENT_DISCOVERED to
 849:Generated_Source\PSoC6\pdl\middleware\ble/cy_ble_gap.h **** *  #CY_BLE_CONN_STATE_CLIENT_DISCONNECTED_DISCOVERED when
 850:Generated_Source\PSoC6\pdl\middleware\ble/cy_ble_gap.h **** *  the #CY_BLE_EVT_GATT_DISCONNECT_IND event is received.
 851:Generated_Source\PSoC6\pdl\middleware\ble/cy_ble_gap.h **** *  The state comes backs to #CY_BLE_CONN_STATE_CLIENT_DISCOVERED when
 852:Generated_Source\PSoC6\pdl\middleware\ble/cy_ble_gap.h **** *  #CY_BLE_EVT_GATT_CONNECT_IND event is received and resolvable device
 853:Generated_Source\PSoC6\pdl\middleware\ble/cy_ble_gap.h **** *  address is not changed.
ARM GAS  C:\Users\guill\AppData\Local\Temp\ccKdZhTR.s 			page 32


 854:Generated_Source\PSoC6\pdl\middleware\ble/cy_ble_gap.h **** *
 855:Generated_Source\PSoC6\pdl\middleware\ble/cy_ble_gap.h **** *  \param connHandle: The connection handle.
 856:Generated_Source\PSoC6\pdl\middleware\ble/cy_ble_gap.h **** *
 857:Generated_Source\PSoC6\pdl\middleware\ble/cy_ble_gap.h **** * \return
 858:Generated_Source\PSoC6\pdl\middleware\ble/cy_ble_gap.h **** * \ref cy_en_ble_conn_state_t : The current client state. The following are 
 859:Generated_Source\PSoC6\pdl\middleware\ble/cy_ble_gap.h **** *                               possible states.
 860:Generated_Source\PSoC6\pdl\middleware\ble/cy_ble_gap.h **** *
 861:Generated_Source\PSoC6\pdl\middleware\ble/cy_ble_gap.h **** *               State                                |         Description
 862:Generated_Source\PSoC6\pdl\middleware\ble/cy_ble_gap.h **** *   ------------------------------------------------ | -----------------------------
 863:Generated_Source\PSoC6\pdl\middleware\ble/cy_ble_gap.h **** *   CY_BLE_CONN_STATE_DISCONNECTED                   | Essentially idle state
 864:Generated_Source\PSoC6\pdl\middleware\ble/cy_ble_gap.h **** *   CY_BLE_CONN_STATE_CLIENT_DISCONNECTED_DISCOVERED | Server is disconnected but discovered.
 865:Generated_Source\PSoC6\pdl\middleware\ble/cy_ble_gap.h **** *   CY_BLE_CONN_STATE_CONNECTED                      | Peer device is connected for this and follow
 866:Generated_Source\PSoC6\pdl\middleware\ble/cy_ble_gap.h **** *   CY_BLE_CONN_STATE_CLIENT_SRVC_DISCOVERING        | Server services are being discovered.
 867:Generated_Source\PSoC6\pdl\middleware\ble/cy_ble_gap.h **** *   CY_BLE_CONN_STATE_CLIENT_INCL_DISCOVERING        | Server included services are being discovere
 868:Generated_Source\PSoC6\pdl\middleware\ble/cy_ble_gap.h **** *   CY_BLE_CONN_STATE_CLIENT_CHAR_DISCOVERING        | Server characteristics are being discovered
 869:Generated_Source\PSoC6\pdl\middleware\ble/cy_ble_gap.h **** *   CY_BLE_CONN_STATE_CLIENT_DESCR_DISCOVERING       | Server char. descriptors are being discovere
 870:Generated_Source\PSoC6\pdl\middleware\ble/cy_ble_gap.h **** *   CY_BLE_CONN_STATE_CLIENT_DISCOVERED              | Server is discovered   
 871:Generated_Source\PSoC6\pdl\middleware\ble/cy_ble_gap.h **** *
 872:Generated_Source\PSoC6\pdl\middleware\ble/cy_ble_gap.h **** *  \funcusage 
 873:Generated_Source\PSoC6\pdl\middleware\ble/cy_ble_gap.h **** *  \snippet ble\3.0\snippet\main.c BLE Common API: Cy_BLE_GetConnectionState()
 874:Generated_Source\PSoC6\pdl\middleware\ble/cy_ble_gap.h **** *
 875:Generated_Source\PSoC6\pdl\middleware\ble/cy_ble_gap.h **** ******************************************************************************/
 876:Generated_Source\PSoC6\pdl\middleware\ble/cy_ble_gap.h **** __STATIC_INLINE cy_en_ble_conn_state_t Cy_BLE_GetConnectionState(cy_stc_ble_conn_handle_t connHandl
 877:Generated_Source\PSoC6\pdl\middleware\ble/cy_ble_gap.h **** {
 878:Generated_Source\PSoC6\pdl\middleware\ble/cy_ble_gap.h ****     return((connHandle.attId < CY_BLE_CONN_COUNT) ? cy_ble_connState[connHandle.attId] : CY_BLE_CON
 408              		.loc 2 878 0
 409 0058 9DF80520 		ldrb	r2, [sp, #5]	@ zero_extendqisi2
 410 005c 12B9     		cbnz	r2, .L46
 411 005e 4549     		ldr	r1, .L48+12
 412 0060 895C     		ldrb	r1, [r1, r2]	@ zero_extendqisi2
 413 0062 00E0     		b	.L34
 414              	.L46:
 415 0064 0021     		movs	r1, #0
 416              	.L34:
 417              	.LBE26:
 418              	.LBE25:
 497:Generated_Source\PSoC6\pdl\middleware\ble/cy_ble_gap.c ****         {
 498:Generated_Source\PSoC6\pdl\middleware\ble/cy_ble_gap.c ****             if((Cy_BLE_GetConnectionState(cy_ble_connHandle[i]) >= CY_BLE_CONN_STATE_CONNECTED) &&
 419              		.loc 1 498 0
 420 0066 0129     		cmp	r1, #1
 421 0068 24D9     		bls	.L35
 499:Generated_Source\PSoC6\pdl\middleware\ble/cy_ble_gap.c ****                (cy_ble_peerBonding[cy_ble_connHandle[i].attId] == CY_BLE_GAP_BONDING))
 422              		.loc 1 499 0 discriminator 1
 423 006a 4349     		ldr	r1, .L48+16
 424 006c 895C     		ldrb	r1, [r1, r2]	@ zero_extendqisi2
 498:Generated_Source\PSoC6\pdl\middleware\ble/cy_ble_gap.c ****                (cy_ble_peerBonding[cy_ble_connHandle[i].attId] == CY_BLE_GAP_BONDING))
 425              		.loc 1 498 0 discriminator 1
 426 006e 0129     		cmp	r1, #1
 427 0070 20D1     		bne	.L35
 428              	.LBB27:
 500:Generated_Source\PSoC6\pdl\middleware\ble/cy_ble_gap.c ****             {
 501:Generated_Source\PSoC6\pdl\middleware\ble/cy_ble_gap.c ****                 uint8_t cccdBlockCrc;
 502:Generated_Source\PSoC6\pdl\middleware\ble/cy_ble_gap.c ****                 appFlashParam.srcBuff = (uint8_t*)cy_ble_attValuesCccdMultiple[cy_ble_connHandle[i]
 429              		.loc 1 502 0
 430 0072 02EB4202 		add	r2, r2, r2, lsl #1
 431 0076 414D     		ldr	r5, .L48+20
 432 0078 5019     		adds	r0, r2, r5
ARM GAS  C:\Users\guill\AppData\Local\Temp\ccKdZhTR.s 			page 33


 433 007a 0490     		str	r0, [sp, #16]
 503:Generated_Source\PSoC6\pdl\middleware\ble/cy_ble_gap.c ****                 appFlashParam.destAddr = (uint8_t*)cy_ble_configPtr->flashStorage->attValuesCCCDFla
 434              		.loc 1 503 0
 435 007c 404B     		ldr	r3, .L48+24
 436              	.LVL36:
 437 007e 1B68     		ldr	r3, [r3]
 438 0080 1A69     		ldr	r2, [r3, #16]
 504:Generated_Source\PSoC6\pdl\middleware\ble/cy_ble_gap.c ****                                          [cy_ble_connHandle[i].bdHandle];
 439              		.loc 1 504 0
 440 0082 3B4E     		ldr	r6, .L48+8
 441 0084 16F81430 		ldrb	r3, [r6, r4, lsl #1]	@ zero_extendqisi2
 503:Generated_Source\PSoC6\pdl\middleware\ble/cy_ble_gap.c ****                 appFlashParam.destAddr = (uint8_t*)cy_ble_configPtr->flashStorage->attValuesCCCDFla
 442              		.loc 1 503 0
 443 0088 03EB4303 		add	r3, r3, r3, lsl #1
 444 008c 03F5B963 		add	r3, r3, #1480
 445 0090 1344     		add	r3, r3, r2
 446 0092 0633     		adds	r3, r3, #6
 447 0094 0593     		str	r3, [sp, #20]
 505:Generated_Source\PSoC6\pdl\middleware\ble/cy_ble_gap.c **** 
 506:Generated_Source\PSoC6\pdl\middleware\ble/cy_ble_gap.c ****                 /* Calculate CRC for CCCD block */
 507:Generated_Source\PSoC6\pdl\middleware\ble/cy_ble_gap.c ****                 cccdBlockCrc = Cy_BLE_HAL_CalcCRC8(cy_ble_attValuesCccdMultiple[cy_ble_connHandle[i
 448              		.loc 1 507 0
 449 0096 0221     		movs	r1, #2
 450 0098 FFF7FEFF 		bl	Cy_BLE_HAL_CalcCRC8
 451              	.LVL37:
 508:Generated_Source\PSoC6\pdl\middleware\ble/cy_ble_gap.c ****                                                    CY_BLE_GATT_DB_CCCD_COUNT);
 509:Generated_Source\PSoC6\pdl\middleware\ble/cy_ble_gap.c ****                 /* Store new CRC value */                    
 510:Generated_Source\PSoC6\pdl\middleware\ble/cy_ble_gap.c ****                 cy_ble_attValuesCccdMultiple[cy_ble_connHandle[i].attId][CY_BLE_GATT_DB_CCCD_COUNT]
 452              		.loc 1 510 0
 453 009c 06EB4406 		add	r6, r6, r4, lsl #1
 454 00a0 7378     		ldrb	r3, [r6, #1]	@ zero_extendqisi2
 455 00a2 03EB4303 		add	r3, r3, r3, lsl #1
 456 00a6 1D44     		add	r5, r5, r3
 457 00a8 A870     		strb	r0, [r5, #2]
 511:Generated_Source\PSoC6\pdl\middleware\ble/cy_ble_gap.c ****                 
 512:Generated_Source\PSoC6\pdl\middleware\ble/cy_ble_gap.c ****                 apiResult = Cy_BLE_StoreAppData(&appFlashParam);
 458              		.loc 1 512 0
 459 00aa 04A8     		add	r0, sp, #16
 460              	.LVL38:
 461 00ac FFF7FEFF 		bl	Cy_BLE_StoreAppData
 462              	.LVL39:
 513:Generated_Source\PSoC6\pdl\middleware\ble/cy_ble_gap.c ****                 if(apiResult != CY_BLE_SUCCESS)
 463              		.loc 1 513 0
 464 00b0 0346     		mov	r3, r0
 465 00b2 10B9     		cbnz	r0, .L36
 466              	.LVL40:
 467              	.L35:
 468              	.LBE27:
 496:Generated_Source\PSoC6\pdl\middleware\ble/cy_ble_gap.c ****         {
 469              		.loc 1 496 0 discriminator 2
 470 00b4 0134     		adds	r4, r4, #1
 471              	.LVL41:
 472              	.L33:
 496:Generated_Source\PSoC6\pdl\middleware\ble/cy_ble_gap.c ****         {
 473              		.loc 1 496 0 is_stmt 0 discriminator 1
 474 00b6 002C     		cmp	r4, #0
 475 00b8 C9D0     		beq	.L37
ARM GAS  C:\Users\guill\AppData\Local\Temp\ccKdZhTR.s 			page 34


 476              	.L36:
 514:Generated_Source\PSoC6\pdl\middleware\ble/cy_ble_gap.c ****                 {
 515:Generated_Source\PSoC6\pdl\middleware\ble/cy_ble_gap.c ****                     break;
 516:Generated_Source\PSoC6\pdl\middleware\ble/cy_ble_gap.c ****                 }
 517:Generated_Source\PSoC6\pdl\middleware\ble/cy_ble_gap.c ****             }
 518:Generated_Source\PSoC6\pdl\middleware\ble/cy_ble_gap.c ****         }
 519:Generated_Source\PSoC6\pdl\middleware\ble/cy_ble_gap.c ****         if(apiResult == CY_BLE_SUCCESS)
 477              		.loc 1 519 0 is_stmt 1
 478 00ba 23B9     		cbnz	r3, .L32
 520:Generated_Source\PSoC6\pdl\middleware\ble/cy_ble_gap.c ****         {
 521:Generated_Source\PSoC6\pdl\middleware\ble/cy_ble_gap.c ****             cy_ble_pendingFlashWrite &= (uint8_t) ~CY_BLE_PENDING_CCCD_FLASH_WRITE_BIT;
 479              		.loc 1 521 0
 480 00bc 2A49     		ldr	r1, .L48
 481 00be 0A78     		ldrb	r2, [r1]	@ zero_extendqisi2
 482 00c0 22F00202 		bic	r2, r2, #2
 483 00c4 0A70     		strb	r2, [r1]
 484              	.LVL42:
 485              	.L32:
 486              	.LBE24:
 522:Generated_Source\PSoC6\pdl\middleware\ble/cy_ble_gap.c ****         }
 523:Generated_Source\PSoC6\pdl\middleware\ble/cy_ble_gap.c ****     }
 524:Generated_Source\PSoC6\pdl\middleware\ble/cy_ble_gap.c **** 
 525:Generated_Source\PSoC6\pdl\middleware\ble/cy_ble_gap.c ****     /* Clear requested CCCD values */
 526:Generated_Source\PSoC6\pdl\middleware\ble/cy_ble_gap.c ****     if((apiResult == CY_BLE_SUCCESS) &&
 487              		.loc 1 526 0
 488 00c6 002B     		cmp	r3, #0
 489 00c8 44D1     		bne	.L39
 527:Generated_Source\PSoC6\pdl\middleware\ble/cy_ble_gap.c ****        ((cy_ble_pendingFlashWrite & CY_BLE_PENDING_CCCD_FLASH_CLEAR_MASK) != 0u))
 490              		.loc 1 527 0 discriminator 1
 491 00ca 274A     		ldr	r2, .L48
 492 00cc 1278     		ldrb	r2, [r2]	@ zero_extendqisi2
 526:Generated_Source\PSoC6\pdl\middleware\ble/cy_ble_gap.c ****        ((cy_ble_pendingFlashWrite & CY_BLE_PENDING_CCCD_FLASH_CLEAR_MASK) != 0u))
 493              		.loc 1 526 0 discriminator 1
 494 00ce 12F00C0F 		tst	r2, #12
 495 00d2 3FD0     		beq	.L39
 528:Generated_Source\PSoC6\pdl\middleware\ble/cy_ble_gap.c ****     {
 529:Generated_Source\PSoC6\pdl\middleware\ble/cy_ble_gap.c ****         if((cy_ble_pendingFlashWrite & CY_BLE_PENDING_CCCD_FLASH_CLEAR_ALL_BIT) != 0u)
 496              		.loc 1 529 0
 497 00d4 12F0080F 		tst	r2, #8
 498 00d8 1AD0     		beq	.L40
 499              	.LBB28:
 530:Generated_Source\PSoC6\pdl\middleware\ble/cy_ble_gap.c ****         {
 531:Generated_Source\PSoC6\pdl\middleware\ble/cy_ble_gap.c ****             /* Remove CCCD values for all bonded devices */
 532:Generated_Source\PSoC6\pdl\middleware\ble/cy_ble_gap.c ****             uint8_t defaultValuesCCCD[CY_BLE_MAX_BONDED_DEVICES + CY_BLE_CONN_COUNT][CY_BLE_GATT_DB
 533:Generated_Source\PSoC6\pdl\middleware\ble/cy_ble_gap.c ****             cy_stc_ble_app_flash_param_t appFlashParam =
 500              		.loc 1 533 0
 501 00da 0593     		str	r3, [sp, #20]
 502 00dc 0693     		str	r3, [sp, #24]
 503 00de 0793     		str	r3, [sp, #28]
 504 00e0 02A9     		add	r1, sp, #8
 505 00e2 0491     		str	r1, [sp, #16]
 534:Generated_Source\PSoC6\pdl\middleware\ble/cy_ble_gap.c ****             {
 535:Generated_Source\PSoC6\pdl\middleware\ble/cy_ble_gap.c ****                 .srcBuff  = (uint8_t*)defaultValuesCCCD,
 536:Generated_Source\PSoC6\pdl\middleware\ble/cy_ble_gap.c ****                 .destAddr = (uint8_t*)cy_ble_configPtr->flashStorage->attValuesCCCDFlashMemory,
 506              		.loc 1 536 0
 507 00e4 264A     		ldr	r2, .L48+24
 508 00e6 1268     		ldr	r2, [r2]
ARM GAS  C:\Users\guill\AppData\Local\Temp\ccKdZhTR.s 			page 35


 509 00e8 1269     		ldr	r2, [r2, #16]
 510 00ea 02F2CE52 		addw	r2, r2, #1486
 533:Generated_Source\PSoC6\pdl\middleware\ble/cy_ble_gap.c ****             {
 511              		.loc 1 533 0
 512 00ee 0592     		str	r2, [sp, #20]
 513 00f0 0622     		movs	r2, #6
 514 00f2 0692     		str	r2, [sp, #24]
 537:Generated_Source\PSoC6\pdl\middleware\ble/cy_ble_gap.c ****                 .buffLen  = sizeof(defaultValuesCCCD),
 538:Generated_Source\PSoC6\pdl\middleware\ble/cy_ble_gap.c ****             };
 539:Generated_Source\PSoC6\pdl\middleware\ble/cy_ble_gap.c **** 
 540:Generated_Source\PSoC6\pdl\middleware\ble/cy_ble_gap.c ****             (void)memset(defaultValuesCCCD, 0, sizeof(defaultValuesCCCD));
 515              		.loc 1 540 0
 516 00f4 0293     		str	r3, [sp, #8]
 517 00f6 ADF80C30 		strh	r3, [sp, #12]	@ movhi
 541:Generated_Source\PSoC6\pdl\middleware\ble/cy_ble_gap.c **** 
 542:Generated_Source\PSoC6\pdl\middleware\ble/cy_ble_gap.c ****             apiResult = Cy_BLE_StoreAppData(&appFlashParam);
 518              		.loc 1 542 0
 519 00fa 04A8     		add	r0, sp, #16
 520 00fc FFF7FEFF 		bl	Cy_BLE_StoreAppData
 521              	.LVL43:
 543:Generated_Source\PSoC6\pdl\middleware\ble/cy_ble_gap.c ****             if(apiResult == CY_BLE_SUCCESS)
 522              		.loc 1 543 0
 523 0100 0346     		mov	r3, r0
 524 0102 38BB     		cbnz	r0, .L39
 544:Generated_Source\PSoC6\pdl\middleware\ble/cy_ble_gap.c ****             {
 545:Generated_Source\PSoC6\pdl\middleware\ble/cy_ble_gap.c ****                 cy_ble_pendingFlashWrite &= (uint8_t) ~CY_BLE_PENDING_CCCD_FLASH_CLEAR_ALL_BIT;
 525              		.loc 1 545 0
 526 0104 1849     		ldr	r1, .L48
 527 0106 0A78     		ldrb	r2, [r1]	@ zero_extendqisi2
 528 0108 22F00802 		bic	r2, r2, #8
 529 010c 0A70     		strb	r2, [r1]
 530 010e 21E0     		b	.L39
 531              	.LVL44:
 532              	.L40:
 533              	.LBE28:
 534              	.LBB29:
 546:Generated_Source\PSoC6\pdl\middleware\ble/cy_ble_gap.c ****             }
 547:Generated_Source\PSoC6\pdl\middleware\ble/cy_ble_gap.c ****         }
 548:Generated_Source\PSoC6\pdl\middleware\ble/cy_ble_gap.c ****         else /* Remove CCCD values for particular device */
 549:Generated_Source\PSoC6\pdl\middleware\ble/cy_ble_gap.c ****         {
 550:Generated_Source\PSoC6\pdl\middleware\ble/cy_ble_gap.c ****             uint8_t defaultValuesCCCD[CY_BLE_GATT_DB_CCCD_COUNT + CY_BLE_CCCD_CRC_BYTE] = { 0u };
 535              		.loc 1 550 0
 536 0110 02AA     		add	r2, sp, #8
 537 0112 0023     		movs	r3, #0
 538              	.LVL45:
 539 0114 ADF80830 		strh	r3, [sp, #8]	@ movhi
 540 0118 8DF80A30 		strb	r3, [sp, #10]
 551:Generated_Source\PSoC6\pdl\middleware\ble/cy_ble_gap.c ****             cy_stc_ble_app_flash_param_t appFlashParam =
 541              		.loc 1 551 0
 542 011c 0593     		str	r3, [sp, #20]
 543 011e 0693     		str	r3, [sp, #24]
 544 0120 0793     		str	r3, [sp, #28]
 545 0122 0492     		str	r2, [sp, #16]
 552:Generated_Source\PSoC6\pdl\middleware\ble/cy_ble_gap.c ****             {
 553:Generated_Source\PSoC6\pdl\middleware\ble/cy_ble_gap.c ****                 .srcBuff  = (uint8_t*)defaultValuesCCCD,
 554:Generated_Source\PSoC6\pdl\middleware\ble/cy_ble_gap.c ****                 .destAddr = (uint8_t*)cy_ble_configPtr->flashStorage->
 546              		.loc 1 554 0
ARM GAS  C:\Users\guill\AppData\Local\Temp\ccKdZhTR.s 			page 36


 547 0124 164B     		ldr	r3, .L48+24
 548 0126 1B68     		ldr	r3, [r3]
 549 0128 1A69     		ldr	r2, [r3, #16]
 555:Generated_Source\PSoC6\pdl\middleware\ble/cy_ble_gap.c ****                              attValuesCCCDFlashMemory[cy_ble_pendingFlashClearCccdHandle],
 550              		.loc 1 555 0
 551 012a 164B     		ldr	r3, .L48+28
 552 012c 1B7A     		ldrb	r3, [r3, #8]	@ zero_extendqisi2
 554:Generated_Source\PSoC6\pdl\middleware\ble/cy_ble_gap.c ****                              attValuesCCCDFlashMemory[cy_ble_pendingFlashClearCccdHandle],
 553              		.loc 1 554 0
 554 012e 03EB4303 		add	r3, r3, r3, lsl #1
 555 0132 03F5B963 		add	r3, r3, #1480
 556 0136 1344     		add	r3, r3, r2
 557 0138 0633     		adds	r3, r3, #6
 551:Generated_Source\PSoC6\pdl\middleware\ble/cy_ble_gap.c ****             {
 558              		.loc 1 551 0
 559 013a 0593     		str	r3, [sp, #20]
 560 013c 0323     		movs	r3, #3
 561 013e 0693     		str	r3, [sp, #24]
 556:Generated_Source\PSoC6\pdl\middleware\ble/cy_ble_gap.c ****                 .buffLen  = CY_BLE_GATT_DB_CCCD_COUNT + CY_BLE_CCCD_CRC_BYTE,
 557:Generated_Source\PSoC6\pdl\middleware\ble/cy_ble_gap.c ****             };
 558:Generated_Source\PSoC6\pdl\middleware\ble/cy_ble_gap.c **** 
 559:Generated_Source\PSoC6\pdl\middleware\ble/cy_ble_gap.c ****             apiResult = Cy_BLE_StoreAppData(&appFlashParam);
 562              		.loc 1 559 0
 563 0140 04A8     		add	r0, sp, #16
 564 0142 FFF7FEFF 		bl	Cy_BLE_StoreAppData
 565              	.LVL46:
 560:Generated_Source\PSoC6\pdl\middleware\ble/cy_ble_gap.c ****             if(apiResult == CY_BLE_SUCCESS)
 566              		.loc 1 560 0
 567 0146 0346     		mov	r3, r0
 568 0148 20B9     		cbnz	r0, .L39
 561:Generated_Source\PSoC6\pdl\middleware\ble/cy_ble_gap.c ****             {
 562:Generated_Source\PSoC6\pdl\middleware\ble/cy_ble_gap.c ****                 cy_ble_pendingFlashWrite &= (uint8_t) ~CY_BLE_PENDING_CCCD_FLASH_CLEAR_BIT;
 569              		.loc 1 562 0
 570 014a 0749     		ldr	r1, .L48
 571 014c 0A78     		ldrb	r2, [r1]	@ zero_extendqisi2
 572 014e 22F00402 		bic	r2, r2, #4
 573 0152 0A70     		strb	r2, [r1]
 574              	.LVL47:
 575              	.L39:
 576              	.LBE29:
 563:Generated_Source\PSoC6\pdl\middleware\ble/cy_ble_gap.c ****             }
 564:Generated_Source\PSoC6\pdl\middleware\ble/cy_ble_gap.c ****         }
 565:Generated_Source\PSoC6\pdl\middleware\ble/cy_ble_gap.c ****     }
 566:Generated_Source\PSoC6\pdl\middleware\ble/cy_ble_gap.c **** #endif /* CY_BLE_GATT_DB_CCCD_COUNT != 0u */
 567:Generated_Source\PSoC6\pdl\middleware\ble/cy_ble_gap.c **** 
 568:Generated_Source\PSoC6\pdl\middleware\ble/cy_ble_gap.c ****     /* Flash operation is not allowed */
 569:Generated_Source\PSoC6\pdl\middleware\ble/cy_ble_gap.c ****     if (apiResult == CY_BLE_ERROR_FLASH_WRITE_NOT_PERMITED)
 577              		.loc 1 569 0
 578 0154 0C4A     		ldr	r2, .L48+32
 579 0156 9342     		cmp	r3, r2
 580 0158 02D1     		bne	.L43
 570:Generated_Source\PSoC6\pdl\middleware\ble/cy_ble_gap.c ****     {
 571:Generated_Source\PSoC6\pdl\middleware\ble/cy_ble_gap.c ****          cy_ble_pendingFlashWrite = 0u;   
 581              		.loc 1 571 0
 582 015a 0021     		movs	r1, #0
 583 015c 024A     		ldr	r2, .L48
 584 015e 1170     		strb	r1, [r2]
ARM GAS  C:\Users\guill\AppData\Local\Temp\ccKdZhTR.s 			page 37


 585              	.L43:
 572:Generated_Source\PSoC6\pdl\middleware\ble/cy_ble_gap.c ****     }
 573:Generated_Source\PSoC6\pdl\middleware\ble/cy_ble_gap.c **** 
 574:Generated_Source\PSoC6\pdl\middleware\ble/cy_ble_gap.c ****     return(apiResult);
 575:Generated_Source\PSoC6\pdl\middleware\ble/cy_ble_gap.c **** }
 586              		.loc 1 575 0
 587 0160 1846     		mov	r0, r3
 588 0162 08B0     		add	sp, sp, #32
 589              		.cfi_def_cfa_offset 16
 590              		@ sp needed
 591 0164 70BD     		pop	{r4, r5, r6, pc}
 592              	.L49:
 593 0166 00BF     		.align	2
 594              	.L48:
 595 0168 00000000 		.word	cy_ble_pendingFlashWrite
 596 016c 01001400 		.word	1310721
 597 0170 00000000 		.word	cy_ble_connHandle
 598 0174 00000000 		.word	cy_ble_connState
 599 0178 00000000 		.word	cy_ble_peerBonding
 600 017c 00000000 		.word	cy_ble_attValuesCccdMultiple
 601 0180 00000000 		.word	cy_ble_configPtr
 602 0184 00000000 		.word	.LANCHOR0
 603 0188 12001600 		.word	1441810
 604              		.cfi_endproc
 605              	.LFE258:
 606              		.size	Cy_BLE_StoreBondingData, .-Cy_BLE_StoreBondingData
 607              		.section	.text.Cy_BLE_GAP_RemoveBondedDevice,"ax",%progbits
 608              		.align	2
 609              		.global	Cy_BLE_GAP_RemoveBondedDevice
 610              		.thumb
 611              		.thumb_func
 612              		.type	Cy_BLE_GAP_RemoveBondedDevice, %function
 613              	Cy_BLE_GAP_RemoveBondedDevice:
 614              	.LFB259:
 576:Generated_Source\PSoC6\pdl\middleware\ble/cy_ble_gap.c **** 
 577:Generated_Source\PSoC6\pdl\middleware\ble/cy_ble_gap.c **** 
 578:Generated_Source\PSoC6\pdl\middleware\ble/cy_ble_gap.c **** /******************************************************************************
 579:Generated_Source\PSoC6\pdl\middleware\ble/cy_ble_gap.c **** * Function Name: Cy_BLE_GAP_RemoveBondedDevice
 580:Generated_Source\PSoC6\pdl\middleware\ble/cy_ble_gap.c **** ***************************************************************************//**
 581:Generated_Source\PSoC6\pdl\middleware\ble/cy_ble_gap.c **** *
 582:Generated_Source\PSoC6\pdl\middleware\ble/cy_ble_gap.c **** *  This function removes the bonding information of the device including CCCD
 583:Generated_Source\PSoC6\pdl\middleware\ble/cy_ble_gap.c **** *  values. 
 584:Generated_Source\PSoC6\pdl\middleware\ble/cy_ble_gap.c **** *
 585:Generated_Source\PSoC6\pdl\middleware\ble/cy_ble_gap.c **** *  This function is available only when Bonding requirement is selected in
 586:Generated_Source\PSoC6\pdl\middleware\ble/cy_ble_gap.c **** *  Security settings.
 587:Generated_Source\PSoC6\pdl\middleware\ble/cy_ble_gap.c **** *
 588:Generated_Source\PSoC6\pdl\middleware\ble/cy_ble_gap.c **** *  \param bdAddr: Pointer to peer device address,
 589:Generated_Source\PSoC6\pdl\middleware\ble/cy_ble_gap.c **** *                   of type \ref cy_stc_ble_gap_bd_addr_t.
 590:Generated_Source\PSoC6\pdl\middleware\ble/cy_ble_gap.c **** *
 591:Generated_Source\PSoC6\pdl\middleware\ble/cy_ble_gap.c **** *  \return
 592:Generated_Source\PSoC6\pdl\middleware\ble/cy_ble_gap.c **** *  \ref cy_en_ble_api_result_t : Return value indicates if the function 
 593:Generated_Source\PSoC6\pdl\middleware\ble/cy_ble_gap.c **** *   succeeded or failed. The following are possible error codes.
 594:Generated_Source\PSoC6\pdl\middleware\ble/cy_ble_gap.c **** *
 595:Generated_Source\PSoC6\pdl\middleware\ble/cy_ble_gap.c **** *   Error Codes                       | Description
 596:Generated_Source\PSoC6\pdl\middleware\ble/cy_ble_gap.c **** *   --------------------------------- | ------------------------------------
 597:Generated_Source\PSoC6\pdl\middleware\ble/cy_ble_gap.c **** *   CY_BLE_SUCCESS                    | On successful operation.
 598:Generated_Source\PSoC6\pdl\middleware\ble/cy_ble_gap.c **** *   CY_BLE_ERROR_INVALID_PARAMETER    | On specifying NULL as input parameter for 'bdAddr'.
ARM GAS  C:\Users\guill\AppData\Local\Temp\ccKdZhTR.s 			page 38


 599:Generated_Source\PSoC6\pdl\middleware\ble/cy_ble_gap.c **** *   CY_BLE_ERROR_INVALID_OPERATION    | Whitelist is already in use or there is pending write to fl
 600:Generated_Source\PSoC6\pdl\middleware\ble/cy_ble_gap.c **** *   CY_BLE_ERROR_NO_DEVICE_ENTITY     | Device does not exist in the bond list.
 601:Generated_Source\PSoC6\pdl\middleware\ble/cy_ble_gap.c **** *
 602:Generated_Source\PSoC6\pdl\middleware\ble/cy_ble_gap.c **** *  \globalvars
 603:Generated_Source\PSoC6\pdl\middleware\ble/cy_ble_gap.c **** *   The bdHandle is set in \ref cy_ble_pendingFlashWrite variable to indicate that
 604:Generated_Source\PSoC6\pdl\middleware\ble/cy_ble_gap.c **** *   data should be stored to flash by Cy_BLE_StoreBondingData() afterwards.
 605:Generated_Source\PSoC6\pdl\middleware\ble/cy_ble_gap.c **** *
 606:Generated_Source\PSoC6\pdl\middleware\ble/cy_ble_gap.c **** ******************************************************************************/
 607:Generated_Source\PSoC6\pdl\middleware\ble/cy_ble_gap.c **** cy_en_ble_api_result_t Cy_BLE_GAP_RemoveBondedDevice(cy_stc_ble_gap_bd_addr_t* bdAddr)
 608:Generated_Source\PSoC6\pdl\middleware\ble/cy_ble_gap.c **** {
 615              		.loc 1 608 0
 616              		.cfi_startproc
 617              		@ args = 0, pretend = 0, frame = 16
 618              		@ frame_needed = 0, uses_anonymous_args = 0
 619              	.LVL48:
 609:Generated_Source\PSoC6\pdl\middleware\ble/cy_ble_gap.c ****     cy_en_ble_api_result_t apiResult = CY_BLE_SUCCESS;
 610:Generated_Source\PSoC6\pdl\middleware\ble/cy_ble_gap.c ****     cy_stc_ble_gap_peer_addr_info_t peerAddrInfoParam;
 611:Generated_Source\PSoC6\pdl\middleware\ble/cy_ble_gap.c **** 
 612:Generated_Source\PSoC6\pdl\middleware\ble/cy_ble_gap.c ****     if(bdAddr == NULL)
 620              		.loc 1 612 0
 621 0000 80B3     		cbz	r0, .L55
 608:Generated_Source\PSoC6\pdl\middleware\ble/cy_ble_gap.c ****     cy_en_ble_api_result_t apiResult = CY_BLE_SUCCESS;
 622              		.loc 1 608 0
 623 0002 30B5     		push	{r4, r5, lr}
 624              		.cfi_def_cfa_offset 12
 625              		.cfi_offset 4, -12
 626              		.cfi_offset 5, -8
 627              		.cfi_offset 14, -4
 628 0004 85B0     		sub	sp, sp, #20
 629              		.cfi_def_cfa_offset 32
 613:Generated_Source\PSoC6\pdl\middleware\ble/cy_ble_gap.c ****     {
 614:Generated_Source\PSoC6\pdl\middleware\ble/cy_ble_gap.c ****         apiResult = CY_BLE_ERROR_INVALID_PARAMETER;
 615:Generated_Source\PSoC6\pdl\middleware\ble/cy_ble_gap.c ****     }
 616:Generated_Source\PSoC6\pdl\middleware\ble/cy_ble_gap.c ****     else if(cy_ble_pendingFlashWrite == 0u)
 630              		.loc 1 616 0
 631 0006 1B4B     		ldr	r3, .L58
 632 0008 1C78     		ldrb	r4, [r3]	@ zero_extendqisi2
 633 000a 74BB     		cbnz	r4, .L56
 634 000c 0546     		mov	r5, r0
 635              	.LBB30:
 617:Generated_Source\PSoC6\pdl\middleware\ble/cy_ble_gap.c ****     {
 618:Generated_Source\PSoC6\pdl\middleware\ble/cy_ble_gap.c ****     #if (CY_BLE_GATT_DB_CCCD_COUNT != 0u)
 619:Generated_Source\PSoC6\pdl\middleware\ble/cy_ble_gap.c ****         /* Request to clear CCCD values which will be done by Cy_BLE_StoreBondingData() */
 620:Generated_Source\PSoC6\pdl\middleware\ble/cy_ble_gap.c ****         cy_stc_ble_gap_bd_addr_t invalidBdAddr = { { 0u, 0u, 0u, 0u, 0u, 0u }, 0u };
 636              		.loc 1 620 0
 637 000e 0023     		movs	r3, #0
 638 0010 0093     		str	r3, [sp]
 639 0012 CDF80330 		str	r3, [sp, #3]	@ unaligned
 621:Generated_Source\PSoC6\pdl\middleware\ble/cy_ble_gap.c **** 
 622:Generated_Source\PSoC6\pdl\middleware\ble/cy_ble_gap.c ****         if(memcmp(((uint8_t*)&(bdAddr->bdAddr)), ((uint8_t*)&(invalidBdAddr.bdAddr)), CY_BLE_GAP_BD
 640              		.loc 1 622 0
 641 0016 0622     		movs	r2, #6
 642 0018 6946     		mov	r1, sp
 643 001a FFF7FEFF 		bl	memcmp
 644              	.LVL49:
 645 001e 28B9     		cbnz	r0, .L52
 623:Generated_Source\PSoC6\pdl\middleware\ble/cy_ble_gap.c ****         {
ARM GAS  C:\Users\guill\AppData\Local\Temp\ccKdZhTR.s 			page 39


 624:Generated_Source\PSoC6\pdl\middleware\ble/cy_ble_gap.c ****             /* Request to remove all bonded devices by Cy_BLE_StoreBondingData() */
 625:Generated_Source\PSoC6\pdl\middleware\ble/cy_ble_gap.c ****             cy_ble_pendingFlashWrite |= CY_BLE_PENDING_CCCD_FLASH_CLEAR_ALL_BIT;
 646              		.loc 1 625 0
 647 0020 44F00804 		orr	r4, r4, #8
 648 0024 134B     		ldr	r3, .L58
 649 0026 1C70     		strb	r4, [r3]
 650              	.LBE30:
 609:Generated_Source\PSoC6\pdl\middleware\ble/cy_ble_gap.c ****     cy_stc_ble_gap_peer_addr_info_t peerAddrInfoParam;
 651              		.loc 1 609 0
 652 0028 0023     		movs	r3, #0
 653              	.LBB31:
 654 002a 15E0     		b	.L53
 655              	.L52:
 626:Generated_Source\PSoC6\pdl\middleware\ble/cy_ble_gap.c ****         }
 627:Generated_Source\PSoC6\pdl\middleware\ble/cy_ble_gap.c ****         else
 628:Generated_Source\PSoC6\pdl\middleware\ble/cy_ble_gap.c ****         {
 629:Generated_Source\PSoC6\pdl\middleware\ble/cy_ble_gap.c ****             /* Get the BD handle from Address */
 630:Generated_Source\PSoC6\pdl\middleware\ble/cy_ble_gap.c ****             peerAddrInfoParam.bdAddr = *bdAddr;
 656              		.loc 1 630 0
 657 002c 2868     		ldr	r0, [r5]	@ unaligned
 658 002e 0290     		str	r0, [sp, #8]	@ unaligned
 659 0030 AA88     		ldrh	r2, [r5, #4]	@ unaligned
 660 0032 AB79     		ldrb	r3, [r5, #6]	@ zero_extendqisi2
 661 0034 ADF80C20 		strh	r2, [sp, #12]	@ unaligned
 662 0038 8DF80E30 		strb	r3, [sp, #14]
 631:Generated_Source\PSoC6\pdl\middleware\ble/cy_ble_gap.c ****             apiResult = Cy_BLE_GAP_GetPeerBdHandle(&peerAddrInfoParam);
 663              		.loc 1 631 0
 664 003c 02A8     		add	r0, sp, #8
 665 003e FFF7FEFF 		bl	Cy_BLE_GAP_GetPeerBdHandle
 666              	.LVL50:
 632:Generated_Source\PSoC6\pdl\middleware\ble/cy_ble_gap.c ****             if(apiResult == CY_BLE_SUCCESS)
 667              		.loc 1 632 0
 668 0042 0346     		mov	r3, r0
 669 0044 40B9     		cbnz	r0, .L53
 633:Generated_Source\PSoC6\pdl\middleware\ble/cy_ble_gap.c ****             {
 634:Generated_Source\PSoC6\pdl\middleware\ble/cy_ble_gap.c ****                 /* Store BD handle to clear CCCD values by Cy_BLE_StoreBondingData() */
 635:Generated_Source\PSoC6\pdl\middleware\ble/cy_ble_gap.c ****                 cy_ble_pendingFlashWrite |= CY_BLE_PENDING_CCCD_FLASH_CLEAR_BIT;
 670              		.loc 1 635 0
 671 0046 0B49     		ldr	r1, .L58
 672 0048 0A78     		ldrb	r2, [r1]	@ zero_extendqisi2
 673 004a 42F00402 		orr	r2, r2, #4
 674 004e 0A70     		strb	r2, [r1]
 636:Generated_Source\PSoC6\pdl\middleware\ble/cy_ble_gap.c ****                 cy_ble_pendingFlashClearCccdHandle = peerAddrInfoParam.bdHandle;
 675              		.loc 1 636 0
 676 0050 9DF80F10 		ldrb	r1, [sp, #15]	@ zero_extendqisi2
 677 0054 084A     		ldr	r2, .L58+4
 678 0056 1172     		strb	r1, [r2, #8]
 679              	.LVL51:
 680              	.L53:
 637:Generated_Source\PSoC6\pdl\middleware\ble/cy_ble_gap.c ****             }
 638:Generated_Source\PSoC6\pdl\middleware\ble/cy_ble_gap.c ****         }
 639:Generated_Source\PSoC6\pdl\middleware\ble/cy_ble_gap.c ****     #endif /* CY_BLE_GATT_DB_CCCD_COUNT != 0u */
 640:Generated_Source\PSoC6\pdl\middleware\ble/cy_ble_gap.c ****         if(apiResult == CY_BLE_SUCCESS)
 681              		.loc 1 640 0
 682 0058 43B9     		cbnz	r3, .L51
 641:Generated_Source\PSoC6\pdl\middleware\ble/cy_ble_gap.c ****         {
 642:Generated_Source\PSoC6\pdl\middleware\ble/cy_ble_gap.c ****             apiResult = Cy_BLE_GAP_RemoveDeviceFromBondList(bdAddr);
ARM GAS  C:\Users\guill\AppData\Local\Temp\ccKdZhTR.s 			page 40


 683              		.loc 1 642 0
 684 005a 2846     		mov	r0, r5
 685 005c FFF7FEFF 		bl	Cy_BLE_GAP_RemoveDeviceFromBondList
 686              	.LVL52:
 687 0060 0346     		mov	r3, r0
 688              	.LVL53:
 689 0062 03E0     		b	.L51
 690              	.LVL54:
 691              	.L55:
 692              		.cfi_def_cfa_offset 0
 693              		.cfi_restore 4
 694              		.cfi_restore 5
 695              		.cfi_restore 14
 696              	.LBE31:
 614:Generated_Source\PSoC6\pdl\middleware\ble/cy_ble_gap.c ****     }
 697              		.loc 1 614 0
 698 0064 054B     		ldr	r3, .L58+8
 699              	.LVL55:
 643:Generated_Source\PSoC6\pdl\middleware\ble/cy_ble_gap.c ****         }
 644:Generated_Source\PSoC6\pdl\middleware\ble/cy_ble_gap.c ****     }
 645:Generated_Source\PSoC6\pdl\middleware\ble/cy_ble_gap.c ****     else
 646:Generated_Source\PSoC6\pdl\middleware\ble/cy_ble_gap.c ****     {
 647:Generated_Source\PSoC6\pdl\middleware\ble/cy_ble_gap.c ****         apiResult = CY_BLE_ERROR_INVALID_OPERATION;
 648:Generated_Source\PSoC6\pdl\middleware\ble/cy_ble_gap.c ****     }
 649:Generated_Source\PSoC6\pdl\middleware\ble/cy_ble_gap.c **** 
 650:Generated_Source\PSoC6\pdl\middleware\ble/cy_ble_gap.c ****     return(apiResult);
 651:Generated_Source\PSoC6\pdl\middleware\ble/cy_ble_gap.c **** }
 700              		.loc 1 651 0
 701 0066 1846     		mov	r0, r3
 702              	.LVL56:
 703 0068 7047     		bx	lr
 704              	.LVL57:
 705              	.L56:
 706              		.cfi_def_cfa_offset 32
 707              		.cfi_offset 4, -12
 708              		.cfi_offset 5, -8
 709              		.cfi_offset 14, -4
 647:Generated_Source\PSoC6\pdl\middleware\ble/cy_ble_gap.c ****     }
 710              		.loc 1 647 0
 711 006a 054B     		ldr	r3, .L58+12
 712              	.LVL58:
 713              	.L51:
 714              		.loc 1 651 0
 715 006c 1846     		mov	r0, r3
 716 006e 05B0     		add	sp, sp, #20
 717              		.cfi_def_cfa_offset 12
 718              		@ sp needed
 719 0070 30BD     		pop	{r4, r5, pc}
 720              	.L59:
 721 0072 00BF     		.align	2
 722              	.L58:
 723 0074 00000000 		.word	cy_ble_pendingFlashWrite
 724 0078 00000000 		.word	.LANCHOR0
 725 007c 01001600 		.word	1441793
 726 0080 02001600 		.word	1441794
 727              		.cfi_endproc
 728              	.LFE259:
ARM GAS  C:\Users\guill\AppData\Local\Temp\ccKdZhTR.s 			page 41


 729              		.size	Cy_BLE_GAP_RemoveBondedDevice, .-Cy_BLE_GAP_RemoveBondedDevice
 730              		.section	.text.Cy_BLE_GAPC_StartScan,"ax",%progbits
 731              		.align	2
 732              		.global	Cy_BLE_GAPC_StartScan
 733              		.thumb
 734              		.thumb_func
 735              		.type	Cy_BLE_GAPC_StartScan, %function
 736              	Cy_BLE_GAPC_StartScan:
 737              	.LFB260:
 652:Generated_Source\PSoC6\pdl\middleware\ble/cy_ble_gap.c **** 
 653:Generated_Source\PSoC6\pdl\middleware\ble/cy_ble_gap.c **** 
 654:Generated_Source\PSoC6\pdl\middleware\ble/cy_ble_gap.c **** #endif /* (CY_BLE_GAP_ROLE_PERIPHERAL || CY_BLE_GAP_ROLE_CENTRAL) && (CY_BLE_BONDING_REQUIREMENT ==
 655:Generated_Source\PSoC6\pdl\middleware\ble/cy_ble_gap.c **** 
 656:Generated_Source\PSoC6\pdl\middleware\ble/cy_ble_gap.c **** 
 657:Generated_Source\PSoC6\pdl\middleware\ble/cy_ble_gap.c **** #if (CY_BLE_GAP_ROLE_PERIPHERAL || CY_BLE_GAP_ROLE_BROADCASTER)
 658:Generated_Source\PSoC6\pdl\middleware\ble/cy_ble_gap.c **** 
 659:Generated_Source\PSoC6\pdl\middleware\ble/cy_ble_gap.c **** /******************************************************************************
 660:Generated_Source\PSoC6\pdl\middleware\ble/cy_ble_gap.c ****  *  Function Name: Cy_BLE_GAPP_StartAdvertisement
 661:Generated_Source\PSoC6\pdl\middleware\ble/cy_ble_gap.c ****  ***************************************************************************//**
 662:Generated_Source\PSoC6\pdl\middleware\ble/cy_ble_gap.c ****  *
 663:Generated_Source\PSoC6\pdl\middleware\ble/cy_ble_gap.c ****  *  This function is used to start the advertisement using the advertisement data
 664:Generated_Source\PSoC6\pdl\middleware\ble/cy_ble_gap.c ****  *  set in the BLE Component customizer's GUI indicated by the advertisingParamIndex.
 665:Generated_Source\PSoC6\pdl\middleware\ble/cy_ble_gap.c ****  *  After invoking this function, the device will be available for connection by
 666:Generated_Source\PSoC6\pdl\middleware\ble/cy_ble_gap.c ****  *  the devices configured for GAP central role. It is only included if the
 667:Generated_Source\PSoC6\pdl\middleware\ble/cy_ble_gap.c ****  *  device is configured for GAP Peripheral or GAP Peripheral + Central role.
 668:Generated_Source\PSoC6\pdl\middleware\ble/cy_ble_gap.c ****  *
 669:Generated_Source\PSoC6\pdl\middleware\ble/cy_ble_gap.c ****  *  On start of advertisement, GAP Peripheral receives the
 670:Generated_Source\PSoC6\pdl\middleware\ble/cy_ble_gap.c ****  *  #CY_BLE_EVT_GAPP_ADVERTISEMENT_START_STOP event. The following events are
 671:Generated_Source\PSoC6\pdl\middleware\ble/cy_ble_gap.c ****  *  possible on invoking this function:
 672:Generated_Source\PSoC6\pdl\middleware\ble/cy_ble_gap.c ****  *
 673:Generated_Source\PSoC6\pdl\middleware\ble/cy_ble_gap.c ****  *  * #CY_BLE_EVT_GAP_DEVICE_CONNECTED - If the device connects to a GAP Central and
 674:Generated_Source\PSoC6\pdl\middleware\ble/cy_ble_gap.c ****  *     Link Layer Privacy is disabled.
 675:Generated_Source\PSoC6\pdl\middleware\ble/cy_ble_gap.c ****  *  * #CY_BLE_EVT_GAP_ENHANCE_CONN_COMPLETE - If the device connects to a GAP Central and
 676:Generated_Source\PSoC6\pdl\middleware\ble/cy_ble_gap.c ****  *     Link Layer Privacy is enabled.
 677:Generated_Source\PSoC6\pdl\middleware\ble/cy_ble_gap.c ****  *  * #CY_BLE_EVT_TIMEOUT: If no device in GAP Central mode connects to this
 678:Generated_Source\PSoC6\pdl\middleware\ble/cy_ble_gap.c ****  *                       device within the specified timeout limit. BLE Stack
 679:Generated_Source\PSoC6\pdl\middleware\ble/cy_ble_gap.c ****  *                       automatically initiate stop advertising when Slow
 680:Generated_Source\PSoC6\pdl\middleware\ble/cy_ble_gap.c ****  *                       advertising was initiated, or starts Slow advertising
 681:Generated_Source\PSoC6\pdl\middleware\ble/cy_ble_gap.c ****  *                       after Fast advertising timeout occur.
 682:Generated_Source\PSoC6\pdl\middleware\ble/cy_ble_gap.c ****  *  * #CY_BLE_EVT_GAPP_ADVERTISEMENT_START_STOP: If device started or stopped
 683:Generated_Source\PSoC6\pdl\middleware\ble/cy_ble_gap.c ****  *                       advertising. Use Cy_BLE_GetAdvertisementState() to
 684:Generated_Source\PSoC6\pdl\middleware\ble/cy_ble_gap.c ****  *                       determine the state. Sequential advertising could be
 685:Generated_Source\PSoC6\pdl\middleware\ble/cy_ble_gap.c ****  *                       started when #CY_BLE_ADV_STATE_STOPPED state is returned.
 686:Generated_Source\PSoC6\pdl\middleware\ble/cy_ble_gap.c ****  *  
 687:Generated_Source\PSoC6\pdl\middleware\ble/cy_ble_gap.c ****  *  \param advertisingIntervalType: Fast or slow advertising interval with timings
 688:Generated_Source\PSoC6\pdl\middleware\ble/cy_ble_gap.c ****  *                                  entered in Advertising settings section of the
 689:Generated_Source\PSoC6\pdl\middleware\ble/cy_ble_gap.c ****  *                                  customizer.
 690:Generated_Source\PSoC6\pdl\middleware\ble/cy_ble_gap.c ****  *  * CY_BLE_ADVERTISING_FAST   0x00u
 691:Generated_Source\PSoC6\pdl\middleware\ble/cy_ble_gap.c ****  *  * CY_BLE_ADVERTISING_SLOW   0x01u
 692:Generated_Source\PSoC6\pdl\middleware\ble/cy_ble_gap.c ****  *  * CY_BLE_ADVERTISING_CUSTOM 0x02u
 693:Generated_Source\PSoC6\pdl\middleware\ble/cy_ble_gap.c ****  *
 694:Generated_Source\PSoC6\pdl\middleware\ble/cy_ble_gap.c ****  *  \param advertisingParamIndex: The index of the peripheral and broadcast
 695:Generated_Source\PSoC6\pdl\middleware\ble/cy_ble_gap.c ****  *                                configuration in customizer. For example:
 696:Generated_Source\PSoC6\pdl\middleware\ble/cy_ble_gap.c ****  *  * CY_BLE_PERIPHERAL_CONFIGURATION_0_INDEX     0x00
 697:Generated_Source\PSoC6\pdl\middleware\ble/cy_ble_gap.c ****  *  * CY_BLE_BROADCASTER_CONFIGURATION_0_INDEX    0x01
 698:Generated_Source\PSoC6\pdl\middleware\ble/cy_ble_gap.c ****  *
 699:Generated_Source\PSoC6\pdl\middleware\ble/cy_ble_gap.c ****  *  \return
ARM GAS  C:\Users\guill\AppData\Local\Temp\ccKdZhTR.s 			page 42


 700:Generated_Source\PSoC6\pdl\middleware\ble/cy_ble_gap.c ****  *  \ref cy_en_ble_api_result_t : Return value indicates if the function succeeded or
 701:Generated_Source\PSoC6\pdl\middleware\ble/cy_ble_gap.c ****  *  failed. The following are possible error codes.
 702:Generated_Source\PSoC6\pdl\middleware\ble/cy_ble_gap.c ****  *
 703:Generated_Source\PSoC6\pdl\middleware\ble/cy_ble_gap.c ****  *   Error Codes                       |  Description
 704:Generated_Source\PSoC6\pdl\middleware\ble/cy_ble_gap.c ****  *   --------------------------------- |  --------------------------------
 705:Generated_Source\PSoC6\pdl\middleware\ble/cy_ble_gap.c ****  *   CY_BLE_SUCCESS                    |  On successful operation.
 706:Generated_Source\PSoC6\pdl\middleware\ble/cy_ble_gap.c ****  *   CY_BLE_ERROR_INVALID_PARAMETER    |  On passing an invalid parameter.
 707:Generated_Source\PSoC6\pdl\middleware\ble/cy_ble_gap.c ****  *   CY_BLE_ERROR_INVALID_STATE        |  On calling this function not in Stopped state.
 708:Generated_Source\PSoC6\pdl\middleware\ble/cy_ble_gap.c ****  *   CY_BLE_ERROR_INVALID_OPERATION    |  The operation is not permitted due to connection
 709:Generated_Source\PSoC6\pdl\middleware\ble/cy_ble_gap.c ****  *                                     |  limit exceeded. 
 710:Generated_Source\PSoC6\pdl\middleware\ble/cy_ble_gap.c ****  *
 711:Generated_Source\PSoC6\pdl\middleware\ble/cy_ble_gap.c ****  * \note
 712:Generated_Source\PSoC6\pdl\middleware\ble/cy_ble_gap.c ****  *  #CY_BLE_EVT_GAPP_ADVERTISEMENT_START_STOP event is generated after calling 
 713:Generated_Source\PSoC6\pdl\middleware\ble/cy_ble_gap.c ****  *  Cy_BLE_GAPP_StartAdvertisement() and Cy_BLE_GAPP_StopAdvertisement() functions.
 714:Generated_Source\PSoC6\pdl\middleware\ble/cy_ble_gap.c ****  *  Application should keep track of which function call resulted into this event
 715:Generated_Source\PSoC6\pdl\middleware\ble/cy_ble_gap.c ****  *
 716:Generated_Source\PSoC6\pdl\middleware\ble/cy_ble_gap.c ****  *******************************************************************************/
 717:Generated_Source\PSoC6\pdl\middleware\ble/cy_ble_gap.c **** cy_en_ble_api_result_t Cy_BLE_GAPP_StartAdvertisement(uint8_t advertisingIntervalType,
 718:Generated_Source\PSoC6\pdl\middleware\ble/cy_ble_gap.c ****                                                       uint8_t advertisingParamIndex)
 719:Generated_Source\PSoC6\pdl\middleware\ble/cy_ble_gap.c **** {
 720:Generated_Source\PSoC6\pdl\middleware\ble/cy_ble_gap.c ****     cy_en_ble_api_result_t apiResult;
 721:Generated_Source\PSoC6\pdl\middleware\ble/cy_ble_gap.c **** 
 722:Generated_Source\PSoC6\pdl\middleware\ble/cy_ble_gap.c ****     if((advertisingIntervalType > CY_BLE_ADVERTISING_CUSTOM) || (advertisingParamIndex >= CY_BLE_GA
 723:Generated_Source\PSoC6\pdl\middleware\ble/cy_ble_gap.c ****     {
 724:Generated_Source\PSoC6\pdl\middleware\ble/cy_ble_gap.c ****         apiResult = CY_BLE_ERROR_INVALID_PARAMETER;
 725:Generated_Source\PSoC6\pdl\middleware\ble/cy_ble_gap.c ****     }
 726:Generated_Source\PSoC6\pdl\middleware\ble/cy_ble_gap.c **** #if (CY_BLE_GAP_ROLE_PERIPHERAL) 
 727:Generated_Source\PSoC6\pdl\middleware\ble/cy_ble_gap.c ****     else if((Cy_BLE_GetNumOfActiveConn() == CY_BLE_CONN_COUNT) && 
 728:Generated_Source\PSoC6\pdl\middleware\ble/cy_ble_gap.c ****             ((cy_ble_configPtr->discoveryModeInfo[advertisingParamIndex].advParam->advType <
 729:Generated_Source\PSoC6\pdl\middleware\ble/cy_ble_gap.c ****                 CY_BLE_GAPP_SCANNABLE_UNDIRECTED_ADV) ||
 730:Generated_Source\PSoC6\pdl\middleware\ble/cy_ble_gap.c ****              (cy_ble_configPtr->discoveryModeInfo[advertisingParamIndex].advParam->advType >
 731:Generated_Source\PSoC6\pdl\middleware\ble/cy_ble_gap.c ****                 CY_BLE_GAPP_NON_CONNECTABLE_UNDIRECTED_ADV)))
 732:Generated_Source\PSoC6\pdl\middleware\ble/cy_ble_gap.c ****     {
 733:Generated_Source\PSoC6\pdl\middleware\ble/cy_ble_gap.c ****         apiResult = CY_BLE_ERROR_INVALID_OPERATION;
 734:Generated_Source\PSoC6\pdl\middleware\ble/cy_ble_gap.c ****     }
 735:Generated_Source\PSoC6\pdl\middleware\ble/cy_ble_gap.c **** #endif /*CY_BLE_GAP_ROLE_PERIPHERAL */
 736:Generated_Source\PSoC6\pdl\middleware\ble/cy_ble_gap.c ****     else if(Cy_BLE_GetAdvertisementState() == CY_BLE_ADV_STATE_STOPPED)
 737:Generated_Source\PSoC6\pdl\middleware\ble/cy_ble_gap.c ****     {
 738:Generated_Source\PSoC6\pdl\middleware\ble/cy_ble_gap.c ****         cy_ble_advIndex = advertisingParamIndex;
 739:Generated_Source\PSoC6\pdl\middleware\ble/cy_ble_gap.c ****         if(advertisingIntervalType == CY_BLE_ADVERTISING_FAST)
 740:Generated_Source\PSoC6\pdl\middleware\ble/cy_ble_gap.c ****         {
 741:Generated_Source\PSoC6\pdl\middleware\ble/cy_ble_gap.c ****             cy_ble_configPtr->discoveryModeInfo[advertisingParamIndex].advTo =
 742:Generated_Source\PSoC6\pdl\middleware\ble/cy_ble_gap.c ****                 cy_ble_configPtr->gappAdvParams[advertisingParamIndex].fastAdvTimeOut;
 743:Generated_Source\PSoC6\pdl\middleware\ble/cy_ble_gap.c ****             cy_ble_configPtr->discoveryModeInfo[advertisingParamIndex].advParam->advIntvMin =
 744:Generated_Source\PSoC6\pdl\middleware\ble/cy_ble_gap.c ****                 cy_ble_configPtr->gappAdvParams[advertisingParamIndex].fastAdvIntervalMin;
 745:Generated_Source\PSoC6\pdl\middleware\ble/cy_ble_gap.c ****             cy_ble_configPtr->discoveryModeInfo[advertisingParamIndex].advParam->advIntvMax =
 746:Generated_Source\PSoC6\pdl\middleware\ble/cy_ble_gap.c ****                 cy_ble_configPtr->gappAdvParams[advertisingParamIndex].fastAdvIntervalMax;
 747:Generated_Source\PSoC6\pdl\middleware\ble/cy_ble_gap.c ****         }
 748:Generated_Source\PSoC6\pdl\middleware\ble/cy_ble_gap.c ****         else if(advertisingIntervalType == CY_BLE_ADVERTISING_SLOW)
 749:Generated_Source\PSoC6\pdl\middleware\ble/cy_ble_gap.c ****         {
 750:Generated_Source\PSoC6\pdl\middleware\ble/cy_ble_gap.c ****             cy_ble_configPtr->discoveryModeInfo[advertisingParamIndex].advTo =
 751:Generated_Source\PSoC6\pdl\middleware\ble/cy_ble_gap.c ****                 cy_ble_configPtr->gappAdvParams[advertisingParamIndex].slowAdvTimeOut;
 752:Generated_Source\PSoC6\pdl\middleware\ble/cy_ble_gap.c ****             cy_ble_configPtr->discoveryModeInfo[advertisingParamIndex].advParam->advIntvMin =
 753:Generated_Source\PSoC6\pdl\middleware\ble/cy_ble_gap.c ****                 cy_ble_configPtr->gappAdvParams[advertisingParamIndex].slowAdvIntervalMin;
 754:Generated_Source\PSoC6\pdl\middleware\ble/cy_ble_gap.c ****             cy_ble_configPtr->discoveryModeInfo[advertisingParamIndex].advParam->advIntvMax =
 755:Generated_Source\PSoC6\pdl\middleware\ble/cy_ble_gap.c ****                 cy_ble_configPtr->gappAdvParams[advertisingParamIndex].slowAdvIntervalMax;
 756:Generated_Source\PSoC6\pdl\middleware\ble/cy_ble_gap.c ****         }
ARM GAS  C:\Users\guill\AppData\Local\Temp\ccKdZhTR.s 			page 43


 757:Generated_Source\PSoC6\pdl\middleware\ble/cy_ble_gap.c ****         else /* Do not update advertising intervals */
 758:Generated_Source\PSoC6\pdl\middleware\ble/cy_ble_gap.c ****         {
 759:Generated_Source\PSoC6\pdl\middleware\ble/cy_ble_gap.c ****         }
 760:Generated_Source\PSoC6\pdl\middleware\ble/cy_ble_gap.c ****         cy_ble_advertisingIntervalType = advertisingIntervalType;
 761:Generated_Source\PSoC6\pdl\middleware\ble/cy_ble_gap.c ****         apiResult = Cy_BLE_GAPP_EnterDiscoveryMode(&cy_ble_configPtr->discoveryModeInfo[cy_ble_advI
 762:Generated_Source\PSoC6\pdl\middleware\ble/cy_ble_gap.c **** 
 763:Generated_Source\PSoC6\pdl\middleware\ble/cy_ble_gap.c ****         if(apiResult == CY_BLE_SUCCESS)
 764:Generated_Source\PSoC6\pdl\middleware\ble/cy_ble_gap.c ****         {
 765:Generated_Source\PSoC6\pdl\middleware\ble/cy_ble_gap.c ****             Cy_BLE_SetAdvertisementState(CY_BLE_ADV_STATE_ADV_INITIATED);
 766:Generated_Source\PSoC6\pdl\middleware\ble/cy_ble_gap.c ****         }
 767:Generated_Source\PSoC6\pdl\middleware\ble/cy_ble_gap.c ****     }
 768:Generated_Source\PSoC6\pdl\middleware\ble/cy_ble_gap.c ****     else
 769:Generated_Source\PSoC6\pdl\middleware\ble/cy_ble_gap.c ****     {
 770:Generated_Source\PSoC6\pdl\middleware\ble/cy_ble_gap.c ****         apiResult = CY_BLE_ERROR_INVALID_STATE;
 771:Generated_Source\PSoC6\pdl\middleware\ble/cy_ble_gap.c ****     }
 772:Generated_Source\PSoC6\pdl\middleware\ble/cy_ble_gap.c **** 
 773:Generated_Source\PSoC6\pdl\middleware\ble/cy_ble_gap.c ****     return(apiResult);
 774:Generated_Source\PSoC6\pdl\middleware\ble/cy_ble_gap.c **** }
 775:Generated_Source\PSoC6\pdl\middleware\ble/cy_ble_gap.c **** 
 776:Generated_Source\PSoC6\pdl\middleware\ble/cy_ble_gap.c **** 
 777:Generated_Source\PSoC6\pdl\middleware\ble/cy_ble_gap.c **** /******************************************************************************
 778:Generated_Source\PSoC6\pdl\middleware\ble/cy_ble_gap.c **** * Function Name: Cy_BLE_GAPP_StopAdvertisement
 779:Generated_Source\PSoC6\pdl\middleware\ble/cy_ble_gap.c **** ***************************************************************************//**
 780:Generated_Source\PSoC6\pdl\middleware\ble/cy_ble_gap.c **** *
 781:Generated_Source\PSoC6\pdl\middleware\ble/cy_ble_gap.c **** *   This function can be used to exit from discovery mode. After the execution
 782:Generated_Source\PSoC6\pdl\middleware\ble/cy_ble_gap.c **** *   of this function, there will no longer be any advertisements. On stopping
 783:Generated_Source\PSoC6\pdl\middleware\ble/cy_ble_gap.c **** *   advertising, GAP Peripheral receives #CY_BLE_EVT_GAPP_ADVERTISEMENT_START_STOP
 784:Generated_Source\PSoC6\pdl\middleware\ble/cy_ble_gap.c **** *   event.
 785:Generated_Source\PSoC6\pdl\middleware\ble/cy_ble_gap.c **** *
 786:Generated_Source\PSoC6\pdl\middleware\ble/cy_ble_gap.c **** *   The following event occurs on invoking this function:
 787:Generated_Source\PSoC6\pdl\middleware\ble/cy_ble_gap.c **** *   * #CY_BLE_EVT_GAPP_ADVERTISEMENT_START_STOP
 788:Generated_Source\PSoC6\pdl\middleware\ble/cy_ble_gap.c **** *
 789:Generated_Source\PSoC6\pdl\middleware\ble/cy_ble_gap.c **** *
 790:Generated_Source\PSoC6\pdl\middleware\ble/cy_ble_gap.c **** *  \return
 791:Generated_Source\PSoC6\pdl\middleware\ble/cy_ble_gap.c **** *  \ref cy_en_ble_api_result_t : Return value indicates if the function succeeded or
 792:Generated_Source\PSoC6\pdl\middleware\ble/cy_ble_gap.c **** *  failed. The following are possible error codes.
 793:Generated_Source\PSoC6\pdl\middleware\ble/cy_ble_gap.c **** *
 794:Generated_Source\PSoC6\pdl\middleware\ble/cy_ble_gap.c **** *   Error Codes                           | Description
 795:Generated_Source\PSoC6\pdl\middleware\ble/cy_ble_gap.c **** *   ------------                          | -----------
 796:Generated_Source\PSoC6\pdl\middleware\ble/cy_ble_gap.c **** *   CY_BLE_SUCCESS                        | On successful operation.
 797:Generated_Source\PSoC6\pdl\middleware\ble/cy_ble_gap.c **** *   CY_BLE_ERROR_MEMORY_ALLOCATION_FAILED | Memory allocation failed.
 798:Generated_Source\PSoC6\pdl\middleware\ble/cy_ble_gap.c **** *   CY_BLE_ERROR_INVALID_STATE            | On calling this function not in Advertising state.
 799:Generated_Source\PSoC6\pdl\middleware\ble/cy_ble_gap.c **** *
 800:Generated_Source\PSoC6\pdl\middleware\ble/cy_ble_gap.c **** * \note
 801:Generated_Source\PSoC6\pdl\middleware\ble/cy_ble_gap.c **** *   #CY_BLE_EVT_GAPP_ADVERTISEMENT_START_STOP event is generated after calling 
 802:Generated_Source\PSoC6\pdl\middleware\ble/cy_ble_gap.c **** *   Cy_BLE_GAPP_StartAdvertisement() and Cy_BLE_GAPP_StopAdvertisement() functions.
 803:Generated_Source\PSoC6\pdl\middleware\ble/cy_ble_gap.c **** *   Application should keep track of which function call resulted into this event.
 804:Generated_Source\PSoC6\pdl\middleware\ble/cy_ble_gap.c **** *
 805:Generated_Source\PSoC6\pdl\middleware\ble/cy_ble_gap.c **** *******************************************************************************/
 806:Generated_Source\PSoC6\pdl\middleware\ble/cy_ble_gap.c **** cy_en_ble_api_result_t Cy_BLE_GAPP_StopAdvertisement(void)
 807:Generated_Source\PSoC6\pdl\middleware\ble/cy_ble_gap.c **** {
 808:Generated_Source\PSoC6\pdl\middleware\ble/cy_ble_gap.c ****     cy_en_ble_api_result_t apiResult;
 809:Generated_Source\PSoC6\pdl\middleware\ble/cy_ble_gap.c **** 
 810:Generated_Source\PSoC6\pdl\middleware\ble/cy_ble_gap.c ****     if(Cy_BLE_GetAdvertisementState() != CY_BLE_ADV_STATE_STOPPED)
 811:Generated_Source\PSoC6\pdl\middleware\ble/cy_ble_gap.c ****     {
 812:Generated_Source\PSoC6\pdl\middleware\ble/cy_ble_gap.c ****         apiResult = Cy_BLE_GAPP_ExitDiscoveryMode();
 813:Generated_Source\PSoC6\pdl\middleware\ble/cy_ble_gap.c ****         if(apiResult == CY_BLE_SUCCESS)
ARM GAS  C:\Users\guill\AppData\Local\Temp\ccKdZhTR.s 			page 44


 814:Generated_Source\PSoC6\pdl\middleware\ble/cy_ble_gap.c ****         {
 815:Generated_Source\PSoC6\pdl\middleware\ble/cy_ble_gap.c ****             Cy_BLE_SetAdvertisementState(CY_BLE_ADV_STATE_STOP_INITIATED);
 816:Generated_Source\PSoC6\pdl\middleware\ble/cy_ble_gap.c ****         }
 817:Generated_Source\PSoC6\pdl\middleware\ble/cy_ble_gap.c ****     }
 818:Generated_Source\PSoC6\pdl\middleware\ble/cy_ble_gap.c ****     else
 819:Generated_Source\PSoC6\pdl\middleware\ble/cy_ble_gap.c ****     {
 820:Generated_Source\PSoC6\pdl\middleware\ble/cy_ble_gap.c ****         apiResult = CY_BLE_ERROR_INVALID_STATE;
 821:Generated_Source\PSoC6\pdl\middleware\ble/cy_ble_gap.c ****     }
 822:Generated_Source\PSoC6\pdl\middleware\ble/cy_ble_gap.c **** 
 823:Generated_Source\PSoC6\pdl\middleware\ble/cy_ble_gap.c ****     return(apiResult);
 824:Generated_Source\PSoC6\pdl\middleware\ble/cy_ble_gap.c **** }
 825:Generated_Source\PSoC6\pdl\middleware\ble/cy_ble_gap.c **** 
 826:Generated_Source\PSoC6\pdl\middleware\ble/cy_ble_gap.c **** 
 827:Generated_Source\PSoC6\pdl\middleware\ble/cy_ble_gap.c **** /******************************************************************************
 828:Generated_Source\PSoC6\pdl\middleware\ble/cy_ble_gap.c **** * Function Name: Cy_BLE_ChangeAdDeviceAddress
 829:Generated_Source\PSoC6\pdl\middleware\ble/cy_ble_gap.c **** ***************************************************************************//**
 830:Generated_Source\PSoC6\pdl\middleware\ble/cy_ble_gap.c **** *
 831:Generated_Source\PSoC6\pdl\middleware\ble/cy_ble_gap.c **** *  This function is used to set the Bluetooth device address into the
 832:Generated_Source\PSoC6\pdl\middleware\ble/cy_ble_gap.c **** *  advertisement or scan response data structures.
 833:Generated_Source\PSoC6\pdl\middleware\ble/cy_ble_gap.c **** *
 834:Generated_Source\PSoC6\pdl\middleware\ble/cy_ble_gap.c **** *  \param bdAddr: Bluetooth Device address. The variable is of type #cy_stc_ble_gap_bd_addr_t.
 835:Generated_Source\PSoC6\pdl\middleware\ble/cy_ble_gap.c **** *  \param dest: 0 - selects advertisement structure, not zero value selects scan
 836:Generated_Source\PSoC6\pdl\middleware\ble/cy_ble_gap.c **** *               response structure.
 837:Generated_Source\PSoC6\pdl\middleware\ble/cy_ble_gap.c **** *
 838:Generated_Source\PSoC6\pdl\middleware\ble/cy_ble_gap.c **** *  \return
 839:Generated_Source\PSoC6\pdl\middleware\ble/cy_ble_gap.c **** *   None
 840:Generated_Source\PSoC6\pdl\middleware\ble/cy_ble_gap.c **** *
 841:Generated_Source\PSoC6\pdl\middleware\ble/cy_ble_gap.c **** *******************************************************************************/
 842:Generated_Source\PSoC6\pdl\middleware\ble/cy_ble_gap.c **** void Cy_BLE_ChangeAdDeviceAddress(const cy_stc_ble_gap_bd_addr_t* bdAddr,
 843:Generated_Source\PSoC6\pdl\middleware\ble/cy_ble_gap.c ****                                   uint8_t dest)
 844:Generated_Source\PSoC6\pdl\middleware\ble/cy_ble_gap.c **** {
 845:Generated_Source\PSoC6\pdl\middleware\ble/cy_ble_gap.c ****     uint32_t i;
 846:Generated_Source\PSoC6\pdl\middleware\ble/cy_ble_gap.c ****     uint32_t fFlag;
 847:Generated_Source\PSoC6\pdl\middleware\ble/cy_ble_gap.c ****     uint32_t adLength;
 848:Generated_Source\PSoC6\pdl\middleware\ble/cy_ble_gap.c ****     uint32_t byteCounter;
 849:Generated_Source\PSoC6\pdl\middleware\ble/cy_ble_gap.c ****     uint32_t maxLength;
 850:Generated_Source\PSoC6\pdl\middleware\ble/cy_ble_gap.c ****     uint32_t advIndex = 0u;
 851:Generated_Source\PSoC6\pdl\middleware\ble/cy_ble_gap.c ****     uint8_t *destBuffer;
 852:Generated_Source\PSoC6\pdl\middleware\ble/cy_ble_gap.c **** 
 853:Generated_Source\PSoC6\pdl\middleware\ble/cy_ble_gap.c ****     do
 854:Generated_Source\PSoC6\pdl\middleware\ble/cy_ble_gap.c ****     {
 855:Generated_Source\PSoC6\pdl\middleware\ble/cy_ble_gap.c ****         fFlag = 0u;
 856:Generated_Source\PSoC6\pdl\middleware\ble/cy_ble_gap.c ****         byteCounter = 0u;
 857:Generated_Source\PSoC6\pdl\middleware\ble/cy_ble_gap.c **** 
 858:Generated_Source\PSoC6\pdl\middleware\ble/cy_ble_gap.c ****         if(dest == 0u)      /* Destination - advertising structure */
 859:Generated_Source\PSoC6\pdl\middleware\ble/cy_ble_gap.c ****         {
 860:Generated_Source\PSoC6\pdl\middleware\ble/cy_ble_gap.c ****             destBuffer = cy_ble_configPtr->discoveryModeInfo[advIndex].advData->advData;
 861:Generated_Source\PSoC6\pdl\middleware\ble/cy_ble_gap.c ****             maxLength = cy_ble_configPtr->discoveryModeInfo[advIndex].advData->advDataLen;
 862:Generated_Source\PSoC6\pdl\middleware\ble/cy_ble_gap.c ****         }
 863:Generated_Source\PSoC6\pdl\middleware\ble/cy_ble_gap.c ****         else                /* Destination - scan response structure */
 864:Generated_Source\PSoC6\pdl\middleware\ble/cy_ble_gap.c ****         {
 865:Generated_Source\PSoC6\pdl\middleware\ble/cy_ble_gap.c ****             destBuffer = cy_ble_configPtr->discoveryModeInfo[advIndex].scanRspData->scanRspData;
 866:Generated_Source\PSoC6\pdl\middleware\ble/cy_ble_gap.c ****             maxLength = cy_ble_configPtr->discoveryModeInfo[advIndex].scanRspData->scanRspDataLen;
 867:Generated_Source\PSoC6\pdl\middleware\ble/cy_ble_gap.c ****         }
 868:Generated_Source\PSoC6\pdl\middleware\ble/cy_ble_gap.c **** 
 869:Generated_Source\PSoC6\pdl\middleware\ble/cy_ble_gap.c ****         while((byteCounter < maxLength) && (fFlag == 0u))
 870:Generated_Source\PSoC6\pdl\middleware\ble/cy_ble_gap.c ****         {
ARM GAS  C:\Users\guill\AppData\Local\Temp\ccKdZhTR.s 			page 45


 871:Generated_Source\PSoC6\pdl\middleware\ble/cy_ble_gap.c ****             adLength = destBuffer[byteCounter];
 872:Generated_Source\PSoC6\pdl\middleware\ble/cy_ble_gap.c **** 
 873:Generated_Source\PSoC6\pdl\middleware\ble/cy_ble_gap.c ****             if(adLength != 0u)
 874:Generated_Source\PSoC6\pdl\middleware\ble/cy_ble_gap.c ****             {
 875:Generated_Source\PSoC6\pdl\middleware\ble/cy_ble_gap.c ****                 /* Increment byte counter so it can point to AD type */
 876:Generated_Source\PSoC6\pdl\middleware\ble/cy_ble_gap.c ****                 byteCounter++;
 877:Generated_Source\PSoC6\pdl\middleware\ble/cy_ble_gap.c **** 
 878:Generated_Source\PSoC6\pdl\middleware\ble/cy_ble_gap.c ****                 if(destBuffer[byteCounter] == CY_BLE_ADV_DEVICE_ADDR)
 879:Generated_Source\PSoC6\pdl\middleware\ble/cy_ble_gap.c ****                 {
 880:Generated_Source\PSoC6\pdl\middleware\ble/cy_ble_gap.c ****                     /* Start of the device address type was found. Set flag and exit the loop. */
 881:Generated_Source\PSoC6\pdl\middleware\ble/cy_ble_gap.c ****                     fFlag = 1u;
 882:Generated_Source\PSoC6\pdl\middleware\ble/cy_ble_gap.c ****                 }
 883:Generated_Source\PSoC6\pdl\middleware\ble/cy_ble_gap.c ****                 else
 884:Generated_Source\PSoC6\pdl\middleware\ble/cy_ble_gap.c ****                 {
 885:Generated_Source\PSoC6\pdl\middleware\ble/cy_ble_gap.c ****                     byteCounter += adLength;
 886:Generated_Source\PSoC6\pdl\middleware\ble/cy_ble_gap.c ****                 }
 887:Generated_Source\PSoC6\pdl\middleware\ble/cy_ble_gap.c ****             }
 888:Generated_Source\PSoC6\pdl\middleware\ble/cy_ble_gap.c ****             else
 889:Generated_Source\PSoC6\pdl\middleware\ble/cy_ble_gap.c ****             {
 890:Generated_Source\PSoC6\pdl\middleware\ble/cy_ble_gap.c ****                 /* The end of advertisement data structure was encountered though exit the loop. */
 891:Generated_Source\PSoC6\pdl\middleware\ble/cy_ble_gap.c ****                 break;
 892:Generated_Source\PSoC6\pdl\middleware\ble/cy_ble_gap.c ****             }
 893:Generated_Source\PSoC6\pdl\middleware\ble/cy_ble_gap.c ****         }
 894:Generated_Source\PSoC6\pdl\middleware\ble/cy_ble_gap.c **** 
 895:Generated_Source\PSoC6\pdl\middleware\ble/cy_ble_gap.c ****         if(fFlag != 0u)
 896:Generated_Source\PSoC6\pdl\middleware\ble/cy_ble_gap.c ****         {
 897:Generated_Source\PSoC6\pdl\middleware\ble/cy_ble_gap.c ****             /* Increment byte counter so it can point to Device address */
 898:Generated_Source\PSoC6\pdl\middleware\ble/cy_ble_gap.c ****             byteCounter++;
 899:Generated_Source\PSoC6\pdl\middleware\ble/cy_ble_gap.c **** 
 900:Generated_Source\PSoC6\pdl\middleware\ble/cy_ble_gap.c ****             /* Update Device Address type */
 901:Generated_Source\PSoC6\pdl\middleware\ble/cy_ble_gap.c ****             destBuffer[byteCounter] = bdAddr->type;
 902:Generated_Source\PSoC6\pdl\middleware\ble/cy_ble_gap.c **** 
 903:Generated_Source\PSoC6\pdl\middleware\ble/cy_ble_gap.c ****             for(i = 0u; i < CY_BLE_GAP_BD_ADDR_SIZE; i++)
 904:Generated_Source\PSoC6\pdl\middleware\ble/cy_ble_gap.c ****             {
 905:Generated_Source\PSoC6\pdl\middleware\ble/cy_ble_gap.c ****                 destBuffer[byteCounter + i + 1u] = bdAddr->bdAddr[i];
 906:Generated_Source\PSoC6\pdl\middleware\ble/cy_ble_gap.c ****             }
 907:Generated_Source\PSoC6\pdl\middleware\ble/cy_ble_gap.c ****         }
 908:Generated_Source\PSoC6\pdl\middleware\ble/cy_ble_gap.c ****         advIndex++;
 909:Generated_Source\PSoC6\pdl\middleware\ble/cy_ble_gap.c ****     }
 910:Generated_Source\PSoC6\pdl\middleware\ble/cy_ble_gap.c ****     while(advIndex < CY_BLE_GAPP_CONF_COUNT);
 911:Generated_Source\PSoC6\pdl\middleware\ble/cy_ble_gap.c **** }
 912:Generated_Source\PSoC6\pdl\middleware\ble/cy_ble_gap.c **** 
 913:Generated_Source\PSoC6\pdl\middleware\ble/cy_ble_gap.c **** #endif /* CY_BLE_GAP_ROLE_PERIPHERAL || CY_BLE_GAP_ROLE_BROADCASTER */
 914:Generated_Source\PSoC6\pdl\middleware\ble/cy_ble_gap.c **** 
 915:Generated_Source\PSoC6\pdl\middleware\ble/cy_ble_gap.c **** 
 916:Generated_Source\PSoC6\pdl\middleware\ble/cy_ble_gap.c **** #if (CY_BLE_GAP_ROLE_CENTRAL || CY_BLE_GAP_ROLE_OBSERVER)
 917:Generated_Source\PSoC6\pdl\middleware\ble/cy_ble_gap.c **** 
 918:Generated_Source\PSoC6\pdl\middleware\ble/cy_ble_gap.c **** /******************************************************************************
 919:Generated_Source\PSoC6\pdl\middleware\ble/cy_ble_gap.c **** * Function Name: Cy_BLE_GAPC_StartScan
 920:Generated_Source\PSoC6\pdl\middleware\ble/cy_ble_gap.c **** ***************************************************************************//**
 921:Generated_Source\PSoC6\pdl\middleware\ble/cy_ble_gap.c **** *
 922:Generated_Source\PSoC6\pdl\middleware\ble/cy_ble_gap.c **** *   This function is used for discovering GAP peripheral devices that are
 923:Generated_Source\PSoC6\pdl\middleware\ble/cy_ble_gap.c **** *   available for connection. It performs the scanning routine using the
 924:Generated_Source\PSoC6\pdl\middleware\ble/cy_ble_gap.c **** *   parameters entered in the Component's customizer indicated by
 925:Generated_Source\PSoC6\pdl\middleware\ble/cy_ble_gap.c **** *   scanParamIndex parameter.
 926:Generated_Source\PSoC6\pdl\middleware\ble/cy_ble_gap.c **** *
 927:Generated_Source\PSoC6\pdl\middleware\ble/cy_ble_gap.c **** *   As soon as the discovery operation starts, #CY_BLE_EVT_GAPC_SCAN_START_STOP
ARM GAS  C:\Users\guill\AppData\Local\Temp\ccKdZhTR.s 			page 46


 928:Generated_Source\PSoC6\pdl\middleware\ble/cy_ble_gap.c **** *   event is generated. The #CY_BLE_EVT_GAPC_SCAN_PROGRESS_RESULT event is
 929:Generated_Source\PSoC6\pdl\middleware\ble/cy_ble_gap.c **** *   generated when a GAP peripheral device is located. There are three discovery
 930:Generated_Source\PSoC6\pdl\middleware\ble/cy_ble_gap.c **** *   procedures can be selected in the customizer's GUI:
 931:Generated_Source\PSoC6\pdl\middleware\ble/cy_ble_gap.c **** *
 932:Generated_Source\PSoC6\pdl\middleware\ble/cy_ble_gap.c **** *   * Observation procedure: A device performing the observer role receives only
 933:Generated_Source\PSoC6\pdl\middleware\ble/cy_ble_gap.c **** *                            advertisement data from devices irrespective of
 934:Generated_Source\PSoC6\pdl\middleware\ble/cy_ble_gap.c **** *                            their discoverable mode settings. Advertisement
 935:Generated_Source\PSoC6\pdl\middleware\ble/cy_ble_gap.c **** *                            data received is provided by the event,
 936:Generated_Source\PSoC6\pdl\middleware\ble/cy_ble_gap.c **** *                            #CY_BLE_EVT_GAPC_SCAN_PROGRESS_RESULT. This procedure
 937:Generated_Source\PSoC6\pdl\middleware\ble/cy_ble_gap.c **** *                            requires the scanType sub parameter to be passive
 938:Generated_Source\PSoC6\pdl\middleware\ble/cy_ble_gap.c **** *                            scanning.
 939:Generated_Source\PSoC6\pdl\middleware\ble/cy_ble_gap.c **** *
 940:Generated_Source\PSoC6\pdl\middleware\ble/cy_ble_gap.c **** *   * Discovery procedure: A device performing the discovery procedure receives
 941:Generated_Source\PSoC6\pdl\middleware\ble/cy_ble_gap.c **** *                          the advertisement data and scan response data from
 942:Generated_Source\PSoC6\pdl\middleware\ble/cy_ble_gap.c **** *                          devices in both limited discoverable mode and the
 943:Generated_Source\PSoC6\pdl\middleware\ble/cy_ble_gap.c **** *                          general discoverable mode. Received data is provided
 944:Generated_Source\PSoC6\pdl\middleware\ble/cy_ble_gap.c **** *                          by the event, #CY_BLE_EVT_GAPC_SCAN_PROGRESS_RESULT.
 945:Generated_Source\PSoC6\pdl\middleware\ble/cy_ble_gap.c **** *                          This procedure requires the scanType sub-parameter
 946:Generated_Source\PSoC6\pdl\middleware\ble/cy_ble_gap.c **** *                          to be active scanning.
 947:Generated_Source\PSoC6\pdl\middleware\ble/cy_ble_gap.c **** *
 948:Generated_Source\PSoC6\pdl\middleware\ble/cy_ble_gap.c **** *   Every Advertisement / Scan response packet is received in a new event,
 949:Generated_Source\PSoC6\pdl\middleware\ble/cy_ble_gap.c **** *   #CY_BLE_EVT_GAPC_SCAN_PROGRESS_RESULT.
 950:Generated_Source\PSoC6\pdl\middleware\ble/cy_ble_gap.c **** *   If 'scanTo' sub-parameter is a non-zero value, then upon commencement of
 951:Generated_Source\PSoC6\pdl\middleware\ble/cy_ble_gap.c **** *   discovery procedure and elapsed time = 'scanTo', #CY_BLE_EVT_TIMEOUT event
 952:Generated_Source\PSoC6\pdl\middleware\ble/cy_ble_gap.c **** *   is generated with the event parameter indicating #CY_BLE_GAP_SCAN_TO.
 953:Generated_Source\PSoC6\pdl\middleware\ble/cy_ble_gap.c **** *   Possible generated events are:
 954:Generated_Source\PSoC6\pdl\middleware\ble/cy_ble_gap.c **** *   * #CY_BLE_EVT_GAPC_SCAN_START_STOP: If a device started or stopped scanning.
 955:Generated_Source\PSoC6\pdl\middleware\ble/cy_ble_gap.c **** *                                     Use Cy_BLE_GetScanState() to determine the
 956:Generated_Source\PSoC6\pdl\middleware\ble/cy_ble_gap.c **** *                                     state. Sequential scanning could be
 957:Generated_Source\PSoC6\pdl\middleware\ble/cy_ble_gap.c **** *                                     started when #CY_BLE_ADV_STATE_STOPPED
 958:Generated_Source\PSoC6\pdl\middleware\ble/cy_ble_gap.c **** *                                     state is returned.
 959:Generated_Source\PSoC6\pdl\middleware\ble/cy_ble_gap.c **** *   * #CY_BLE_EVT_GAPC_SCAN_PROGRESS_RESULT
 960:Generated_Source\PSoC6\pdl\middleware\ble/cy_ble_gap.c **** *   * #CY_BLE_EVT_TIMEOUT (CY_BLE_GAP_SCAN_TO)
 961:Generated_Source\PSoC6\pdl\middleware\ble/cy_ble_gap.c **** *
 962:Generated_Source\PSoC6\pdl\middleware\ble/cy_ble_gap.c **** *   \param scanningIntervalType:  Fast or slow scanning interval with
 963:Generated_Source\PSoC6\pdl\middleware\ble/cy_ble_gap.c **** *       timings entered in Scan settings section of the customizer.
 964:Generated_Source\PSoC6\pdl\middleware\ble/cy_ble_gap.c **** *       * CY_BLE_SCANNING_FAST   0x00u
 965:Generated_Source\PSoC6\pdl\middleware\ble/cy_ble_gap.c **** *       * CY_BLE_SCANNING_SLOW   0x01u
 966:Generated_Source\PSoC6\pdl\middleware\ble/cy_ble_gap.c **** *       * CY_BLE_SCANNING_CUSTOM 0x02u
 967:Generated_Source\PSoC6\pdl\middleware\ble/cy_ble_gap.c **** *
 968:Generated_Source\PSoC6\pdl\middleware\ble/cy_ble_gap.c **** *   \param scanParamIndex:  The index of the central and scan configuration
 969:Generated_Source\PSoC6\pdl\middleware\ble/cy_ble_gap.c **** *                           in customizer.
 970:Generated_Source\PSoC6\pdl\middleware\ble/cy_ble_gap.c **** *
 971:Generated_Source\PSoC6\pdl\middleware\ble/cy_ble_gap.c **** *   \return
 972:Generated_Source\PSoC6\pdl\middleware\ble/cy_ble_gap.c **** *   \ref cy_en_ble_api_result_t : Return value indicates if the function succeeded or
 973:Generated_Source\PSoC6\pdl\middleware\ble/cy_ble_gap.c **** *   failed. The following are possible error codes.
 974:Generated_Source\PSoC6\pdl\middleware\ble/cy_ble_gap.c **** *
 975:Generated_Source\PSoC6\pdl\middleware\ble/cy_ble_gap.c **** *   Error Codes                        | Description
 976:Generated_Source\PSoC6\pdl\middleware\ble/cy_ble_gap.c **** *   ---------------------------------- | -----------------------------------
 977:Generated_Source\PSoC6\pdl\middleware\ble/cy_ble_gap.c **** *   CY_BLE_SUCCESS                     | On successful operation.
 978:Generated_Source\PSoC6\pdl\middleware\ble/cy_ble_gap.c **** *   CY_BLE_ERROR_INVALID_PARAMETER     | On passing an invalid parameter.
 979:Generated_Source\PSoC6\pdl\middleware\ble/cy_ble_gap.c **** *   CY_BLE_ERROR_INVALID_STATE         | On calling this function not in Stopped state.
 980:Generated_Source\PSoC6\pdl\middleware\ble/cy_ble_gap.c **** *
 981:Generated_Source\PSoC6\pdl\middleware\ble/cy_ble_gap.c **** *******************************************************************************/
 982:Generated_Source\PSoC6\pdl\middleware\ble/cy_ble_gap.c **** cy_en_ble_api_result_t Cy_BLE_GAPC_StartScan(uint8_t scanningIntervalType,
 983:Generated_Source\PSoC6\pdl\middleware\ble/cy_ble_gap.c ****                                              uint8_t scanParamIndex)
 984:Generated_Source\PSoC6\pdl\middleware\ble/cy_ble_gap.c **** {
ARM GAS  C:\Users\guill\AppData\Local\Temp\ccKdZhTR.s 			page 47


 738              		.loc 1 984 0
 739              		.cfi_startproc
 740              		@ args = 0, pretend = 0, frame = 0
 741              		@ frame_needed = 0, uses_anonymous_args = 0
 742              	.LVL59:
 743 0000 F8B5     		push	{r3, r4, r5, r6, r7, lr}
 744              		.cfi_def_cfa_offset 24
 745              		.cfi_offset 3, -24
 746              		.cfi_offset 4, -20
 747              		.cfi_offset 5, -16
 748              		.cfi_offset 6, -12
 749              		.cfi_offset 7, -8
 750              		.cfi_offset 14, -4
 985:Generated_Source\PSoC6\pdl\middleware\ble/cy_ble_gap.c ****     cy_en_ble_api_result_t apiResult;
 986:Generated_Source\PSoC6\pdl\middleware\ble/cy_ble_gap.c **** 
 987:Generated_Source\PSoC6\pdl\middleware\ble/cy_ble_gap.c ****     if(scanningIntervalType > CY_BLE_SCANNING_CUSTOM)
 751              		.loc 1 987 0
 752 0002 0228     		cmp	r0, #2
 753 0004 4FD8     		bhi	.L64
 754              	.LBB32:
 755              	.LBB33:
 802:Generated_Source\PSoC6\pdl\middleware\ble/cy_ble_gap.h **** }
 756              		.loc 2 802 0
 757 0006 2A4B     		ldr	r3, .L67
 758 0008 1B78     		ldrb	r3, [r3]	@ zero_extendqisi2
 759              	.LBE33:
 760              	.LBE32:
 988:Generated_Source\PSoC6\pdl\middleware\ble/cy_ble_gap.c ****     {
 989:Generated_Source\PSoC6\pdl\middleware\ble/cy_ble_gap.c ****         apiResult = CY_BLE_ERROR_INVALID_PARAMETER;
 990:Generated_Source\PSoC6\pdl\middleware\ble/cy_ble_gap.c ****     }
 991:Generated_Source\PSoC6\pdl\middleware\ble/cy_ble_gap.c ****     else if(Cy_BLE_GetScanState() == CY_BLE_SCAN_STATE_STOPPED)
 761              		.loc 1 991 0
 762 000a 002B     		cmp	r3, #0
 763 000c 4DD1     		bne	.L65
 992:Generated_Source\PSoC6\pdl\middleware\ble/cy_ble_gap.c ****     {
 993:Generated_Source\PSoC6\pdl\middleware\ble/cy_ble_gap.c ****         cy_ble_scanIndex = scanParamIndex;
 764              		.loc 1 993 0
 765 000e 294B     		ldr	r3, .L67+4
 766 0010 1970     		strb	r1, [r3]
 994:Generated_Source\PSoC6\pdl\middleware\ble/cy_ble_gap.c ****         if(scanningIntervalType == CY_BLE_SCANNING_FAST)
 767              		.loc 1 994 0
 768 0012 D0B9     		cbnz	r0, .L62
 995:Generated_Source\PSoC6\pdl\middleware\ble/cy_ble_gap.c ****         {
 996:Generated_Source\PSoC6\pdl\middleware\ble/cy_ble_gap.c ****             cy_ble_configPtr->discoveryInfo[scanParamIndex].scanTo =
 769              		.loc 1 996 0
 770 0014 284F     		ldr	r7, .L67+8
 771 0016 3C68     		ldr	r4, [r7]
 772 0018 A368     		ldr	r3, [r4, #8]
 773 001a 01EB4105 		add	r5, r1, r1, lsl #1
 774 001e AA00     		lsls	r2, r5, #2
 775 0020 9D18     		adds	r5, r3, r2
 997:Generated_Source\PSoC6\pdl\middleware\ble/cy_ble_gap.c ****                 cy_ble_configPtr->gapcScanParams[scanParamIndex].fastScanTimeOut;
 776              		.loc 1 997 0
 777 0022 E668     		ldr	r6, [r4, #12]
 778 0024 1623     		movs	r3, #22
 779 0026 03FB01F3 		mul	r3, r3, r1
 780 002a 1E44     		add	r6, r6, r3
ARM GAS  C:\Users\guill\AppData\Local\Temp\ccKdZhTR.s 			page 48


 781 002c B688     		ldrh	r6, [r6, #4]
 996:Generated_Source\PSoC6\pdl\middleware\ble/cy_ble_gap.c ****                 cy_ble_configPtr->gapcScanParams[scanParamIndex].fastScanTimeOut;
 782              		.loc 1 996 0
 783 002e 2E81     		strh	r6, [r5, #8]	@ movhi
 998:Generated_Source\PSoC6\pdl\middleware\ble/cy_ble_gap.c ****             cy_ble_configPtr->discoveryInfo[scanParamIndex].scanIntv =
 784              		.loc 1 998 0
 785 0030 A568     		ldr	r5, [r4, #8]
 786 0032 1544     		add	r5, r5, r2
 999:Generated_Source\PSoC6\pdl\middleware\ble/cy_ble_gap.c ****                 cy_ble_configPtr->gapcScanParams[scanParamIndex].fastScanInterval;
 787              		.loc 1 999 0
 788 0034 E468     		ldr	r4, [r4, #12]
 789 0036 E45A     		ldrh	r4, [r4, r3]
 998:Generated_Source\PSoC6\pdl\middleware\ble/cy_ble_gap.c ****             cy_ble_configPtr->discoveryInfo[scanParamIndex].scanIntv =
 790              		.loc 1 998 0
 791 0038 6C80     		strh	r4, [r5, #2]	@ movhi
1000:Generated_Source\PSoC6\pdl\middleware\ble/cy_ble_gap.c ****             cy_ble_configPtr->discoveryInfo[scanParamIndex].scanWindow =
 792              		.loc 1 1000 0
 793 003a 3C68     		ldr	r4, [r7]
 794 003c A568     		ldr	r5, [r4, #8]
 795 003e 2A44     		add	r2, r2, r5
1001:Generated_Source\PSoC6\pdl\middleware\ble/cy_ble_gap.c ****                 cy_ble_configPtr->gapcScanParams[scanParamIndex].fastScanWindow;
 796              		.loc 1 1001 0
 797 0040 E468     		ldr	r4, [r4, #12]
 798 0042 2344     		add	r3, r3, r4
 799 0044 5B88     		ldrh	r3, [r3, #2]
1000:Generated_Source\PSoC6\pdl\middleware\ble/cy_ble_gap.c ****             cy_ble_configPtr->discoveryInfo[scanParamIndex].scanWindow =
 800              		.loc 1 1000 0
 801 0046 9380     		strh	r3, [r2, #4]	@ movhi
 802 0048 1CE0     		b	.L63
 803              	.L62:
1002:Generated_Source\PSoC6\pdl\middleware\ble/cy_ble_gap.c ****         }
1003:Generated_Source\PSoC6\pdl\middleware\ble/cy_ble_gap.c ****         else if(scanningIntervalType == CY_BLE_SCANNING_SLOW)
 804              		.loc 1 1003 0
 805 004a 0128     		cmp	r0, #1
 806 004c 1AD1     		bne	.L63
1004:Generated_Source\PSoC6\pdl\middleware\ble/cy_ble_gap.c ****         {
1005:Generated_Source\PSoC6\pdl\middleware\ble/cy_ble_gap.c ****             cy_ble_configPtr->discoveryInfo[scanParamIndex].scanTo =
 807              		.loc 1 1005 0
 808 004e 1A4F     		ldr	r7, .L67+8
 809 0050 3C68     		ldr	r4, [r7]
 810 0052 A368     		ldr	r3, [r4, #8]
 811 0054 01EB4105 		add	r5, r1, r1, lsl #1
 812 0058 AA00     		lsls	r2, r5, #2
 813 005a 9D18     		adds	r5, r3, r2
1006:Generated_Source\PSoC6\pdl\middleware\ble/cy_ble_gap.c ****                 cy_ble_configPtr->gapcScanParams[scanParamIndex].slowScanTimeOut;
 814              		.loc 1 1006 0
 815 005c E668     		ldr	r6, [r4, #12]
 816 005e 1623     		movs	r3, #22
 817 0060 03FB01F3 		mul	r3, r3, r1
 818 0064 1E44     		add	r6, r6, r3
 819 0066 B689     		ldrh	r6, [r6, #12]
1005:Generated_Source\PSoC6\pdl\middleware\ble/cy_ble_gap.c ****                 cy_ble_configPtr->gapcScanParams[scanParamIndex].slowScanTimeOut;
 820              		.loc 1 1005 0
 821 0068 2E81     		strh	r6, [r5, #8]	@ movhi
1007:Generated_Source\PSoC6\pdl\middleware\ble/cy_ble_gap.c ****             cy_ble_configPtr->discoveryInfo[scanParamIndex].scanIntv =
 822              		.loc 1 1007 0
 823 006a A568     		ldr	r5, [r4, #8]
ARM GAS  C:\Users\guill\AppData\Local\Temp\ccKdZhTR.s 			page 49


 824 006c 1544     		add	r5, r5, r2
1008:Generated_Source\PSoC6\pdl\middleware\ble/cy_ble_gap.c ****                 cy_ble_configPtr->gapcScanParams[scanParamIndex].slowScanInterval;
 825              		.loc 1 1008 0
 826 006e E468     		ldr	r4, [r4, #12]
 827 0070 1C44     		add	r4, r4, r3
 828 0072 2489     		ldrh	r4, [r4, #8]
1007:Generated_Source\PSoC6\pdl\middleware\ble/cy_ble_gap.c ****             cy_ble_configPtr->discoveryInfo[scanParamIndex].scanIntv =
 829              		.loc 1 1007 0
 830 0074 6C80     		strh	r4, [r5, #2]	@ movhi
1009:Generated_Source\PSoC6\pdl\middleware\ble/cy_ble_gap.c ****             cy_ble_configPtr->discoveryInfo[scanParamIndex].scanWindow =
 831              		.loc 1 1009 0
 832 0076 3C68     		ldr	r4, [r7]
 833 0078 A568     		ldr	r5, [r4, #8]
 834 007a 2A44     		add	r2, r2, r5
1010:Generated_Source\PSoC6\pdl\middleware\ble/cy_ble_gap.c ****                 cy_ble_configPtr->gapcScanParams[scanParamIndex].slowScanWindow;
 835              		.loc 1 1010 0
 836 007c E468     		ldr	r4, [r4, #12]
 837 007e 2344     		add	r3, r3, r4
 838 0080 5B89     		ldrh	r3, [r3, #10]
1009:Generated_Source\PSoC6\pdl\middleware\ble/cy_ble_gap.c ****             cy_ble_configPtr->discoveryInfo[scanParamIndex].scanWindow =
 839              		.loc 1 1009 0
 840 0082 9380     		strh	r3, [r2, #4]	@ movhi
 841              	.L63:
1011:Generated_Source\PSoC6\pdl\middleware\ble/cy_ble_gap.c ****         }
1012:Generated_Source\PSoC6\pdl\middleware\ble/cy_ble_gap.c ****         else /* Do not update scanning intervals */
1013:Generated_Source\PSoC6\pdl\middleware\ble/cy_ble_gap.c ****         {
1014:Generated_Source\PSoC6\pdl\middleware\ble/cy_ble_gap.c ****         }
1015:Generated_Source\PSoC6\pdl\middleware\ble/cy_ble_gap.c **** 
1016:Generated_Source\PSoC6\pdl\middleware\ble/cy_ble_gap.c ****         cy_ble_scanningIntervalType = scanningIntervalType;
 842              		.loc 1 1016 0
 843 0084 0D4B     		ldr	r3, .L67+12
 844 0086 1870     		strb	r0, [r3]
1017:Generated_Source\PSoC6\pdl\middleware\ble/cy_ble_gap.c ****         apiResult = Cy_BLE_GAPC_StartDiscovery(&cy_ble_configPtr->discoveryInfo[scanParamIndex]);
 845              		.loc 1 1017 0
 846 0088 0B4B     		ldr	r3, .L67+8
 847 008a 1B68     		ldr	r3, [r3]
 848 008c 9868     		ldr	r0, [r3, #8]
 849              	.LVL60:
 850 008e 01EB4101 		add	r1, r1, r1, lsl #1
 851              	.LVL61:
 852 0092 8B00     		lsls	r3, r1, #2
 853 0094 1844     		add	r0, r0, r3
 854 0096 FFF7FEFF 		bl	Cy_BLE_GAPC_StartDiscovery
 855              	.LVL62:
1018:Generated_Source\PSoC6\pdl\middleware\ble/cy_ble_gap.c **** 
1019:Generated_Source\PSoC6\pdl\middleware\ble/cy_ble_gap.c ****         if(apiResult == CY_BLE_SUCCESS)
 856              		.loc 1 1019 0
 857 009a 0346     		mov	r3, r0
 858 009c 30B9     		cbnz	r0, .L61
 859              	.LVL63:
 860              	.LBB34:
 861              	.LBB35:
 820:Generated_Source\PSoC6\pdl\middleware\ble/cy_ble_gap.h **** }
 862              		.loc 2 820 0
 863 009e 0121     		movs	r1, #1
 864 00a0 034A     		ldr	r2, .L67
 865 00a2 1170     		strb	r1, [r2]
ARM GAS  C:\Users\guill\AppData\Local\Temp\ccKdZhTR.s 			page 50


 866 00a4 02E0     		b	.L61
 867              	.LVL64:
 868              	.L64:
 869              	.LBE35:
 870              	.LBE34:
 989:Generated_Source\PSoC6\pdl\middleware\ble/cy_ble_gap.c ****     }
 871              		.loc 1 989 0
 872 00a6 064B     		ldr	r3, .L67+16
 873 00a8 00E0     		b	.L61
 874              	.L65:
1020:Generated_Source\PSoC6\pdl\middleware\ble/cy_ble_gap.c ****         {
1021:Generated_Source\PSoC6\pdl\middleware\ble/cy_ble_gap.c ****             Cy_BLE_SetScanState(CY_BLE_SCAN_STATE_SCAN_INITIATED);
1022:Generated_Source\PSoC6\pdl\middleware\ble/cy_ble_gap.c ****         }
1023:Generated_Source\PSoC6\pdl\middleware\ble/cy_ble_gap.c ****     }
1024:Generated_Source\PSoC6\pdl\middleware\ble/cy_ble_gap.c ****     else
1025:Generated_Source\PSoC6\pdl\middleware\ble/cy_ble_gap.c ****     {
1026:Generated_Source\PSoC6\pdl\middleware\ble/cy_ble_gap.c ****         apiResult = CY_BLE_ERROR_INVALID_STATE;
 875              		.loc 1 1026 0
 876 00aa 064B     		ldr	r3, .L67+20
 877              	.LVL65:
 878              	.L61:
1027:Generated_Source\PSoC6\pdl\middleware\ble/cy_ble_gap.c ****     }
1028:Generated_Source\PSoC6\pdl\middleware\ble/cy_ble_gap.c **** 
1029:Generated_Source\PSoC6\pdl\middleware\ble/cy_ble_gap.c ****     return(apiResult);
1030:Generated_Source\PSoC6\pdl\middleware\ble/cy_ble_gap.c **** }
 879              		.loc 1 1030 0
 880 00ac 1846     		mov	r0, r3
 881 00ae F8BD     		pop	{r3, r4, r5, r6, r7, pc}
 882              	.LVL66:
 883              	.L68:
 884              		.align	2
 885              	.L67:
 886 00b0 00000000 		.word	cy_ble_scanState
 887 00b4 00000000 		.word	cy_ble_scanIndex
 888 00b8 00000000 		.word	cy_ble_configPtr
 889 00bc 00000000 		.word	cy_ble_scanningIntervalType
 890 00c0 01001600 		.word	1441793
 891 00c4 FF001600 		.word	1442047
 892              		.cfi_endproc
 893              	.LFE260:
 894              		.size	Cy_BLE_GAPC_StartScan, .-Cy_BLE_GAPC_StartScan
 895              		.section	.text.Cy_BLE_GAPC_StopScan,"ax",%progbits
 896              		.align	2
 897              		.global	Cy_BLE_GAPC_StopScan
 898              		.thumb
 899              		.thumb_func
 900              		.type	Cy_BLE_GAPC_StopScan, %function
 901              	Cy_BLE_GAPC_StopScan:
 902              	.LFB261:
1031:Generated_Source\PSoC6\pdl\middleware\ble/cy_ble_gap.c **** 
1032:Generated_Source\PSoC6\pdl\middleware\ble/cy_ble_gap.c **** 
1033:Generated_Source\PSoC6\pdl\middleware\ble/cy_ble_gap.c **** /******************************************************************************
1034:Generated_Source\PSoC6\pdl\middleware\ble/cy_ble_gap.c **** * Function Name: Cy_BLE_GAPC_StopScan
1035:Generated_Source\PSoC6\pdl\middleware\ble/cy_ble_gap.c **** ***************************************************************************//**
1036:Generated_Source\PSoC6\pdl\middleware\ble/cy_ble_gap.c **** *
1037:Generated_Source\PSoC6\pdl\middleware\ble/cy_ble_gap.c **** *   This function used to stop the discovery of devices. On stopping discovery
1038:Generated_Source\PSoC6\pdl\middleware\ble/cy_ble_gap.c **** *   operation, #CY_BLE_EVT_GAPC_SCAN_START_STOP event is generated. Application
ARM GAS  C:\Users\guill\AppData\Local\Temp\ccKdZhTR.s 			page 51


1039:Generated_Source\PSoC6\pdl\middleware\ble/cy_ble_gap.c **** *   layer needs to keep track of the function call made before receiving this
1040:Generated_Source\PSoC6\pdl\middleware\ble/cy_ble_gap.c **** *   event to associate this event with either the start or stop discovery
1041:Generated_Source\PSoC6\pdl\middleware\ble/cy_ble_gap.c **** *   function.
1042:Generated_Source\PSoC6\pdl\middleware\ble/cy_ble_gap.c **** *
1043:Generated_Source\PSoC6\pdl\middleware\ble/cy_ble_gap.c **** *   Possible events generated are:
1044:Generated_Source\PSoC6\pdl\middleware\ble/cy_ble_gap.c **** *    * #CY_BLE_EVT_GAPC_SCAN_START_STOP
1045:Generated_Source\PSoC6\pdl\middleware\ble/cy_ble_gap.c **** *
1046:Generated_Source\PSoC6\pdl\middleware\ble/cy_ble_gap.c **** *  \return
1047:Generated_Source\PSoC6\pdl\middleware\ble/cy_ble_gap.c **** *  \ref cy_en_ble_api_result_t : Return value indicates if the function succeeded or
1048:Generated_Source\PSoC6\pdl\middleware\ble/cy_ble_gap.c **** *  failed. The following are possible error codes.
1049:Generated_Source\PSoC6\pdl\middleware\ble/cy_ble_gap.c **** *
1050:Generated_Source\PSoC6\pdl\middleware\ble/cy_ble_gap.c **** *   Error Codes                           | Description
1051:Generated_Source\PSoC6\pdl\middleware\ble/cy_ble_gap.c **** *   ------------------------------------- | -----------------------------------
1052:Generated_Source\PSoC6\pdl\middleware\ble/cy_ble_gap.c **** *   CY_BLE_SUCCESS                        | On successful operation.
1053:Generated_Source\PSoC6\pdl\middleware\ble/cy_ble_gap.c **** *   CY_BLE_ERROR_MEMORY_ALLOCATION_FAILED | Memory allocation failed.
1054:Generated_Source\PSoC6\pdl\middleware\ble/cy_ble_gap.c **** *   CY_BLE_ERROR_INVALID_STATE            | On calling this function not in Scanning state.
1055:Generated_Source\PSoC6\pdl\middleware\ble/cy_ble_gap.c **** *
1056:Generated_Source\PSoC6\pdl\middleware\ble/cy_ble_gap.c **** *******************************************************************************/
1057:Generated_Source\PSoC6\pdl\middleware\ble/cy_ble_gap.c **** cy_en_ble_api_result_t Cy_BLE_GAPC_StopScan(void)
1058:Generated_Source\PSoC6\pdl\middleware\ble/cy_ble_gap.c **** {
 903              		.loc 1 1058 0
 904              		.cfi_startproc
 905              		@ args = 0, pretend = 0, frame = 0
 906              		@ frame_needed = 0, uses_anonymous_args = 0
 907 0000 08B5     		push	{r3, lr}
 908              		.cfi_def_cfa_offset 8
 909              		.cfi_offset 3, -8
 910              		.cfi_offset 14, -4
 911              	.LBB36:
 912              	.LBB37:
 802:Generated_Source\PSoC6\pdl\middleware\ble/cy_ble_gap.h **** }
 913              		.loc 2 802 0
 914 0002 074B     		ldr	r3, .L73
 915 0004 1B78     		ldrb	r3, [r3]	@ zero_extendqisi2
 916              	.LBE37:
 917              	.LBE36:
1059:Generated_Source\PSoC6\pdl\middleware\ble/cy_ble_gap.c ****     cy_en_ble_api_result_t apiResult;
1060:Generated_Source\PSoC6\pdl\middleware\ble/cy_ble_gap.c **** 
1061:Generated_Source\PSoC6\pdl\middleware\ble/cy_ble_gap.c ****     if(Cy_BLE_GetScanState() == CY_BLE_SCAN_STATE_SCANNING)
 918              		.loc 1 1061 0
 919 0006 022B     		cmp	r3, #2
 920 0008 07D1     		bne	.L71
1062:Generated_Source\PSoC6\pdl\middleware\ble/cy_ble_gap.c ****     {
1063:Generated_Source\PSoC6\pdl\middleware\ble/cy_ble_gap.c ****         apiResult = Cy_BLE_GAPC_StopDiscovery();
 921              		.loc 1 1063 0
 922 000a FFF7FEFF 		bl	Cy_BLE_GAPC_StopDiscovery
 923              	.LVL67:
1064:Generated_Source\PSoC6\pdl\middleware\ble/cy_ble_gap.c ****         if(apiResult == CY_BLE_SUCCESS)
 924              		.loc 1 1064 0
 925 000e 0346     		mov	r3, r0
 926 0010 20B9     		cbnz	r0, .L70
 927              	.LVL68:
 928              	.LBB38:
 929              	.LBB39:
 820:Generated_Source\PSoC6\pdl\middleware\ble/cy_ble_gap.h **** }
 930              		.loc 2 820 0
 931 0012 0321     		movs	r1, #3
ARM GAS  C:\Users\guill\AppData\Local\Temp\ccKdZhTR.s 			page 52


 932 0014 024A     		ldr	r2, .L73
 933 0016 1170     		strb	r1, [r2]
 934 0018 00E0     		b	.L70
 935              	.LVL69:
 936              	.L71:
 937              	.LBE39:
 938              	.LBE38:
1065:Generated_Source\PSoC6\pdl\middleware\ble/cy_ble_gap.c ****         {
1066:Generated_Source\PSoC6\pdl\middleware\ble/cy_ble_gap.c ****             Cy_BLE_SetScanState(CY_BLE_SCAN_STATE_STOP_INITIATED);
1067:Generated_Source\PSoC6\pdl\middleware\ble/cy_ble_gap.c ****         }
1068:Generated_Source\PSoC6\pdl\middleware\ble/cy_ble_gap.c ****     }
1069:Generated_Source\PSoC6\pdl\middleware\ble/cy_ble_gap.c ****     else
1070:Generated_Source\PSoC6\pdl\middleware\ble/cy_ble_gap.c ****     {
1071:Generated_Source\PSoC6\pdl\middleware\ble/cy_ble_gap.c ****         apiResult = CY_BLE_ERROR_INVALID_STATE;
 939              		.loc 1 1071 0
 940 001a 024B     		ldr	r3, .L73+4
 941              	.L70:
 942              	.LVL70:
1072:Generated_Source\PSoC6\pdl\middleware\ble/cy_ble_gap.c ****     }
1073:Generated_Source\PSoC6\pdl\middleware\ble/cy_ble_gap.c **** 
1074:Generated_Source\PSoC6\pdl\middleware\ble/cy_ble_gap.c ****     return(apiResult);
1075:Generated_Source\PSoC6\pdl\middleware\ble/cy_ble_gap.c **** }
 943              		.loc 1 1075 0
 944 001c 1846     		mov	r0, r3
 945 001e 08BD     		pop	{r3, pc}
 946              	.LVL71:
 947              	.L74:
 948              		.align	2
 949              	.L73:
 950 0020 00000000 		.word	cy_ble_scanState
 951 0024 FF001600 		.word	1442047
 952              		.cfi_endproc
 953              	.LFE261:
 954              		.size	Cy_BLE_GAPC_StopScan, .-Cy_BLE_GAPC_StopScan
 955              		.section	.text.Cy_BLE_GAPC_CancelDeviceConnection,"ax",%progbits
 956              		.align	2
 957              		.global	Cy_BLE_GAPC_CancelDeviceConnection
 958              		.thumb
 959              		.thumb_func
 960              		.type	Cy_BLE_GAPC_CancelDeviceConnection, %function
 961              	Cy_BLE_GAPC_CancelDeviceConnection:
 962              	.LFB263:
1076:Generated_Source\PSoC6\pdl\middleware\ble/cy_ble_gap.c **** 
1077:Generated_Source\PSoC6\pdl\middleware\ble/cy_ble_gap.c **** 
1078:Generated_Source\PSoC6\pdl\middleware\ble/cy_ble_gap.c **** #endif /* CY_BLE_GAP_ROLE_CENTRAL || CY_BLE_GAP_ROLE_OBSERVER */
1079:Generated_Source\PSoC6\pdl\middleware\ble/cy_ble_gap.c **** 
1080:Generated_Source\PSoC6\pdl\middleware\ble/cy_ble_gap.c **** 
1081:Generated_Source\PSoC6\pdl\middleware\ble/cy_ble_gap.c **** #if (CY_BLE_GAP_ROLE_CENTRAL)
1082:Generated_Source\PSoC6\pdl\middleware\ble/cy_ble_gap.c **** 
1083:Generated_Source\PSoC6\pdl\middleware\ble/cy_ble_gap.c **** /******************************************************************************
1084:Generated_Source\PSoC6\pdl\middleware\ble/cy_ble_gap.c **** * Function Name: Cy_BLE_GAPC_ConnectDevice
1085:Generated_Source\PSoC6\pdl\middleware\ble/cy_ble_gap.c **** ***************************************************************************//**
