ARM GAS  C:\Users\guill\AppData\Local\Temp\cclz5xua.s 			page 1


   1              		.syntax unified
   2              		.cpu cortex-m0plus
   3              		.fpu softvfp
   4              		.eabi_attribute 20, 1
   5              		.eabi_attribute 21, 1
   6              		.eabi_attribute 23, 3
   7              		.eabi_attribute 24, 1
   8              		.eabi_attribute 25, 1
   9              		.eabi_attribute 26, 1
  10              		.eabi_attribute 30, 1
  11              		.eabi_attribute 34, 0
  12              		.eabi_attribute 18, 4
  13              		.thumb
  14              		.syntax unified
  15              		.file	"DRF0554.c"
  16              		.text
  17              	.Ltext0:
  18              		.cfi_sections	.debug_frame
  19              		.section	.text.send,"ax",%progbits
  20              		.align	2
  21              		.global	send
  22              		.code	16
  23              		.thumb_func
  24              		.type	send, %function
  25              	send:
  26              	.LFB589:
  27              		.file 1 "DRF0554.c"
   1:DRF0554.c     **** #include<stdio.h>
   2:DRF0554.c     **** #include<string.h>
   3:DRF0554.c     **** #include "DRF0554.h"
   4:DRF0554.c     **** 
   5:DRF0554.c     **** 
   6:DRF0554.c     **** 
   7:DRF0554.c     **** #define LCD_ADDRESS     (0x7c>>1)
   8:DRF0554.c     **** #define RGB_ADDRESS     (0xc0>>1)
   9:DRF0554.c     **** 
  10:DRF0554.c     **** /*!
  11:DRF0554.c     ****  *  @brief color define
  12:DRF0554.c     ****  */ 
  13:DRF0554.c     **** #define WHITE           0
  14:DRF0554.c     **** #define RED             1
  15:DRF0554.c     **** #define GREEN           2
  16:DRF0554.c     **** #define BLUE            3
  17:DRF0554.c     **** 
  18:DRF0554.c     **** #define REG_RED         0x04        // pwm2
  19:DRF0554.c     **** #define REG_GREEN       0x03        // pwm1
  20:DRF0554.c     **** #define REG_BLUE        0x02        // pwm0
  21:DRF0554.c     **** 
  22:DRF0554.c     **** #define REG_MODE1       0x00
  23:DRF0554.c     **** #define REG_MODE2       0x01
  24:DRF0554.c     **** #define REG_OUTPUT      0x08
  25:DRF0554.c     **** 
  26:DRF0554.c     **** /*!
  27:DRF0554.c     ****  *  @brief commands
  28:DRF0554.c     ****  */
  29:DRF0554.c     **** #define LCD_CLEARDISPLAY 0x01
  30:DRF0554.c     **** #define LCD_RETURNHOME 0x02
ARM GAS  C:\Users\guill\AppData\Local\Temp\cclz5xua.s 			page 2


  31:DRF0554.c     **** #define LCD_ENTRYMODESET 0x04
  32:DRF0554.c     **** #define LCD_DISPLAYCONTROL 0x08
  33:DRF0554.c     **** #define LCD_CURSORSHIFT 0x10
  34:DRF0554.c     **** #define LCD_FUNCTIONSET 0x20
  35:DRF0554.c     **** #define LCD_SETCGRAMADDR 0x40
  36:DRF0554.c     **** #define LCD_SETDDRAMADDR 0x80
  37:DRF0554.c     **** 
  38:DRF0554.c     **** /*!
  39:DRF0554.c     ****  *  @brief flags for display entry mode
  40:DRF0554.c     ****  */
  41:DRF0554.c     **** #define LCD_ENTRYRIGHT 0x00
  42:DRF0554.c     **** #define LCD_ENTRYLEFT 0x02
  43:DRF0554.c     **** #define LCD_ENTRYSHIFTINCREMENT 0x01
  44:DRF0554.c     **** #define LCD_ENTRYSHIFTDECREMENT 0x00
  45:DRF0554.c     **** 
  46:DRF0554.c     **** /*!
  47:DRF0554.c     ****  *  @brief flags for display on/off control
  48:DRF0554.c     ****  */
  49:DRF0554.c     **** #define LCD_DISPLAYON 0x04
  50:DRF0554.c     **** #define LCD_DISPLAYOFF 0x00
  51:DRF0554.c     **** #define LCD_CURSORON 0x02
  52:DRF0554.c     **** #define LCD_CURSOROFF 0x00
  53:DRF0554.c     **** #define LCD_BLINKON 0x01
  54:DRF0554.c     **** #define LCD_BLINKOFF 0x00
  55:DRF0554.c     **** 
  56:DRF0554.c     **** /*!
  57:DRF0554.c     ****  *  @brief flags for display/cursor shift
  58:DRF0554.c     ****  */
  59:DRF0554.c     **** #define LCD_DISPLAYMOVE 0x08
  60:DRF0554.c     **** #define LCD_CURSORMOVE 0x00
  61:DRF0554.c     **** #define LCD_MOVERIGHT 0x04
  62:DRF0554.c     **** #define LCD_MOVELEFT 0x00
  63:DRF0554.c     **** 
  64:DRF0554.c     **** /*!
  65:DRF0554.c     ****  *  @brief flags for function set
  66:DRF0554.c     ****  */
  67:DRF0554.c     **** #define LCD_8BITMODE 0x10
  68:DRF0554.c     **** #define LCD_4BITMODE 0x00
  69:DRF0554.c     **** #define LCD_2LINE 0x08
  70:DRF0554.c     **** #define LCD_1LINE 0x00
  71:DRF0554.c     **** #define LCD_5x10DOTS 0x04
  72:DRF0554.c     **** #define LCD_5x8DOTS 0x00
  73:DRF0554.c     **** 
  74:DRF0554.c     **** uint8_t _showFunction;
  75:DRF0554.c     **** uint8_t _showControl;
  76:DRF0554.c     **** uint8_t _showMode;
  77:DRF0554.c     **** uint8_t _initialized;
  78:DRF0554.c     **** uint8_t _numLines,_currLine;
  79:DRF0554.c     **** uint8_t _lcdAddr = LCD_ADDRESS;
  80:DRF0554.c     **** uint8_t _RGBAddr= RGB_ADDRESS;
  81:DRF0554.c     **** uint8_t _cols = 16;
  82:DRF0554.c     **** uint8_t _rows = 2;
  83:DRF0554.c     **** 
  84:DRF0554.c     **** 
  85:DRF0554.c     **** 
  86:DRF0554.c     **** void send(uint8_t *data, uint8_t len){
  28              		.loc 1 86 0
ARM GAS  C:\Users\guill\AppData\Local\Temp\cclz5xua.s 			page 3


  29              		.cfi_startproc
  30              		@ args = 0, pretend = 0, frame = 0
  31              		@ frame_needed = 0, uses_anonymous_args = 0
  32              	.LVL0:
  33 0000 70B5     		push	{r4, r5, r6, lr}
  34              		.cfi_def_cfa_offset 16
  35              		.cfi_offset 4, -16
  36              		.cfi_offset 5, -12
  37              		.cfi_offset 6, -8
  38              		.cfi_offset 14, -4
  39 0002 82B0     		sub	sp, sp, #8
  40              		.cfi_def_cfa_offset 24
  41 0004 0600     		movs	r6, r0
  42 0006 0D00     		movs	r5, r1
  87:DRF0554.c     ****     Cy_SCB_I2C_MasterSendStart(I2C_HW,_lcdAddr,CY_SCB_I2C_WRITE_XFER,0,&I2C_context);
  43              		.loc 1 87 0
  44 0008 0E4B     		ldr	r3, .L4
  45 000a 1978     		ldrb	r1, [r3]
  46              	.LVL1:
  47 000c 0E4B     		ldr	r3, .L4+4
  48 000e 0093     		str	r3, [sp]
  49 0010 0023     		movs	r3, #0
  50 0012 0022     		movs	r2, #0
  51 0014 0D48     		ldr	r0, .L4+8
  52              	.LVL2:
  53 0016 FFF7FEFF 		bl	Cy_SCB_I2C_MasterSendStart
  54              	.LVL3:
  55              	.LBB4:
  88:DRF0554.c     ****     for (int i = 0; i < len; i++) {
  56              		.loc 1 88 0
  57 001a 0024     		movs	r4, #0
  58 001c 09E0     		b	.L2
  59              	.LVL4:
  60              	.L3:
  89:DRF0554.c     ****         Cy_SCB_I2C_MasterWriteByte(I2C_HW,data[i],0,&I2C_context);
  61              		.loc 1 89 0 discriminator 3
  62 001e 315D     		ldrb	r1, [r6, r4]
  63 0020 094B     		ldr	r3, .L4+4
  64 0022 0022     		movs	r2, #0
  65 0024 0948     		ldr	r0, .L4+8
  66 0026 FFF7FEFF 		bl	Cy_SCB_I2C_MasterWriteByte
  67              	.LVL5:
  90:DRF0554.c     ****         CyDelay(5);
  68              		.loc 1 90 0 discriminator 3
  69 002a 0520     		movs	r0, #5
  70 002c FFF7FEFF 		bl	Cy_SysLib_Delay
  71              	.LVL6:
  88:DRF0554.c     ****     for (int i = 0; i < len; i++) {
  72              		.loc 1 88 0 discriminator 3
  73 0030 0134     		adds	r4, r4, #1
  74              	.LVL7:
  75              	.L2:
  88:DRF0554.c     ****     for (int i = 0; i < len; i++) {
  76              		.loc 1 88 0 is_stmt 0 discriminator 1
  77 0032 AC42     		cmp	r4, r5
  78 0034 F3DB     		blt	.L3
  79              	.LBE4:
ARM GAS  C:\Users\guill\AppData\Local\Temp\cclz5xua.s 			page 4


  91:DRF0554.c     ****     }
  92:DRF0554.c     ****     Cy_SCB_I2C_MasterSendStop(I2C_HW,0,&I2C_context);  
  80              		.loc 1 92 0 is_stmt 1
  81 0036 044A     		ldr	r2, .L4+4
  82 0038 0021     		movs	r1, #0
  83 003a 0448     		ldr	r0, .L4+8
  84 003c FFF7FEFF 		bl	Cy_SCB_I2C_MasterSendStop
  85              	.LVL8:
  93:DRF0554.c     **** }
  86              		.loc 1 93 0
  87 0040 02B0     		add	sp, sp, #8
  88              		@ sp needed
  89              	.LVL9:
  90              	.LVL10:
  91 0042 70BD     		pop	{r4, r5, r6, pc}
  92              	.L5:
  93              		.align	2
  94              	.L4:
  95 0044 00000000 		.word	.LANCHOR0
  96 0048 00000000 		.word	I2C_context
  97 004c 00006740 		.word	1080492032
  98              		.cfi_endproc
  99              	.LFE589:
 100              		.size	send, .-send
 101              		.section	.text.command,"ax",%progbits
 102              		.align	2
 103              		.global	command
 104              		.code	16
 105              		.thumb_func
 106              		.type	command, %function
 107              	command:
 108              	.LFB590:
  94:DRF0554.c     **** 
  95:DRF0554.c     **** void command(uint8_t value){
 109              		.loc 1 95 0
 110              		.cfi_startproc
 111              		@ args = 0, pretend = 0, frame = 8
 112              		@ frame_needed = 0, uses_anonymous_args = 0
 113              	.LVL11:
 114 0000 30B5     		push	{r4, r5, lr}
 115              		.cfi_def_cfa_offset 12
 116              		.cfi_offset 4, -12
 117              		.cfi_offset 5, -8
 118              		.cfi_offset 14, -4
 119 0002 83B0     		sub	sp, sp, #12
 120              		.cfi_def_cfa_offset 24
 121 0004 0500     		movs	r5, r0
  96:DRF0554.c     ****     uint8_t data[3] = {0x80, value};
 122              		.loc 1 96 0
 123 0006 01AC     		add	r4, sp, #4
 124 0008 0322     		movs	r2, #3
 125 000a 0021     		movs	r1, #0
 126 000c 2000     		movs	r0, r4
 127              	.LVL12:
 128 000e FFF7FEFF 		bl	memset
 129              	.LVL13:
 130 0012 8023     		movs	r3, #128
ARM GAS  C:\Users\guill\AppData\Local\Temp\cclz5xua.s 			page 5


 131 0014 2370     		strb	r3, [r4]
 132 0016 6570     		strb	r5, [r4, #1]
  97:DRF0554.c     ****     send(data, 2);
 133              		.loc 1 97 0
 134 0018 0221     		movs	r1, #2
 135 001a 2000     		movs	r0, r4
 136 001c FFF7FEFF 		bl	send
 137              	.LVL14:
  98:DRF0554.c     **** }
 138              		.loc 1 98 0
 139 0020 03B0     		add	sp, sp, #12
 140              		@ sp needed
 141 0022 30BD     		pop	{r4, r5, pc}
 142              		.cfi_endproc
 143              	.LFE590:
 144              		.size	command, .-command
 145              		.section	.text.setReg,"ax",%progbits
 146              		.align	2
 147              		.global	setReg
 148              		.code	16
 149              		.thumb_func
 150              		.type	setReg, %function
 151              	setReg:
 152              	.LFB591:
  99:DRF0554.c     **** 
 100:DRF0554.c     **** void setReg(uint8_t addr, uint8_t data){
 153              		.loc 1 100 0
 154              		.cfi_startproc
 155              		@ args = 0, pretend = 0, frame = 0
 156              		@ frame_needed = 0, uses_anonymous_args = 0
 157              	.LVL15:
 158 0000 F0B5     		push	{r4, r5, r6, r7, lr}
 159              		.cfi_def_cfa_offset 20
 160              		.cfi_offset 4, -20
 161              		.cfi_offset 5, -16
 162              		.cfi_offset 6, -12
 163              		.cfi_offset 7, -8
 164              		.cfi_offset 14, -4
 165 0002 83B0     		sub	sp, sp, #12
 166              		.cfi_def_cfa_offset 32
 167 0004 0700     		movs	r7, r0
 168 0006 0E00     		movs	r6, r1
 101:DRF0554.c     ****     Cy_SCB_I2C_MasterSendStart(I2C_HW,_RGBAddr,CY_SCB_I2C_WRITE_XFER,0,&I2C_context);
 169              		.loc 1 101 0
 170 0008 0E4B     		ldr	r3, .L8
 171 000a 5978     		ldrb	r1, [r3, #1]
 172              	.LVL16:
 173 000c 0E4C     		ldr	r4, .L8+4
 174 000e 0F4D     		ldr	r5, .L8+8
 175 0010 0095     		str	r5, [sp]
 176 0012 0023     		movs	r3, #0
 177 0014 0022     		movs	r2, #0
 178 0016 2000     		movs	r0, r4
 179              	.LVL17:
 180 0018 FFF7FEFF 		bl	Cy_SCB_I2C_MasterSendStart
 181              	.LVL18:
 102:DRF0554.c     ****     Cy_SCB_I2C_MasterWriteByte(I2C_HW,addr,0,&I2C_context);
ARM GAS  C:\Users\guill\AppData\Local\Temp\cclz5xua.s 			page 6


 182              		.loc 1 102 0
 183 001c 2B00     		movs	r3, r5
 184 001e 0022     		movs	r2, #0
 185 0020 3900     		movs	r1, r7
 186 0022 2000     		movs	r0, r4
 187 0024 FFF7FEFF 		bl	Cy_SCB_I2C_MasterWriteByte
 188              	.LVL19:
 103:DRF0554.c     ****     Cy_SCB_I2C_MasterWriteByte(I2C_HW,data,0,&I2C_context);
 189              		.loc 1 103 0
 190 0028 2B00     		movs	r3, r5
 191 002a 0022     		movs	r2, #0
 192 002c 3100     		movs	r1, r6
 193 002e 2000     		movs	r0, r4
 194 0030 FFF7FEFF 		bl	Cy_SCB_I2C_MasterWriteByte
 195              	.LVL20:
 104:DRF0554.c     ****     Cy_SCB_I2C_MasterSendStop(I2C_HW,0,&I2C_context);  
 196              		.loc 1 104 0
 197 0034 2A00     		movs	r2, r5
 198 0036 0021     		movs	r1, #0
 199 0038 2000     		movs	r0, r4
 200 003a FFF7FEFF 		bl	Cy_SCB_I2C_MasterSendStop
 201              	.LVL21:
 105:DRF0554.c     **** }
 202              		.loc 1 105 0
 203 003e 03B0     		add	sp, sp, #12
 204              		@ sp needed
 205 0040 F0BD     		pop	{r4, r5, r6, r7, pc}
 206              	.L9:
 207 0042 C046     		.align	2
 208              	.L8:
 209 0044 00000000 		.word	.LANCHOR0
 210 0048 00006740 		.word	1080492032
 211 004c 00000000 		.word	I2C_context
 212              		.cfi_endproc
 213              	.LFE591:
 214              		.size	setReg, .-setReg
 215              		.section	.text.write,"ax",%progbits
 216              		.align	2
 217              		.global	write
 218              		.code	16
 219              		.thumb_func
 220              		.type	write, %function
 221              	write:
 222              	.LFB592:
 106:DRF0554.c     **** 
 107:DRF0554.c     **** void write(uint8_t value){
 223              		.loc 1 107 0
 224              		.cfi_startproc
 225              		@ args = 0, pretend = 0, frame = 8
 226              		@ frame_needed = 0, uses_anonymous_args = 0
 227              	.LVL22:
 228 0000 30B5     		push	{r4, r5, lr}
 229              		.cfi_def_cfa_offset 12
 230              		.cfi_offset 4, -12
 231              		.cfi_offset 5, -8
 232              		.cfi_offset 14, -4
 233 0002 83B0     		sub	sp, sp, #12
ARM GAS  C:\Users\guill\AppData\Local\Temp\cclz5xua.s 			page 7


 234              		.cfi_def_cfa_offset 24
 235 0004 0500     		movs	r5, r0
 108:DRF0554.c     **** 
 109:DRF0554.c     ****     uint8_t data[3] = {0x40, value};
 236              		.loc 1 109 0
 237 0006 01AC     		add	r4, sp, #4
 238 0008 0322     		movs	r2, #3
 239 000a 0021     		movs	r1, #0
 240 000c 2000     		movs	r0, r4
 241              	.LVL23:
 242 000e FFF7FEFF 		bl	memset
 243              	.LVL24:
 244 0012 4023     		movs	r3, #64
 245 0014 2370     		strb	r3, [r4]
 246 0016 6570     		strb	r5, [r4, #1]
 110:DRF0554.c     ****     send(data, 2);
 247              		.loc 1 110 0
 248 0018 0221     		movs	r1, #2
 249 001a 2000     		movs	r0, r4
 250 001c FFF7FEFF 		bl	send
 251              	.LVL25:
 111:DRF0554.c     **** }
 252              		.loc 1 111 0
 253 0020 03B0     		add	sp, sp, #12
 254              		@ sp needed
 255 0022 30BD     		pop	{r4, r5, pc}
 256              		.cfi_endproc
 257              	.LFE592:
 258              		.size	write, .-write
 259              		.section	.text.LCD_Display,"ax",%progbits
 260              		.align	2
 261              		.global	LCD_Display
 262              		.code	16
 263              		.thumb_func
 264              		.type	LCD_Display, %function
 265              	LCD_Display:
 266              	.LFB594:
 112:DRF0554.c     **** 
 113:DRF0554.c     **** 
 114:DRF0554.c     **** // Connects PSoC 6 I2C MASTER with associated CONTEXT to a connected DRF0554 
 115:DRF0554.c     **** // 16x2 backlight RGB LCD. Text direction will be fixed left-to-right. 
 116:DRF0554.c     **** // Initial settings: 
 117:DRF0554.c     **** //    Display    On 
 118:DRF0554.c     **** //    Color      White 
 119:DRF0554.c     **** //    Blink      Off 
 120:DRF0554.c     **** //    Cursor     Off 
 121:DRF0554.c     **** //    Autoscroll Off 
 122:DRF0554.c     **** // Returns FALSE on error, TRUE otherwise. 
 123:DRF0554.c     **** bool LCD_Start(CySCB_Type *master, cy_stc_scb_i2c_context_t *context){
 124:DRF0554.c     **** 
 125:DRF0554.c     ****    cy_en_scb_i2c_status_t init_status;
 126:DRF0554.c     ****     //cy_en_sysint_status_t sys_status;
 127:DRF0554.c     ****   
 128:DRF0554.c     ****     init_status = Cy_SCB_I2C_Init(master, &I2C_config, context);
 129:DRF0554.c     ****     //sys_status = Cy_SysInt_Init(&I2C_SCB_IRQ_cfg, &I2C_Interrupt);
 130:DRF0554.c     ****     if(init_status!=CY_SCB_I2C_SUCCESS){
 131:DRF0554.c     ****         return false;
ARM GAS  C:\Users\guill\AppData\Local\Temp\cclz5xua.s 			page 8


 132:DRF0554.c     ****     }
 133:DRF0554.c     ****    // if(sys_status!=CY_SCB_I2C_SUCCESS){
 134:DRF0554.c     ****      //   return false;
 135:DRF0554.c     ****     //}
 136:DRF0554.c     **** 
 137:DRF0554.c     ****    // NVIC_EnableIRQ((IRQn_Type) I2C_SCB_IRQ_cfg.intrSrc);
 138:DRF0554.c     ****     Cy_SCB_I2C_Enable(master);
 139:DRF0554.c     **** 
 140:DRF0554.c     ****     _showFunction |= LCD_2LINE;
 141:DRF0554.c     ****     
 142:DRF0554.c     **** 
 143:DRF0554.c     ****     CyDelay(50);
 144:DRF0554.c     **** 
 145:DRF0554.c     ****     ///< this is according to the hitachi HD44780 datasheet
 146:DRF0554.c     ****     ///< page 45 figure 23
 147:DRF0554.c     **** 
 148:DRF0554.c     ****     ///< Send function set command sequence
 149:DRF0554.c     ****     command(LCD_FUNCTIONSET | _showFunction);
 150:DRF0554.c     ****     CyDelay(5);  // wait more than 4.1ms
 151:DRF0554.c     **** 	
 152:DRF0554.c     **** 	///< second try
 153:DRF0554.c     ****     command(LCD_FUNCTIONSET | _showFunction);
 154:DRF0554.c     ****     CyDelay(5);
 155:DRF0554.c     **** 
 156:DRF0554.c     ****     ///< third go
 157:DRF0554.c     ****     command(LCD_FUNCTIONSET | _showFunction);
 158:DRF0554.c     **** 
 159:DRF0554.c     ****     ///< turn the display on with no cursor or blinking default
 160:DRF0554.c     ****     _showControl = LCD_DISPLAYON | LCD_CURSOROFF | LCD_BLINKOFF;
 161:DRF0554.c     ****     LCD_Display(On);
 162:DRF0554.c     **** 
 163:DRF0554.c     ****     ///< clear it off
 164:DRF0554.c     ****     LCD_Clear();
 165:DRF0554.c     **** 
 166:DRF0554.c     ****     ///< Initialize to default text direction (for romance languages)
 167:DRF0554.c     ****     _showMode = LCD_ENTRYLEFT | LCD_ENTRYSHIFTDECREMENT;
 168:DRF0554.c     ****     ///< set the entry mode
 169:DRF0554.c     ****     command(LCD_ENTRYMODESET | _showMode);
 170:DRF0554.c     ****     
 171:DRF0554.c     ****     
 172:DRF0554.c     ****     ///< backlight init
 173:DRF0554.c     ****     setReg(REG_MODE1, 0);
 174:DRF0554.c     ****     ///< set LEDs controllable by both PWM and GRPPWM registers
 175:DRF0554.c     ****     setReg(REG_OUTPUT, 0xFF);
 176:DRF0554.c     ****     ///< set MODE2 values
 177:DRF0554.c     ****     ///< 0010 0000 -> 0x20  (DMBLNK to 1, ie blinky mode)
 178:DRF0554.c     ****     setReg(REG_MODE2, 0x20);
 179:DRF0554.c     ****     
 180:DRF0554.c     ****     LCD_SetColor(White);
 181:DRF0554.c     ****    return true; 
 182:DRF0554.c     ****     
 183:DRF0554.c     **** }
 184:DRF0554.c     **** 
 185:DRF0554.c     **** // Turns the display on if MODE is On, turns display off otherwise. 
 186:DRF0554.c     **** // Returns FALSE on error, TRUE otherwise. 
 187:DRF0554.c     **** bool LCD_Display(enum mode state){
 267              		.loc 1 187 0
ARM GAS  C:\Users\guill\AppData\Local\Temp\cclz5xua.s 			page 9


 268              		.cfi_startproc
 269              		@ args = 0, pretend = 0, frame = 0
 270              		@ frame_needed = 0, uses_anonymous_args = 0
 271              	.LVL26:
 272 0000 10B5     		push	{r4, lr}
 273              		.cfi_def_cfa_offset 8
 274              		.cfi_offset 4, -8
 275              		.cfi_offset 14, -4
 188:DRF0554.c     ****     if(state == On){
 276              		.loc 1 188 0
 277 0002 0128     		cmp	r0, #1
 278 0004 0BD1     		bne	.L12
 189:DRF0554.c     ****     _showControl |= LCD_DISPLAYON;
 279              		.loc 1 189 0
 280 0006 0C4A     		ldr	r2, .L14
 281 0008 1078     		ldrb	r0, [r2]
 282              	.LVL27:
 283 000a 0423     		movs	r3, #4
 284 000c 0343     		orrs	r3, r0
 285 000e DBB2     		uxtb	r3, r3
 286 0010 1370     		strb	r3, [r2]
 190:DRF0554.c     ****     command(LCD_DISPLAYCONTROL | _showControl);
 287              		.loc 1 190 0
 288 0012 0820     		movs	r0, #8
 289 0014 0343     		orrs	r3, r0
 290 0016 D8B2     		uxtb	r0, r3
 291 0018 FFF7FEFF 		bl	command
 292              	.LVL28:
 293 001c 09E0     		b	.L13
 294              	.LVL29:
 295              	.L12:
 191:DRF0554.c     ****     }
 192:DRF0554.c     ****     else{
 193:DRF0554.c     ****         _showControl &= ~LCD_DISPLAYON;
 296              		.loc 1 193 0
 297 001e 064B     		ldr	r3, .L14
 298 0020 1878     		ldrb	r0, [r3]
 299              	.LVL30:
 300 0022 0422     		movs	r2, #4
 301 0024 9043     		bics	r0, r2
 302 0026 1870     		strb	r0, [r3]
 194:DRF0554.c     ****         command(LCD_DISPLAYCONTROL | _showControl);
 303              		.loc 1 194 0
 304 0028 0823     		movs	r3, #8
 305 002a 1843     		orrs	r0, r3
 306 002c C0B2     		uxtb	r0, r0
 307 002e FFF7FEFF 		bl	command
 308              	.LVL31:
 309              	.L13:
 195:DRF0554.c     ****     }
 196:DRF0554.c     ****     return true;
 197:DRF0554.c     **** }
 310              		.loc 1 197 0
 311 0032 0120     		movs	r0, #1
 312              		@ sp needed
 313 0034 10BD     		pop	{r4, pc}
 314              	.L15:
ARM GAS  C:\Users\guill\AppData\Local\Temp\cclz5xua.s 			page 10


 315 0036 C046     		.align	2
 316              	.L14:
 317 0038 00000000 		.word	_showControl
 318              		.cfi_endproc
 319              	.LFE594:
 320              		.size	LCD_Display, .-LCD_Display
 321              		.section	.text.LCD_Blink,"ax",%progbits
 322              		.align	2
 323              		.global	LCD_Blink
 324              		.code	16
 325              		.thumb_func
 326              		.type	LCD_Blink, %function
 327              	LCD_Blink:
 328              	.LFB595:
 198:DRF0554.c     **** 
 199:DRF0554.c     **** // Sets the display to blink if MODE is On, non-blinking otherwise. 
 200:DRF0554.c     **** // Returns FALSE on error, TRUE otherwise. 
 201:DRF0554.c     **** bool LCD_Blink(enum mode x){
 329              		.loc 1 201 0
 330              		.cfi_startproc
 331              		@ args = 0, pretend = 0, frame = 0
 332              		@ frame_needed = 0, uses_anonymous_args = 0
 333              	.LVL32:
 334 0000 10B5     		push	{r4, lr}
 335              		.cfi_def_cfa_offset 8
 336              		.cfi_offset 4, -8
 337              		.cfi_offset 14, -4
 202:DRF0554.c     ****     if(x == On){
 338              		.loc 1 202 0
 339 0002 0128     		cmp	r0, #1
 340 0004 0CD1     		bne	.L17
 203:DRF0554.c     ****         _showControl |= LCD_BLINKON;
 341              		.loc 1 203 0
 342 0006 0C4A     		ldr	r2, .L19
 343 0008 1078     		ldrb	r0, [r2]
 344              	.LVL33:
 345 000a 0123     		movs	r3, #1
 346 000c 0343     		orrs	r3, r0
 347 000e DBB2     		uxtb	r3, r3
 348 0010 1370     		strb	r3, [r2]
 204:DRF0554.c     ****         command(LCD_DISPLAYCONTROL | _showControl);
 349              		.loc 1 204 0
 350 0012 0820     		movs	r0, #8
 351 0014 0343     		orrs	r3, r0
 352 0016 D8B2     		uxtb	r0, r3
 353 0018 FFF7FEFF 		bl	command
 354              	.LVL34:
 205:DRF0554.c     ****         return true;
 355              		.loc 1 205 0
 356 001c 0120     		movs	r0, #1
 357 001e 0AE0     		b	.L18
 358              	.LVL35:
 359              	.L17:
 206:DRF0554.c     ****     }
 207:DRF0554.c     ****     _showControl &= ~LCD_BLINKON;
 360              		.loc 1 207 0
 361 0020 054B     		ldr	r3, .L19
ARM GAS  C:\Users\guill\AppData\Local\Temp\cclz5xua.s 			page 11


 362 0022 1878     		ldrb	r0, [r3]
 363              	.LVL36:
 364 0024 0122     		movs	r2, #1
 365 0026 9043     		bics	r0, r2
 366 0028 1870     		strb	r0, [r3]
 208:DRF0554.c     ****     command(LCD_DISPLAYCONTROL | _showControl);
 367              		.loc 1 208 0
 368 002a 0823     		movs	r3, #8
 369 002c 1843     		orrs	r0, r3
 370 002e C0B2     		uxtb	r0, r0
 371 0030 FFF7FEFF 		bl	command
 372              	.LVL37:
 209:DRF0554.c     ****     return false;
 373              		.loc 1 209 0
 374 0034 0020     		movs	r0, #0
 375              	.L18:
 210:DRF0554.c     **** }
 376              		.loc 1 210 0
 377              		@ sp needed
 378 0036 10BD     		pop	{r4, pc}
 379              	.L20:
 380              		.align	2
 381              	.L19:
 382 0038 00000000 		.word	_showControl
 383              		.cfi_endproc
 384              	.LFE595:
 385              		.size	LCD_Blink, .-LCD_Blink
 386              		.section	.text.LCD_Cursor,"ax",%progbits
 387              		.align	2
 388              		.global	LCD_Cursor
 389              		.code	16
 390              		.thumb_func
 391              		.type	LCD_Cursor, %function
 392              	LCD_Cursor:
 393              	.LFB596:
 211:DRF0554.c     ****  
 212:DRF0554.c     **** // Shows the cursor if MODE is On, hides it otherwise. 
 213:DRF0554.c     **** // Returns FALSE on error, TRUE otherwise. 
 214:DRF0554.c     **** bool LCD_Cursor(enum mode x){
 394              		.loc 1 214 0
 395              		.cfi_startproc
 396              		@ args = 0, pretend = 0, frame = 0
 397              		@ frame_needed = 0, uses_anonymous_args = 0
 398              	.LVL38:
 399 0000 10B5     		push	{r4, lr}
 400              		.cfi_def_cfa_offset 8
 401              		.cfi_offset 4, -8
 402              		.cfi_offset 14, -4
 215:DRF0554.c     ****     if(x == On){
 403              		.loc 1 215 0
 404 0002 0128     		cmp	r0, #1
 405 0004 0CD1     		bne	.L22
 216:DRF0554.c     ****         _showControl |= LCD_CURSORON;
 406              		.loc 1 216 0
 407 0006 0C4A     		ldr	r2, .L24
 408 0008 1078     		ldrb	r0, [r2]
 409              	.LVL39:
ARM GAS  C:\Users\guill\AppData\Local\Temp\cclz5xua.s 			page 12


 410 000a 0223     		movs	r3, #2
 411 000c 0343     		orrs	r3, r0
 412 000e DBB2     		uxtb	r3, r3
 413 0010 1370     		strb	r3, [r2]
 217:DRF0554.c     ****         command(LCD_DISPLAYCONTROL | _showControl);
 414              		.loc 1 217 0
 415 0012 0820     		movs	r0, #8
 416 0014 0343     		orrs	r3, r0
 417 0016 D8B2     		uxtb	r0, r3
 418 0018 FFF7FEFF 		bl	command
 419              	.LVL40:
 218:DRF0554.c     ****         return true;
 420              		.loc 1 218 0
 421 001c 0120     		movs	r0, #1
 422 001e 0AE0     		b	.L23
 423              	.LVL41:
 424              	.L22:
 219:DRF0554.c     ****     }
 220:DRF0554.c     ****     _showControl &= ~LCD_CURSORON;
 425              		.loc 1 220 0
 426 0020 054B     		ldr	r3, .L24
 427 0022 1878     		ldrb	r0, [r3]
 428              	.LVL42:
 429 0024 0222     		movs	r2, #2
 430 0026 9043     		bics	r0, r2
 431 0028 1870     		strb	r0, [r3]
 221:DRF0554.c     ****     command(LCD_DISPLAYCONTROL | _showControl);
 432              		.loc 1 221 0
 433 002a 0823     		movs	r3, #8
 434 002c 1843     		orrs	r0, r3
 435 002e C0B2     		uxtb	r0, r0
 436 0030 FFF7FEFF 		bl	command
 437              	.LVL43:
 222:DRF0554.c     ****     return false;
 438              		.loc 1 222 0
 439 0034 0020     		movs	r0, #0
 440              	.L23:
 223:DRF0554.c     **** }
 441              		.loc 1 223 0
 442              		@ sp needed
 443 0036 10BD     		pop	{r4, pc}
 444              	.L25:
 445              		.align	2
 446              	.L24:
 447 0038 00000000 		.word	_showControl
 448              		.cfi_endproc
 449              	.LFE596:
 450              		.size	LCD_Cursor, .-LCD_Cursor
 451              		.section	.text.LCD_Autoscroll,"ax",%progbits
 452              		.align	2
 453              		.global	LCD_Autoscroll
 454              		.code	16
 455              		.thumb_func
 456              		.type	LCD_Autoscroll, %function
 457              	LCD_Autoscroll:
 458              	.LFB597:
 224:DRF0554.c     ****  
ARM GAS  C:\Users\guill\AppData\Local\Temp\cclz5xua.s 			page 13


 225:DRF0554.c     **** // Sets the display to autoscroll if MODE is On, non-scrolling otherwise. 
 226:DRF0554.c     **** // Returns FALSE on error, TRUE otherwise. 
 227:DRF0554.c     **** bool LCD_Autoscroll(enum mode x){
 459              		.loc 1 227 0
 460              		.cfi_startproc
 461              		@ args = 0, pretend = 0, frame = 0
 462              		@ frame_needed = 0, uses_anonymous_args = 0
 463              	.LVL44:
 464 0000 10B5     		push	{r4, lr}
 465              		.cfi_def_cfa_offset 8
 466              		.cfi_offset 4, -8
 467              		.cfi_offset 14, -4
 228:DRF0554.c     ****     if( x == On){
 468              		.loc 1 228 0
 469 0002 0128     		cmp	r0, #1
 470 0004 0CD1     		bne	.L27
 229:DRF0554.c     ****         _showMode |= LCD_ENTRYSHIFTINCREMENT;
 471              		.loc 1 229 0
 472 0006 0C4A     		ldr	r2, .L29
 473 0008 1078     		ldrb	r0, [r2]
 474              	.LVL45:
 475 000a 0123     		movs	r3, #1
 476 000c 0343     		orrs	r3, r0
 477 000e DBB2     		uxtb	r3, r3
 478 0010 1370     		strb	r3, [r2]
 230:DRF0554.c     ****         command(LCD_ENTRYMODESET | _showMode);
 479              		.loc 1 230 0
 480 0012 0420     		movs	r0, #4
 481 0014 0343     		orrs	r3, r0
 482 0016 D8B2     		uxtb	r0, r3
 483 0018 FFF7FEFF 		bl	command
 484              	.LVL46:
 231:DRF0554.c     **** 
 232:DRF0554.c     ****         return true;
 485              		.loc 1 232 0
 486 001c 0120     		movs	r0, #1
 487 001e 0AE0     		b	.L28
 488              	.LVL47:
 489              	.L27:
 233:DRF0554.c     ****     }
 234:DRF0554.c     ****      _showMode &= ~LCD_ENTRYSHIFTINCREMENT;
 490              		.loc 1 234 0
 491 0020 054B     		ldr	r3, .L29
 492 0022 1878     		ldrb	r0, [r3]
 493              	.LVL48:
 494 0024 0122     		movs	r2, #1
 495 0026 9043     		bics	r0, r2
 496 0028 1870     		strb	r0, [r3]
 235:DRF0554.c     ****      command(LCD_ENTRYMODESET | _showMode);
 497              		.loc 1 235 0
 498 002a 0423     		movs	r3, #4
 499 002c 1843     		orrs	r0, r3
 500 002e C0B2     		uxtb	r0, r0
 501 0030 FFF7FEFF 		bl	command
 502              	.LVL49:
 236:DRF0554.c     ****     return false;
 503              		.loc 1 236 0
ARM GAS  C:\Users\guill\AppData\Local\Temp\cclz5xua.s 			page 14


 504 0034 0020     		movs	r0, #0
 505              	.L28:
 237:DRF0554.c     ****   
 238:DRF0554.c     **** }
 506              		.loc 1 238 0
 507              		@ sp needed
 508 0036 10BD     		pop	{r4, pc}
 509              	.L30:
 510              		.align	2
 511              	.L29:
 512 0038 00000000 		.word	_showMode
 513              		.cfi_endproc
 514              	.LFE597:
 515              		.size	LCD_Autoscroll, .-LCD_Autoscroll
 516              		.section	.text.LCD_Scroll,"ax",%progbits
 517              		.align	2
 518              		.global	LCD_Scroll
 519              		.code	16
 520              		.thumb_func
 521              		.type	LCD_Scroll, %function
 522              	LCD_Scroll:
 523              	.LFB598:
 239:DRF0554.c     ****  
 240:DRF0554.c     **** // Scrolls display on char left if DIRECTION is Left, one char right otherwise. 
 241:DRF0554.c     **** // Returns FALSE on error, TRUE otherwise. 
 242:DRF0554.c     **** bool LCD_Scroll(enum direction x){
 524              		.loc 1 242 0
 525              		.cfi_startproc
 526              		@ args = 0, pretend = 0, frame = 0
 527              		@ frame_needed = 0, uses_anonymous_args = 0
 528              	.LVL50:
 529 0000 10B5     		push	{r4, lr}
 530              		.cfi_def_cfa_offset 8
 531              		.cfi_offset 4, -8
 532              		.cfi_offset 14, -4
 243:DRF0554.c     ****     if(x == Left){
 533              		.loc 1 243 0
 534 0002 0028     		cmp	r0, #0
 535 0004 04D1     		bne	.L32
 244:DRF0554.c     ****         command(LCD_CURSORSHIFT | LCD_DISPLAYMOVE | LCD_MOVELEFT);
 536              		.loc 1 244 0
 537 0006 1830     		adds	r0, r0, #24
 538              	.LVL51:
 539 0008 FFF7FEFF 		bl	command
 540              	.LVL52:
 245:DRF0554.c     ****         return true;
 541              		.loc 1 245 0
 542 000c 0120     		movs	r0, #1
 543 000e 07E0     		b	.L33
 544              	.LVL53:
 545              	.L32:
 246:DRF0554.c     ****     }
 247:DRF0554.c     ****     else if(x == Right){
 546              		.loc 1 247 0
 547 0010 0128     		cmp	r0, #1
 548 0012 04D1     		bne	.L34
 248:DRF0554.c     ****             command(LCD_CURSORSHIFT | LCD_DISPLAYMOVE | LCD_MOVERIGHT);
ARM GAS  C:\Users\guill\AppData\Local\Temp\cclz5xua.s 			page 15


 549              		.loc 1 248 0
 550 0014 1B30     		adds	r0, r0, #27
 551              	.LVL54:
 552 0016 FFF7FEFF 		bl	command
 553              	.LVL55:
 249:DRF0554.c     ****         return true;
 554              		.loc 1 249 0
 555 001a 0120     		movs	r0, #1
 556 001c 00E0     		b	.L33
 557              	.LVL56:
 558              	.L34:
 250:DRF0554.c     ****     }
 251:DRF0554.c     ****     else{
 252:DRF0554.c     ****         return false;
 559              		.loc 1 252 0
 560 001e 0020     		movs	r0, #0
 561              	.LVL57:
 562              	.L33:
 253:DRF0554.c     ****     }
 254:DRF0554.c     **** }
 563              		.loc 1 254 0
 564              		@ sp needed
 565 0020 10BD     		pop	{r4, pc}
 566              		.cfi_endproc
 567              	.LFE598:
 568              		.size	LCD_Scroll, .-LCD_Scroll
 569 0022 C046     		.section	.text.LCD_SetRGB,"ax",%progbits
 570              		.align	2
 571              		.global	LCD_SetRGB
 572              		.code	16
 573              		.thumb_func
 574              		.type	LCD_SetRGB, %function
 575              	LCD_SetRGB:
 576              	.LFB600:
 255:DRF0554.c     ****  
 256:DRF0554.c     **** // Sets display color if COLOR is White, Red, Green, or Blue, no-op otherwise. 
 257:DRF0554.c     **** // Returns FALSE on error, TRUE otherwise. 
 258:DRF0554.c     **** bool LCD_SetColor(enum color x){
 259:DRF0554.c     ****     // RED = 255,0,0
 260:DRF0554.c     ****     //Green = 0,255,0
 261:DRF0554.c     ****     //Blue = 0,0,255
 262:DRF0554.c     ****         if(x == White){
 263:DRF0554.c     ****           LCD_SetRGB(255,255,255);  
 264:DRF0554.c     ****         }
 265:DRF0554.c     ****         if(x==Red){
 266:DRF0554.c     ****             LCD_SetRGB(255,0,0);  
 267:DRF0554.c     ****         }
 268:DRF0554.c     ****         if(x==Green){
 269:DRF0554.c     ****             LCD_SetRGB(0,255,0);  
 270:DRF0554.c     ****         }
 271:DRF0554.c     ****         if(x==Blue){
 272:DRF0554.c     ****             LCD_SetRGB(0,0,255);  
 273:DRF0554.c     ****         }
 274:DRF0554.c     ****     return true;    
 275:DRF0554.c     **** }
 276:DRF0554.c     ****  
 277:DRF0554.c     **** // Sets display color according to RED, GREEN, BLUE. 
ARM GAS  C:\Users\guill\AppData\Local\Temp\cclz5xua.s 			page 16


 278:DRF0554.c     **** // Example: LCD_SetRGB(0, 255, 255) for cyan. 
 279:DRF0554.c     **** // Returns FALSE on error, TRUE otherwise. 
 280:DRF0554.c     **** bool LCD_SetRGB(uint8_t red, uint8_t green, uint8_t blue){
 577              		.loc 1 280 0
 578              		.cfi_startproc
 579              		@ args = 0, pretend = 0, frame = 0
 580              		@ frame_needed = 0, uses_anonymous_args = 0
 581              	.LVL58:
 582 0000 70B5     		push	{r4, r5, r6, lr}
 583              		.cfi_def_cfa_offset 16
 584              		.cfi_offset 4, -16
 585              		.cfi_offset 5, -12
 586              		.cfi_offset 6, -8
 587              		.cfi_offset 14, -4
 588 0002 0D00     		movs	r5, r1
 589 0004 1400     		movs	r4, r2
 281:DRF0554.c     ****     setReg(REG_RED, red);
 590              		.loc 1 281 0
 591 0006 0100     		movs	r1, r0
 592              	.LVL59:
 593 0008 0420     		movs	r0, #4
 594              	.LVL60:
 595 000a FFF7FEFF 		bl	setReg
 596              	.LVL61:
 282:DRF0554.c     ****     setReg(REG_GREEN, green);
 597              		.loc 1 282 0
 598 000e 2900     		movs	r1, r5
 599 0010 0320     		movs	r0, #3
 600 0012 FFF7FEFF 		bl	setReg
 601              	.LVL62:
 283:DRF0554.c     ****     setReg(REG_BLUE, blue);
 602              		.loc 1 283 0
 603 0016 2100     		movs	r1, r4
 604 0018 0220     		movs	r0, #2
 605 001a FFF7FEFF 		bl	setReg
 606              	.LVL63:
 284:DRF0554.c     ****     return true;
 285:DRF0554.c     **** }
 607              		.loc 1 285 0
 608 001e 0120     		movs	r0, #1
 609              		@ sp needed
 610 0020 70BD     		pop	{r4, r5, r6, pc}
 611              		.cfi_endproc
 612              	.LFE600:
 613              		.size	LCD_SetRGB, .-LCD_SetRGB
 614 0022 C046     		.section	.text.LCD_SetColor,"ax",%progbits
 615              		.align	2
 616              		.global	LCD_SetColor
 617              		.code	16
 618              		.thumb_func
 619              		.type	LCD_SetColor, %function
 620              	LCD_SetColor:
 621              	.LFB599:
 258:DRF0554.c     ****     // RED = 255,0,0
 622              		.loc 1 258 0
 623              		.cfi_startproc
 624              		@ args = 0, pretend = 0, frame = 0
ARM GAS  C:\Users\guill\AppData\Local\Temp\cclz5xua.s 			page 17


 625              		@ frame_needed = 0, uses_anonymous_args = 0
 626              	.LVL64:
 627 0000 10B5     		push	{r4, lr}
 628              		.cfi_def_cfa_offset 8
 629              		.cfi_offset 4, -8
 630              		.cfi_offset 14, -4
 631 0002 041E     		subs	r4, r0, #0
 262:DRF0554.c     ****           LCD_SetRGB(255,255,255);  
 632              		.loc 1 262 0
 633 0004 04D1     		bne	.L37
 263:DRF0554.c     ****         }
 634              		.loc 1 263 0
 635 0006 FF22     		movs	r2, #255
 636 0008 FF21     		movs	r1, #255
 637 000a FF20     		movs	r0, #255
 638              	.LVL65:
 639 000c FFF7FEFF 		bl	LCD_SetRGB
 640              	.LVL66:
 641              	.L37:
 265:DRF0554.c     ****             LCD_SetRGB(255,0,0);  
 642              		.loc 1 265 0
 643 0010 012C     		cmp	r4, #1
 644 0012 04D1     		bne	.L38
 266:DRF0554.c     ****         }
 645              		.loc 1 266 0
 646 0014 0022     		movs	r2, #0
 647 0016 0021     		movs	r1, #0
 648 0018 FF20     		movs	r0, #255
 649 001a FFF7FEFF 		bl	LCD_SetRGB
 650              	.LVL67:
 651              	.L38:
 268:DRF0554.c     ****             LCD_SetRGB(0,255,0);  
 652              		.loc 1 268 0
 653 001e 022C     		cmp	r4, #2
 654 0020 04D1     		bne	.L39
 269:DRF0554.c     ****         }
 655              		.loc 1 269 0
 656 0022 0022     		movs	r2, #0
 657 0024 FF21     		movs	r1, #255
 658 0026 0020     		movs	r0, #0
 659 0028 FFF7FEFF 		bl	LCD_SetRGB
 660              	.LVL68:
 661              	.L39:
 271:DRF0554.c     ****             LCD_SetRGB(0,0,255);  
 662              		.loc 1 271 0
 663 002c 032C     		cmp	r4, #3
 664 002e 04D1     		bne	.L40
 272:DRF0554.c     ****         }
 665              		.loc 1 272 0
 666 0030 FF22     		movs	r2, #255
 667 0032 0021     		movs	r1, #0
 668 0034 0020     		movs	r0, #0
 669 0036 FFF7FEFF 		bl	LCD_SetRGB
 670              	.LVL69:
 671              	.L40:
 275:DRF0554.c     ****  
 672              		.loc 1 275 0
ARM GAS  C:\Users\guill\AppData\Local\Temp\cclz5xua.s 			page 18


 673 003a 0120     		movs	r0, #1
 674              		@ sp needed
 675 003c 10BD     		pop	{r4, pc}
 676              		.cfi_endproc
 677              	.LFE599:
 678              		.size	LCD_SetColor, .-LCD_SetColor
 679 003e C046     		.section	.text.LCD_SetCursor,"ax",%progbits
 680              		.align	2
 681              		.global	LCD_SetCursor
 682              		.code	16
 683              		.thumb_func
 684              		.type	LCD_SetCursor, %function
 685              	LCD_SetCursor:
 686              	.LFB601:
 286:DRF0554.c     ****  
 287:DRF0554.c     **** // Positions the cursor at COL and ROW where 0<=COL<=15 and 0<=ROW<=1 
 288:DRF0554.c     **** // Returns FALSE on error, TRUE otherwise. 
 289:DRF0554.c     **** bool LCD_SetCursor(uint8_t col, uint8_t row){
 687              		.loc 1 289 0
 688              		.cfi_startproc
 689              		@ args = 0, pretend = 0, frame = 8
 690              		@ frame_needed = 0, uses_anonymous_args = 0
 691              	.LVL70:
 692 0000 30B5     		push	{r4, r5, lr}
 693              		.cfi_def_cfa_offset 12
 694              		.cfi_offset 4, -12
 695              		.cfi_offset 5, -8
 696              		.cfi_offset 14, -4
 697 0002 83B0     		sub	sp, sp, #12
 698              		.cfi_def_cfa_offset 24
 290:DRF0554.c     ****     if((col>=0 && col <=15)&&(row>=0&&row<=1)){
 699              		.loc 1 290 0
 700 0004 0F28     		cmp	r0, #15
 701 0006 19D8     		bhi	.L42
 702              		.loc 1 290 0 is_stmt 0 discriminator 1
 703 0008 0129     		cmp	r1, #1
 704 000a 17D8     		bhi	.L42
 705              	.LBB5:
 291:DRF0554.c     ****         col = (row == 0 ? col|0x80 : col|0xc0);
 706              		.loc 1 291 0 is_stmt 1
 707 000c 0029     		cmp	r1, #0
 708 000e 04D1     		bne	.L43
 709              		.loc 1 291 0 is_stmt 0 discriminator 1
 710 0010 8024     		movs	r4, #128
 711 0012 6442     		rsbs	r4, r4, #0
 712 0014 2043     		orrs	r0, r4
 713              	.LVL71:
 714 0016 C4B2     		uxtb	r4, r0
 715 0018 03E0     		b	.L44
 716              	.LVL72:
 717              	.L43:
 718              		.loc 1 291 0 discriminator 2
 719 001a 4024     		movs	r4, #64
 720 001c 6442     		rsbs	r4, r4, #0
 721 001e 2043     		orrs	r0, r4
 722              	.LVL73:
 723 0020 C4B2     		uxtb	r4, r0
ARM GAS  C:\Users\guill\AppData\Local\Temp\cclz5xua.s 			page 19


 724              	.L44:
 725              	.LVL74:
 292:DRF0554.c     ****         uint8_t data[3] = {0x80, col};
 726              		.loc 1 292 0 is_stmt 1 discriminator 4
 727 0022 01AD     		add	r5, sp, #4
 728 0024 0322     		movs	r2, #3
 729 0026 0021     		movs	r1, #0
 730              	.LVL75:
 731 0028 2800     		movs	r0, r5
 732 002a FFF7FEFF 		bl	memset
 733              	.LVL76:
 734 002e 8023     		movs	r3, #128
 735 0030 2B70     		strb	r3, [r5]
 736 0032 6C70     		strb	r4, [r5, #1]
 293:DRF0554.c     ****         send(data, 2);
 737              		.loc 1 293 0 discriminator 4
 738 0034 0221     		movs	r1, #2
 739 0036 2800     		movs	r0, r5
 740 0038 FFF7FEFF 		bl	send
 741              	.LVL77:
 742              	.L42:
 743              	.LBE5:
 294:DRF0554.c     ****     }
 295:DRF0554.c     ****     return false;
 296:DRF0554.c     **** }
 744              		.loc 1 296 0
 745 003c 0020     		movs	r0, #0
 746 003e 03B0     		add	sp, sp, #12
 747              		@ sp needed
 748 0040 30BD     		pop	{r4, r5, pc}
 749              		.cfi_endproc
 750              	.LFE601:
 751              		.size	LCD_SetCursor, .-LCD_SetCursor
 752 0042 C046     		.section	.text.LCD_Clear,"ax",%progbits
 753              		.align	2
 754              		.global	LCD_Clear
 755              		.code	16
 756              		.thumb_func
 757              		.type	LCD_Clear, %function
 758              	LCD_Clear:
 759              	.LFB602:
 297:DRF0554.c     **** 
 298:DRF0554.c     ****  
 299:DRF0554.c     **** // Clears the display. 
 300:DRF0554.c     **** // Returns FALSE on error, TRUE otherwise. 
 301:DRF0554.c     **** bool LCD_Clear(){
 760              		.loc 1 301 0
 761              		.cfi_startproc
 762              		@ args = 0, pretend = 0, frame = 0
 763              		@ frame_needed = 0, uses_anonymous_args = 0
 764 0000 10B5     		push	{r4, lr}
 765              		.cfi_def_cfa_offset 8
 766              		.cfi_offset 4, -8
 767              		.cfi_offset 14, -4
 302:DRF0554.c     ****     command(LCD_CLEARDISPLAY);        // clear display, set cursor position to zero
 768              		.loc 1 302 0
 769 0002 0120     		movs	r0, #1
ARM GAS  C:\Users\guill\AppData\Local\Temp\cclz5xua.s 			page 20


 770 0004 FFF7FEFF 		bl	command
 771              	.LVL78:
 303:DRF0554.c     ****     CyDelay(2);  
 772              		.loc 1 303 0
 773 0008 0220     		movs	r0, #2
 774 000a FFF7FEFF 		bl	Cy_SysLib_Delay
 775              	.LVL79:
 304:DRF0554.c     ****     return false;
 305:DRF0554.c     **** }
 776              		.loc 1 305 0
 777 000e 0020     		movs	r0, #0
 778              		@ sp needed
 779 0010 10BD     		pop	{r4, pc}
 780              		.cfi_endproc
 781              	.LFE602:
 782              		.size	LCD_Clear, .-LCD_Clear
 783 0012 C046     		.section	.text.LCD_Start,"ax",%progbits
 784              		.align	2
 785              		.global	LCD_Start
 786              		.code	16
 787              		.thumb_func
 788              		.type	LCD_Start, %function
 789              	LCD_Start:
 790              	.LFB593:
 123:DRF0554.c     **** 
 791              		.loc 1 123 0
 792              		.cfi_startproc
 793              		@ args = 0, pretend = 0, frame = 0
 794              		@ frame_needed = 0, uses_anonymous_args = 0
 795              	.LVL80:
 796 0000 70B5     		push	{r4, r5, r6, lr}
 797              		.cfi_def_cfa_offset 16
 798              		.cfi_offset 4, -16
 799              		.cfi_offset 5, -12
 800              		.cfi_offset 6, -8
 801              		.cfi_offset 14, -4
 802 0002 0400     		movs	r4, r0
 803 0004 0A00     		movs	r2, r1
 128:DRF0554.c     ****     //sys_status = Cy_SysInt_Init(&I2C_SCB_IRQ_cfg, &I2C_Interrupt);
 804              		.loc 1 128 0
 805 0006 2449     		ldr	r1, .L49
 806              	.LVL81:
 807 0008 FFF7FEFF 		bl	Cy_SCB_I2C_Init
 808              	.LVL82:
 130:DRF0554.c     ****         return false;
 809              		.loc 1 130 0
 810 000c 0028     		cmp	r0, #0
 811 000e 41D1     		bne	.L48
 812              	.LVL83:
 813              	.LBB6:
 814              	.LBB7:
 815              		.file 2 "Generated_Source\\PSoC6\\pdl\\drivers/peripheral/scb/cy_scb_i2c.h"
   1:Generated_Source\PSoC6\pdl\drivers/peripheral/scb/cy_scb_i2c.h **** /***************************************************************************//**
   2:Generated_Source\PSoC6\pdl\drivers/peripheral/scb/cy_scb_i2c.h **** * \file cy_scb_i2c.h
   3:Generated_Source\PSoC6\pdl\drivers/peripheral/scb/cy_scb_i2c.h **** * \version 2.20
   4:Generated_Source\PSoC6\pdl\drivers/peripheral/scb/cy_scb_i2c.h **** *
   5:Generated_Source\PSoC6\pdl\drivers/peripheral/scb/cy_scb_i2c.h **** * Provides I2C API declarations of the SCB driver.
ARM GAS  C:\Users\guill\AppData\Local\Temp\cclz5xua.s 			page 21


   6:Generated_Source\PSoC6\pdl\drivers/peripheral/scb/cy_scb_i2c.h **** *
   7:Generated_Source\PSoC6\pdl\drivers/peripheral/scb/cy_scb_i2c.h **** ********************************************************************************
   8:Generated_Source\PSoC6\pdl\drivers/peripheral/scb/cy_scb_i2c.h **** * \copyright
   9:Generated_Source\PSoC6\pdl\drivers/peripheral/scb/cy_scb_i2c.h **** * Copyright 2016-2018, Cypress Semiconductor Corporation.  All rights reserved.
  10:Generated_Source\PSoC6\pdl\drivers/peripheral/scb/cy_scb_i2c.h **** * You may use this file only in accordance with the license, terms, conditions,
  11:Generated_Source\PSoC6\pdl\drivers/peripheral/scb/cy_scb_i2c.h **** * disclaimers, and limitations in the end user license agreement accompanying
  12:Generated_Source\PSoC6\pdl\drivers/peripheral/scb/cy_scb_i2c.h **** * the software package with which this file was provided.
  13:Generated_Source\PSoC6\pdl\drivers/peripheral/scb/cy_scb_i2c.h **** *******************************************************************************/
  14:Generated_Source\PSoC6\pdl\drivers/peripheral/scb/cy_scb_i2c.h **** 
  15:Generated_Source\PSoC6\pdl\drivers/peripheral/scb/cy_scb_i2c.h **** /**
  16:Generated_Source\PSoC6\pdl\drivers/peripheral/scb/cy_scb_i2c.h **** * \addtogroup group_scb_i2c
  17:Generated_Source\PSoC6\pdl\drivers/peripheral/scb/cy_scb_i2c.h **** * \{
  18:Generated_Source\PSoC6\pdl\drivers/peripheral/scb/cy_scb_i2c.h **** * Driver API for I2C Bus Peripheral
  19:Generated_Source\PSoC6\pdl\drivers/peripheral/scb/cy_scb_i2c.h **** *
  20:Generated_Source\PSoC6\pdl\drivers/peripheral/scb/cy_scb_i2c.h **** * I2C - The Inter-Integrated Circuit (I2C) bus is an industry-standard.
  21:Generated_Source\PSoC6\pdl\drivers/peripheral/scb/cy_scb_i2c.h **** *
  22:Generated_Source\PSoC6\pdl\drivers/peripheral/scb/cy_scb_i2c.h **** * The functions and other declarations used in this part of the driver are in 
  23:Generated_Source\PSoC6\pdl\drivers/peripheral/scb/cy_scb_i2c.h **** * cy_scb_i2c.h. You can also include cy_pdl.h (ModusToolbox only) to get access 
  24:Generated_Source\PSoC6\pdl\drivers/peripheral/scb/cy_scb_i2c.h **** * to all functions and declarations in the PDL.
  25:Generated_Source\PSoC6\pdl\drivers/peripheral/scb/cy_scb_i2c.h **** *
  26:Generated_Source\PSoC6\pdl\drivers/peripheral/scb/cy_scb_i2c.h **** * The I2C peripheral driver provides an API to implement I2C slave, master,
  27:Generated_Source\PSoC6\pdl\drivers/peripheral/scb/cy_scb_i2c.h **** * or master-slave devices based on the SCB hardware block.
  28:Generated_Source\PSoC6\pdl\drivers/peripheral/scb/cy_scb_i2c.h **** * I2C devices based on SCB hardware are compatible with I2C
  29:Generated_Source\PSoC6\pdl\drivers/peripheral/scb/cy_scb_i2c.h **** * Standard-mode, Fast-mode, and Fast-mode Plus specifications as defined in
  30:Generated_Source\PSoC6\pdl\drivers/peripheral/scb/cy_scb_i2c.h **** * the I2C-bus specification.
  31:Generated_Source\PSoC6\pdl\drivers/peripheral/scb/cy_scb_i2c.h **** *
  32:Generated_Source\PSoC6\pdl\drivers/peripheral/scb/cy_scb_i2c.h **** * Features:
  33:Generated_Source\PSoC6\pdl\drivers/peripheral/scb/cy_scb_i2c.h **** * * An industry-standard I2C bus interface
  34:Generated_Source\PSoC6\pdl\drivers/peripheral/scb/cy_scb_i2c.h **** * * Supports slave, master, and master-slave operation
  35:Generated_Source\PSoC6\pdl\drivers/peripheral/scb/cy_scb_i2c.h **** * * Supports standard data rates of 100/400/1000 kbps
  36:Generated_Source\PSoC6\pdl\drivers/peripheral/scb/cy_scb_i2c.h **** * * Hardware Address Match, multiple addresses
  37:Generated_Source\PSoC6\pdl\drivers/peripheral/scb/cy_scb_i2c.h **** * * Wake from Deep Sleep on Address Match
  38:Generated_Source\PSoC6\pdl\drivers/peripheral/scb/cy_scb_i2c.h **** *
  39:Generated_Source\PSoC6\pdl\drivers/peripheral/scb/cy_scb_i2c.h **** ********************************************************************************
  40:Generated_Source\PSoC6\pdl\drivers/peripheral/scb/cy_scb_i2c.h **** * \section group_scb_i2c_configuration Configuration Considerations
  41:Generated_Source\PSoC6\pdl\drivers/peripheral/scb/cy_scb_i2c.h **** ********************************************************************************
  42:Generated_Source\PSoC6\pdl\drivers/peripheral/scb/cy_scb_i2c.h **** * The I2C driver configuration can be divided to number of sequential
  43:Generated_Source\PSoC6\pdl\drivers/peripheral/scb/cy_scb_i2c.h **** * steps listed below:
  44:Generated_Source\PSoC6\pdl\drivers/peripheral/scb/cy_scb_i2c.h **** * * \ref group_scb_i2c_config
  45:Generated_Source\PSoC6\pdl\drivers/peripheral/scb/cy_scb_i2c.h **** * * \ref group_scb_i2c_pins
  46:Generated_Source\PSoC6\pdl\drivers/peripheral/scb/cy_scb_i2c.h **** * * \ref group_scb_i2c_clock
  47:Generated_Source\PSoC6\pdl\drivers/peripheral/scb/cy_scb_i2c.h **** * * \ref group_scb_i2c_data_rate
  48:Generated_Source\PSoC6\pdl\drivers/peripheral/scb/cy_scb_i2c.h **** * * \ref group_scb_i2c_intr
  49:Generated_Source\PSoC6\pdl\drivers/peripheral/scb/cy_scb_i2c.h **** * * \ref group_scb_i2c_enable
  50:Generated_Source\PSoC6\pdl\drivers/peripheral/scb/cy_scb_i2c.h **** *
  51:Generated_Source\PSoC6\pdl\drivers/peripheral/scb/cy_scb_i2c.h **** * \note
  52:Generated_Source\PSoC6\pdl\drivers/peripheral/scb/cy_scb_i2c.h **** * I2C driver is built on top of the SCB hardware block. The SCB3 instance is
  53:Generated_Source\PSoC6\pdl\drivers/peripheral/scb/cy_scb_i2c.h **** * used as an example for all code snippets. Modify the code to match your
  54:Generated_Source\PSoC6\pdl\drivers/peripheral/scb/cy_scb_i2c.h **** * design.
  55:Generated_Source\PSoC6\pdl\drivers/peripheral/scb/cy_scb_i2c.h **** *
  56:Generated_Source\PSoC6\pdl\drivers/peripheral/scb/cy_scb_i2c.h **** ********************************************************************************
  57:Generated_Source\PSoC6\pdl\drivers/peripheral/scb/cy_scb_i2c.h **** * \subsection group_scb_i2c_config Configure I2C
  58:Generated_Source\PSoC6\pdl\drivers/peripheral/scb/cy_scb_i2c.h **** ********************************************************************************
  59:Generated_Source\PSoC6\pdl\drivers/peripheral/scb/cy_scb_i2c.h **** * To set up the I2C  driver, provide the configuration parameters in the
  60:Generated_Source\PSoC6\pdl\drivers/peripheral/scb/cy_scb_i2c.h **** * \ref cy_stc_scb_i2c_config_t structure. Provide i2cMode to the select
  61:Generated_Source\PSoC6\pdl\drivers/peripheral/scb/cy_scb_i2c.h **** * operation mode slave, master or master-slave. The useRxFifo and useTxFifo 
  62:Generated_Source\PSoC6\pdl\drivers/peripheral/scb/cy_scb_i2c.h **** * parameters specify if RX and TX FIFO is used during operation. Typically, both
ARM GAS  C:\Users\guill\AppData\Local\Temp\cclz5xua.s 			page 22


  63:Generated_Source\PSoC6\pdl\drivers/peripheral/scb/cy_scb_i2c.h **** * FIFOs should be enabled to reduce possibility of clock stringing. However, 
  64:Generated_Source\PSoC6\pdl\drivers/peripheral/scb/cy_scb_i2c.h **** * using RX FIFO has side effects that needs to be taken into account 
  65:Generated_Source\PSoC6\pdl\drivers/peripheral/scb/cy_scb_i2c.h **** * (see useRxFifo field description in \ref cy_stc_scb_i2c_config_t structure). 
  66:Generated_Source\PSoC6\pdl\drivers/peripheral/scb/cy_scb_i2c.h **** * For master modes, parameters lowPhaseDutyCycle, highPhaseDutyCycle and 
  67:Generated_Source\PSoC6\pdl\drivers/peripheral/scb/cy_scb_i2c.h **** * enableDigitalFilter can be used to define output data rate (refer to section 
  68:Generated_Source\PSoC6\pdl\drivers/peripheral/scb/cy_scb_i2c.h **** * \ref group_scb_i2c_data_rate for more information).
  69:Generated_Source\PSoC6\pdl\drivers/peripheral/scb/cy_scb_i2c.h **** * For slave mode, provide the slaveAddress and slaveAddressMask. The other 
  70:Generated_Source\PSoC6\pdl\drivers/peripheral/scb/cy_scb_i2c.h **** * parameters are optional for operation.\n
  71:Generated_Source\PSoC6\pdl\drivers/peripheral/scb/cy_scb_i2c.h **** * To initialize the driver, call \ref Cy_SCB_I2C_Init
  72:Generated_Source\PSoC6\pdl\drivers/peripheral/scb/cy_scb_i2c.h **** * function providing a pointer to the populated \ref cy_stc_scb_i2c_config_t
  73:Generated_Source\PSoC6\pdl\drivers/peripheral/scb/cy_scb_i2c.h **** * structure and the allocated \ref cy_stc_scb_i2c_context_t structure.
  74:Generated_Source\PSoC6\pdl\drivers/peripheral/scb/cy_scb_i2c.h **** *
  75:Generated_Source\PSoC6\pdl\drivers/peripheral/scb/cy_scb_i2c.h **** * \snippet SCB_CompDatasheet_sut_01_revA.cydsn\i2c_snippets.c I2C_CFG
  76:Generated_Source\PSoC6\pdl\drivers/peripheral/scb/cy_scb_i2c.h **** *
  77:Generated_Source\PSoC6\pdl\drivers/peripheral/scb/cy_scb_i2c.h **** * Set up I2C slave read and write buffer before enabling its
  78:Generated_Source\PSoC6\pdl\drivers/peripheral/scb/cy_scb_i2c.h **** * operation using \ref Cy_SCB_I2C_SlaveConfigReadBuf and \ref
  79:Generated_Source\PSoC6\pdl\drivers/peripheral/scb/cy_scb_i2c.h **** * Cy_SCB_I2C_SlaveConfigWriteBuf appropriately. Note that the master reads
  80:Generated_Source\PSoC6\pdl\drivers/peripheral/scb/cy_scb_i2c.h **** * data from the slave read buffer and writes data into the slave write buffer.
  81:Generated_Source\PSoC6\pdl\drivers/peripheral/scb/cy_scb_i2c.h **** *
  82:Generated_Source\PSoC6\pdl\drivers/peripheral/scb/cy_scb_i2c.h **** * \snippet SCB_CompDatasheet_sut_01_revA.cydsn\i2c_snippets.c I2C_CFG_BUFFER
  83:Generated_Source\PSoC6\pdl\drivers/peripheral/scb/cy_scb_i2c.h **** *
  84:Generated_Source\PSoC6\pdl\drivers/peripheral/scb/cy_scb_i2c.h **** ********************************************************************************
  85:Generated_Source\PSoC6\pdl\drivers/peripheral/scb/cy_scb_i2c.h **** * \subsection group_scb_i2c_pins Assign and Configure Pins
  86:Generated_Source\PSoC6\pdl\drivers/peripheral/scb/cy_scb_i2c.h **** ********************************************************************************
  87:Generated_Source\PSoC6\pdl\drivers/peripheral/scb/cy_scb_i2c.h **** * Only dedicated SCB pins can be used for I2C operation. The HSIOM
  88:Generated_Source\PSoC6\pdl\drivers/peripheral/scb/cy_scb_i2c.h **** * register must be configured to connect dedicated SCB I2C pins to the 
  89:Generated_Source\PSoC6\pdl\drivers/peripheral/scb/cy_scb_i2c.h **** * SCB block. Also the I2C pins must be configured in Open-Drain, Drives Low mode 
  90:Generated_Source\PSoC6\pdl\drivers/peripheral/scb/cy_scb_i2c.h **** * (this pins  configuration implies usage of external pull-up resistors):
  91:Generated_Source\PSoC6\pdl\drivers/peripheral/scb/cy_scb_i2c.h **** *
  92:Generated_Source\PSoC6\pdl\drivers/peripheral/scb/cy_scb_i2c.h **** * \snippet SCB_CompDatasheet_sut_01_revA.cydsn\i2c_snippets.c I2C_CFG_PINS
  93:Generated_Source\PSoC6\pdl\drivers/peripheral/scb/cy_scb_i2c.h **** *
  94:Generated_Source\PSoC6\pdl\drivers/peripheral/scb/cy_scb_i2c.h **** * \note
  95:Generated_Source\PSoC6\pdl\drivers/peripheral/scb/cy_scb_i2c.h **** * The alternative pins configuration is Resistive Pull-ups which implies usage
  96:Generated_Source\PSoC6\pdl\drivers/peripheral/scb/cy_scb_i2c.h **** * internal pull-up resistors. This configuration is not recommended because
  97:Generated_Source\PSoC6\pdl\drivers/peripheral/scb/cy_scb_i2c.h **** * resistor value is fixed and cannot be used for all supported data rates.
  98:Generated_Source\PSoC6\pdl\drivers/peripheral/scb/cy_scb_i2c.h **** * Refer to the device datasheet parameter RPULLUP for resistor value specifications.
  99:Generated_Source\PSoC6\pdl\drivers/peripheral/scb/cy_scb_i2c.h **** *
 100:Generated_Source\PSoC6\pdl\drivers/peripheral/scb/cy_scb_i2c.h **** ********************************************************************************
 101:Generated_Source\PSoC6\pdl\drivers/peripheral/scb/cy_scb_i2c.h **** * \subsection group_scb_i2c_clock Assign Clock Divider
 102:Generated_Source\PSoC6\pdl\drivers/peripheral/scb/cy_scb_i2c.h **** ********************************************************************************
 103:Generated_Source\PSoC6\pdl\drivers/peripheral/scb/cy_scb_i2c.h **** * A clock source must be connected to the SCB block to oversample input and
 104:Generated_Source\PSoC6\pdl\drivers/peripheral/scb/cy_scb_i2c.h **** * output signals, in this document this clock will be referred as clk_scb.
 105:Generated_Source\PSoC6\pdl\drivers/peripheral/scb/cy_scb_i2c.h **** * You must use one of the 8-bit or 16-bit dividers. Use the \ref group_sysclk 
 106:Generated_Source\PSoC6\pdl\drivers/peripheral/scb/cy_scb_i2c.h **** * driver API to do this.
 107:Generated_Source\PSoC6\pdl\drivers/peripheral/scb/cy_scb_i2c.h **** *
 108:Generated_Source\PSoC6\pdl\drivers/peripheral/scb/cy_scb_i2c.h **** * \snippet SCB_CompDatasheet_sut_01_revA.cydsn\i2c_snippets.c I2C_CFG_ASSIGN_CLOCK
 109:Generated_Source\PSoC6\pdl\drivers/peripheral/scb/cy_scb_i2c.h **** *
 110:Generated_Source\PSoC6\pdl\drivers/peripheral/scb/cy_scb_i2c.h **** ********************************************************************************
 111:Generated_Source\PSoC6\pdl\drivers/peripheral/scb/cy_scb_i2c.h **** * \subsection group_scb_i2c_data_rate Configure Data Rate
 112:Generated_Source\PSoC6\pdl\drivers/peripheral/scb/cy_scb_i2c.h **** ********************************************************************************
 113:Generated_Source\PSoC6\pdl\drivers/peripheral/scb/cy_scb_i2c.h **** * To get I2C slave operation with the desired data rate, the clk_scb must be
 114:Generated_Source\PSoC6\pdl\drivers/peripheral/scb/cy_scb_i2c.h **** * fast enough to provide sufficient oversampling. Use the
 115:Generated_Source\PSoC6\pdl\drivers/peripheral/scb/cy_scb_i2c.h **** * \ref group_sysclk driver API to do this.
 116:Generated_Source\PSoC6\pdl\drivers/peripheral/scb/cy_scb_i2c.h **** *
 117:Generated_Source\PSoC6\pdl\drivers/peripheral/scb/cy_scb_i2c.h **** * \snippet SCB_CompDatasheet_sut_01_revA.cydsn\i2c_snippets.c I2C_CFG_DATA_RATE_SLAVE
 118:Generated_Source\PSoC6\pdl\drivers/peripheral/scb/cy_scb_i2c.h **** *
 119:Generated_Source\PSoC6\pdl\drivers/peripheral/scb/cy_scb_i2c.h **** * To get I2C master operation with the desired data rate, the source clock
ARM GAS  C:\Users\guill\AppData\Local\Temp\cclz5xua.s 			page 23


 120:Generated_Source\PSoC6\pdl\drivers/peripheral/scb/cy_scb_i2c.h **** * frequency and SCL low and high phase duration must be configured. Use the
 121:Generated_Source\PSoC6\pdl\drivers/peripheral/scb/cy_scb_i2c.h **** * \ref group_sysclk driver API to configure source clock frequency. Then call
 122:Generated_Source\PSoC6\pdl\drivers/peripheral/scb/cy_scb_i2c.h **** * \ref Cy_SCB_I2C_SetDataRate to set the SCL low, high phase duration and 
 123:Generated_Source\PSoC6\pdl\drivers/peripheral/scb/cy_scb_i2c.h **** * digital filter. This function sets SCL low and high phase settings based on 
 124:Generated_Source\PSoC6\pdl\drivers/peripheral/scb/cy_scb_i2c.h **** * source clock frequency.
 125:Generated_Source\PSoC6\pdl\drivers/peripheral/scb/cy_scb_i2c.h **** *
 126:Generated_Source\PSoC6\pdl\drivers/peripheral/scb/cy_scb_i2c.h **** * \snippet SCB_CompDatasheet_sut_01_revA.cydsn\i2c_snippets.c I2C_CFG_DATA_RATE_MASTER
 127:Generated_Source\PSoC6\pdl\drivers/peripheral/scb/cy_scb_i2c.h **** *
 128:Generated_Source\PSoC6\pdl\drivers/peripheral/scb/cy_scb_i2c.h **** * Alternatively, the low, high phase and digital filter can be set directly 
 129:Generated_Source\PSoC6\pdl\drivers/peripheral/scb/cy_scb_i2c.h **** * using configuration structure \ref cy_stc_scb_i2c_config_t fields 
 130:Generated_Source\PSoC6\pdl\drivers/peripheral/scb/cy_scb_i2c.h **** * lowPhaseDutyCycle, highPhaseDutyCycle and enableDigitalFilter appropriately.\n
 131:Generated_Source\PSoC6\pdl\drivers/peripheral/scb/cy_scb_i2c.h **** * <b>Refer to the technical reference manual (TRM) section I2C sub-section
 132:Generated_Source\PSoC6\pdl\drivers/peripheral/scb/cy_scb_i2c.h **** * Oversampling and Bit Rate to get information how to configure I2C to run with
 133:Generated_Source\PSoC6\pdl\drivers/peripheral/scb/cy_scb_i2c.h **** * the desired data rate.</b>
 134:Generated_Source\PSoC6\pdl\drivers/peripheral/scb/cy_scb_i2c.h **** *
 135:Generated_Source\PSoC6\pdl\drivers/peripheral/scb/cy_scb_i2c.h **** * \note
 136:Generated_Source\PSoC6\pdl\drivers/peripheral/scb/cy_scb_i2c.h **** * For I2C slave, the analog filter is used for all supported data rates. \n
 137:Generated_Source\PSoC6\pdl\drivers/peripheral/scb/cy_scb_i2c.h **** * For I2C master, the analog filter is used for Standard and Fast modes and the
 138:Generated_Source\PSoC6\pdl\drivers/peripheral/scb/cy_scb_i2c.h **** * digital filter for Fast Plus mode.
 139:Generated_Source\PSoC6\pdl\drivers/peripheral/scb/cy_scb_i2c.h **** *
 140:Generated_Source\PSoC6\pdl\drivers/peripheral/scb/cy_scb_i2c.h **** ********************************************************************************
 141:Generated_Source\PSoC6\pdl\drivers/peripheral/scb/cy_scb_i2c.h **** * \subsection group_scb_i2c_intr Configure Interrupt
 142:Generated_Source\PSoC6\pdl\drivers/peripheral/scb/cy_scb_i2c.h **** ********************************************************************************
 143:Generated_Source\PSoC6\pdl\drivers/peripheral/scb/cy_scb_i2c.h **** * The interrupt is mandatory for I2C operation. The exception is the when only  
 144:Generated_Source\PSoC6\pdl\drivers/peripheral/scb/cy_scb_i2c.h **** * the \ref group_scb_i2c_master_low_level_functions functions are used.
 145:Generated_Source\PSoC6\pdl\drivers/peripheral/scb/cy_scb_i2c.h **** * The driver provides three interrupt functions: \ref Cy_SCB_I2C_Interrupt,
 146:Generated_Source\PSoC6\pdl\drivers/peripheral/scb/cy_scb_i2c.h **** * \ref Cy_SCB_I2C_SlaveInterrupt, and \ref Cy_SCB_I2C_MasterInterrupt. One of
 147:Generated_Source\PSoC6\pdl\drivers/peripheral/scb/cy_scb_i2c.h **** * these functions must be called in the interrupt handler for the selected SCB
 148:Generated_Source\PSoC6\pdl\drivers/peripheral/scb/cy_scb_i2c.h **** * instance. Call \ref Cy_SCB_I2C_SlaveInterrupt when I2C is configured to
 149:Generated_Source\PSoC6\pdl\drivers/peripheral/scb/cy_scb_i2c.h **** * operate as a slave, \ref Cy_SCB_I2C_MasterInterrupt when I2C is configured
 150:Generated_Source\PSoC6\pdl\drivers/peripheral/scb/cy_scb_i2c.h **** * to operate as a master and \ref Cy_SCB_I2C_Interrupt when I2C is configured
 151:Generated_Source\PSoC6\pdl\drivers/peripheral/scb/cy_scb_i2c.h **** * to operate as master and slave. Using the slave- or master-specific interrupt
 152:Generated_Source\PSoC6\pdl\drivers/peripheral/scb/cy_scb_i2c.h **** * function allows reducing the flash consumed by the I2C driver. Also this
 153:Generated_Source\PSoC6\pdl\drivers/peripheral/scb/cy_scb_i2c.h **** * interrupt must be enabled in the NVIC otherwise it will not work.
 154:Generated_Source\PSoC6\pdl\drivers/peripheral/scb/cy_scb_i2c.h **** * \note
 155:Generated_Source\PSoC6\pdl\drivers/peripheral/scb/cy_scb_i2c.h **** * The I2C driver documentation refers to the \ref Cy_SCB_I2C_Interrupt function
 156:Generated_Source\PSoC6\pdl\drivers/peripheral/scb/cy_scb_i2c.h **** * when interrupt processing is mandatory for the operation. This is done to
 157:Generated_Source\PSoC6\pdl\drivers/peripheral/scb/cy_scb_i2c.h **** * simplify the readability of the driver's documentation. The application should
 158:Generated_Source\PSoC6\pdl\drivers/peripheral/scb/cy_scb_i2c.h **** *  call the slave- or master-specific interrupt functions \ref Cy_SCB_I2C_SlaveInterrupt
 159:Generated_Source\PSoC6\pdl\drivers/peripheral/scb/cy_scb_i2c.h **** * or \ref Cy_SCB_I2C_MasterInterrupt, when appropriate.
 160:Generated_Source\PSoC6\pdl\drivers/peripheral/scb/cy_scb_i2c.h **** *
 161:Generated_Source\PSoC6\pdl\drivers/peripheral/scb/cy_scb_i2c.h **** * \snippet SCB_CompDatasheet_sut_01_revA.cydsn\i2c_snippets.c I2C_INTR_A
 162:Generated_Source\PSoC6\pdl\drivers/peripheral/scb/cy_scb_i2c.h **** * \snippet SCB_CompDatasheet_sut_01_revA.cydsn\i2c_snippets.c I2C_INTR_B
 163:Generated_Source\PSoC6\pdl\drivers/peripheral/scb/cy_scb_i2c.h **** *
 164:Generated_Source\PSoC6\pdl\drivers/peripheral/scb/cy_scb_i2c.h **** ********************************************************************************
 165:Generated_Source\PSoC6\pdl\drivers/peripheral/scb/cy_scb_i2c.h **** * \subsection group_scb_i2c_enable Enable I2C
 166:Generated_Source\PSoC6\pdl\drivers/peripheral/scb/cy_scb_i2c.h **** ********************************************************************************
 167:Generated_Source\PSoC6\pdl\drivers/peripheral/scb/cy_scb_i2c.h **** * Finally, enable the I2C operation by calling \ref Cy_SCB_I2C_Enable. Then I2C
 168:Generated_Source\PSoC6\pdl\drivers/peripheral/scb/cy_scb_i2c.h **** * slave starts respond to the assigned address and I2C master ready to execute
 169:Generated_Source\PSoC6\pdl\drivers/peripheral/scb/cy_scb_i2c.h **** * transfers.
 170:Generated_Source\PSoC6\pdl\drivers/peripheral/scb/cy_scb_i2c.h **** *
 171:Generated_Source\PSoC6\pdl\drivers/peripheral/scb/cy_scb_i2c.h **** * \snippet SCB_CompDatasheet_sut_01_revA.cydsn\i2c_snippets.c I2C_ENABLE
 172:Generated_Source\PSoC6\pdl\drivers/peripheral/scb/cy_scb_i2c.h **** *
 173:Generated_Source\PSoC6\pdl\drivers/peripheral/scb/cy_scb_i2c.h **** * \section group_scb_i2c_use_cases Common Use Cases
 174:Generated_Source\PSoC6\pdl\drivers/peripheral/scb/cy_scb_i2c.h **** *
 175:Generated_Source\PSoC6\pdl\drivers/peripheral/scb/cy_scb_i2c.h **** ********************************************************************************
 176:Generated_Source\PSoC6\pdl\drivers/peripheral/scb/cy_scb_i2c.h **** * \subsection group_scb_i2c_master_mode Master Operation
ARM GAS  C:\Users\guill\AppData\Local\Temp\cclz5xua.s 			page 24


 177:Generated_Source\PSoC6\pdl\drivers/peripheral/scb/cy_scb_i2c.h **** ********************************************************************************
 178:Generated_Source\PSoC6\pdl\drivers/peripheral/scb/cy_scb_i2c.h **** * The master API is divided into two categories:
 179:Generated_Source\PSoC6\pdl\drivers/peripheral/scb/cy_scb_i2c.h **** * \ref group_scb_i2c_master_high_level_functions and
 180:Generated_Source\PSoC6\pdl\drivers/peripheral/scb/cy_scb_i2c.h **** * \ref group_scb_i2c_master_low_level_functions. Therefore, there are two
 181:Generated_Source\PSoC6\pdl\drivers/peripheral/scb/cy_scb_i2c.h **** * methods for initiating I2C master transactions using either <b>Low-Level or
 182:Generated_Source\PSoC6\pdl\drivers/peripheral/scb/cy_scb_i2c.h **** * High-Level</b> API. These two methods are described below. Only one method
 183:Generated_Source\PSoC6\pdl\drivers/peripheral/scb/cy_scb_i2c.h **** * should be used at a time. <b>They should not be mixed.</b>
 184:Generated_Source\PSoC6\pdl\drivers/peripheral/scb/cy_scb_i2c.h **** *
 185:Generated_Source\PSoC6\pdl\drivers/peripheral/scb/cy_scb_i2c.h **** ********************************************************************************
 186:Generated_Source\PSoC6\pdl\drivers/peripheral/scb/cy_scb_i2c.h **** * \subsubsection  group_scb_i2c_master_hl Use High-Level Functions
 187:Generated_Source\PSoC6\pdl\drivers/peripheral/scb/cy_scb_i2c.h **** ********************************************************************************
 188:Generated_Source\PSoC6\pdl\drivers/peripheral/scb/cy_scb_i2c.h **** *  Call \ref Cy_SCB_I2C_MasterRead or \ref Cy_SCB_I2C_MasterWrite to
 189:Generated_Source\PSoC6\pdl\drivers/peripheral/scb/cy_scb_i2c.h **** * communicate with the slave. These functions do not block and only start a
 190:Generated_Source\PSoC6\pdl\drivers/peripheral/scb/cy_scb_i2c.h **** * transaction. After a transaction starts, the \ref Cy_SCB_I2C_Interrupt
 191:Generated_Source\PSoC6\pdl\drivers/peripheral/scb/cy_scb_i2c.h **** * handles further data transaction until its completion (successfully or 
 192:Generated_Source\PSoC6\pdl\drivers/peripheral/scb/cy_scb_i2c.h **** * with error occurring). To monitor the transaction,
 193:Generated_Source\PSoC6\pdl\drivers/peripheral/scb/cy_scb_i2c.h **** * use \ref Cy_SCB_I2C_MasterGetStatus or register callback function using
 194:Generated_Source\PSoC6\pdl\drivers/peripheral/scb/cy_scb_i2c.h **** * \ref Cy_SCB_I2C_RegisterEventCallback to be notified about
 195:Generated_Source\PSoC6\pdl\drivers/peripheral/scb/cy_scb_i2c.h **** * \ref group_scb_i2c_macros_callback_events.
 196:Generated_Source\PSoC6\pdl\drivers/peripheral/scb/cy_scb_i2c.h **** *
 197:Generated_Source\PSoC6\pdl\drivers/peripheral/scb/cy_scb_i2c.h **** * \snippet SCB_CompDatasheet_sut_01_revA.cydsn\i2c_snippets.c I2C_MASTER_WRITE_READ_INT
 198:Generated_Source\PSoC6\pdl\drivers/peripheral/scb/cy_scb_i2c.h **** *
 199:Generated_Source\PSoC6\pdl\drivers/peripheral/scb/cy_scb_i2c.h **** ********************************************************************************
 200:Generated_Source\PSoC6\pdl\drivers/peripheral/scb/cy_scb_i2c.h **** * \subsubsection group_scb_i2c_master_ll Use Low-Level Functions
 201:Generated_Source\PSoC6\pdl\drivers/peripheral/scb/cy_scb_i2c.h **** ********************************************************************************
 202:Generated_Source\PSoC6\pdl\drivers/peripheral/scb/cy_scb_i2c.h **** * Call \ref Cy_SCB_I2C_MasterSendStart to generate a start, send an address
 203:Generated_Source\PSoC6\pdl\drivers/peripheral/scb/cy_scb_i2c.h **** * with the Read/Write direction bit, and receive acknowledgment. After the
 204:Generated_Source\PSoC6\pdl\drivers/peripheral/scb/cy_scb_i2c.h **** * address is ACKed by the slave, the transaction can be continued by calling
 205:Generated_Source\PSoC6\pdl\drivers/peripheral/scb/cy_scb_i2c.h **** * \ref Cy_SCB_I2C_MasterReadByte or \ref Cy_SCB_I2C_MasterWriteByte depending
 206:Generated_Source\PSoC6\pdl\drivers/peripheral/scb/cy_scb_i2c.h **** * on its direction. These functions handle one byte per call. Therefore,
 207:Generated_Source\PSoC6\pdl\drivers/peripheral/scb/cy_scb_i2c.h **** * they should be called for each byte in the transaction. Note that for the
 208:Generated_Source\PSoC6\pdl\drivers/peripheral/scb/cy_scb_i2c.h **** * Read transaction, the last byte must be NAKed. To complete the current
 209:Generated_Source\PSoC6\pdl\drivers/peripheral/scb/cy_scb_i2c.h **** * transaction, call \ref Cy_SCB_I2C_MasterSendStop or call
 210:Generated_Source\PSoC6\pdl\drivers/peripheral/scb/cy_scb_i2c.h **** * \ref Cy_SCB_I2C_MasterSendReStart to complete the current transaction and
 211:Generated_Source\PSoC6\pdl\drivers/peripheral/scb/cy_scb_i2c.h **** * start a new one. Typically, do a restart to change the transaction
 212:Generated_Source\PSoC6\pdl\drivers/peripheral/scb/cy_scb_i2c.h **** * direction without releasing the bus from the master control.
 213:Generated_Source\PSoC6\pdl\drivers/peripheral/scb/cy_scb_i2c.h **** * The Low-Level functions are blocking and do not require calling
 214:Generated_Source\PSoC6\pdl\drivers/peripheral/scb/cy_scb_i2c.h **** * \ref Cy_SCB_I2C_Interrupt inside the interrupt handler. Using these
 215:Generated_Source\PSoC6\pdl\drivers/peripheral/scb/cy_scb_i2c.h **** * functions requires extensive knowledge of the I2C protocol to execute
 216:Generated_Source\PSoC6\pdl\drivers/peripheral/scb/cy_scb_i2c.h **** * transactions correctly.
 217:Generated_Source\PSoC6\pdl\drivers/peripheral/scb/cy_scb_i2c.h **** *
 218:Generated_Source\PSoC6\pdl\drivers/peripheral/scb/cy_scb_i2c.h **** * <b>Master Write Operation</b>
 219:Generated_Source\PSoC6\pdl\drivers/peripheral/scb/cy_scb_i2c.h **** * \snippet SCB_CompDatasheet_sut_01_revA.cydsn\i2c_snippets.c I2C_MASTER_WRITE_MANUAL
 220:Generated_Source\PSoC6\pdl\drivers/peripheral/scb/cy_scb_i2c.h **** *
 221:Generated_Source\PSoC6\pdl\drivers/peripheral/scb/cy_scb_i2c.h **** * <b>Master Read Operation</b>
 222:Generated_Source\PSoC6\pdl\drivers/peripheral/scb/cy_scb_i2c.h **** * \snippet SCB_CompDatasheet_sut_01_revA.cydsn\i2c_snippets.c I2C_MASTER_READ_MANUAL
 223:Generated_Source\PSoC6\pdl\drivers/peripheral/scb/cy_scb_i2c.h **** *
 224:Generated_Source\PSoC6\pdl\drivers/peripheral/scb/cy_scb_i2c.h **** ********************************************************************************
 225:Generated_Source\PSoC6\pdl\drivers/peripheral/scb/cy_scb_i2c.h **** * \subsection group_scb_i2c_slave Slave Operation
 226:Generated_Source\PSoC6\pdl\drivers/peripheral/scb/cy_scb_i2c.h **** ********************************************************************************
 227:Generated_Source\PSoC6\pdl\drivers/peripheral/scb/cy_scb_i2c.h **** * Slave operation requires the \ref Cy_SCB_I2C_Interrupt be
 228:Generated_Source\PSoC6\pdl\drivers/peripheral/scb/cy_scb_i2c.h **** * called inside the interrupt handler. The read and write buffers must
 229:Generated_Source\PSoC6\pdl\drivers/peripheral/scb/cy_scb_i2c.h **** * be provided for the slave to enable communication with the master. Use
 230:Generated_Source\PSoC6\pdl\drivers/peripheral/scb/cy_scb_i2c.h **** * \ref Cy_SCB_I2C_SlaveConfigReadBuf and \ref Cy_SCB_I2C_SlaveConfigWriteBuf
 231:Generated_Source\PSoC6\pdl\drivers/peripheral/scb/cy_scb_i2c.h **** * for this purpose. Note that after transaction completion the buffer must be
 232:Generated_Source\PSoC6\pdl\drivers/peripheral/scb/cy_scb_i2c.h **** * configured again. Otherwise, the same buffer is used starting from the point
 233:Generated_Source\PSoC6\pdl\drivers/peripheral/scb/cy_scb_i2c.h **** * where the master stopped a previous transaction.
ARM GAS  C:\Users\guill\AppData\Local\Temp\cclz5xua.s 			page 25


 234:Generated_Source\PSoC6\pdl\drivers/peripheral/scb/cy_scb_i2c.h **** * For example: The read buffer is configured to be 10 bytes and the master reads
 235:Generated_Source\PSoC6\pdl\drivers/peripheral/scb/cy_scb_i2c.h **** * 8 bytes. If the read buffer is not configured again, the next master read
 236:Generated_Source\PSoC6\pdl\drivers/peripheral/scb/cy_scb_i2c.h **** * will start from the 9th byte.
 237:Generated_Source\PSoC6\pdl\drivers/peripheral/scb/cy_scb_i2c.h **** * To monitor the transaction status, use \ref Cy_SCB_I2C_SlaveGetStatus or
 238:Generated_Source\PSoC6\pdl\drivers/peripheral/scb/cy_scb_i2c.h **** * use \ref Cy_SCB_I2C_RegisterEventCallback to register a callback function
 239:Generated_Source\PSoC6\pdl\drivers/peripheral/scb/cy_scb_i2c.h **** * to be notified about \ref group_scb_i2c_macros_callback_events.
 240:Generated_Source\PSoC6\pdl\drivers/peripheral/scb/cy_scb_i2c.h **** *
 241:Generated_Source\PSoC6\pdl\drivers/peripheral/scb/cy_scb_i2c.h **** * <b>Get Slave Events Notification</b>
 242:Generated_Source\PSoC6\pdl\drivers/peripheral/scb/cy_scb_i2c.h **** * \snippet SCB_CompDatasheet_sut_01_revA.cydsn\i2c_snippets.c I2C_SLAVE_REG_CALLBACK
 243:Generated_Source\PSoC6\pdl\drivers/peripheral/scb/cy_scb_i2c.h **** * \snippet SCB_CompDatasheet_sut_01_revA.cydsn\i2c_snippets.c I2C_SLAVE_NOTIFICATION
 244:Generated_Source\PSoC6\pdl\drivers/peripheral/scb/cy_scb_i2c.h **** *
 245:Generated_Source\PSoC6\pdl\drivers/peripheral/scb/cy_scb_i2c.h **** * <b>Polling Slave Completion Events</b>
 246:Generated_Source\PSoC6\pdl\drivers/peripheral/scb/cy_scb_i2c.h **** * \snippet SCB_CompDatasheet_sut_01_revA.cydsn\i2c_snippets.c I2C_SLAVE_POLLING
 247:Generated_Source\PSoC6\pdl\drivers/peripheral/scb/cy_scb_i2c.h **** *
 248:Generated_Source\PSoC6\pdl\drivers/peripheral/scb/cy_scb_i2c.h **** * \note
 249:Generated_Source\PSoC6\pdl\drivers/peripheral/scb/cy_scb_i2c.h **** * All slave API (except \ref Cy_SCB_I2C_SlaveAbortRead and
 250:Generated_Source\PSoC6\pdl\drivers/peripheral/scb/cy_scb_i2c.h **** * \ref Cy_SCB_I2C_SlaveAbortWrite) <b>are not interrupt-protected</b> and to
 251:Generated_Source\PSoC6\pdl\drivers/peripheral/scb/cy_scb_i2c.h **** * prevent a race condition, they should be protected from the I2C interruption
 252:Generated_Source\PSoC6\pdl\drivers/peripheral/scb/cy_scb_i2c.h **** * in the place where they are called. The code snippet Polling Slave 
 253:Generated_Source\PSoC6\pdl\drivers/peripheral/scb/cy_scb_i2c.h **** * Completion Events above shows how to prevent a race condition when detect 
 254:Generated_Source\PSoC6\pdl\drivers/peripheral/scb/cy_scb_i2c.h **** * transfer completion and update I2C slave write buffer. 
 255:Generated_Source\PSoC6\pdl\drivers/peripheral/scb/cy_scb_i2c.h **** * The simple example of race condition is: application updates slave read 
 256:Generated_Source\PSoC6\pdl\drivers/peripheral/scb/cy_scb_i2c.h **** * buffer the I2C master starts read transfer. The I2C interrupts read buffer 
 257:Generated_Source\PSoC6\pdl\drivers/peripheral/scb/cy_scb_i2c.h **** * update and I2C interrupt loads current read buffer content in the TX FIFO . 
 258:Generated_Source\PSoC6\pdl\drivers/peripheral/scb/cy_scb_i2c.h **** * After I2C interrupt returns the application updates remaining part of the read 
 259:Generated_Source\PSoC6\pdl\drivers/peripheral/scb/cy_scb_i2c.h **** * buffer. As a result the mater read partly updated buffer.
 260:Generated_Source\PSoC6\pdl\drivers/peripheral/scb/cy_scb_i2c.h **** *
 261:Generated_Source\PSoC6\pdl\drivers/peripheral/scb/cy_scb_i2c.h **** ********************************************************************************
 262:Generated_Source\PSoC6\pdl\drivers/peripheral/scb/cy_scb_i2c.h **** * \section group_scb_i2c_lp Low Power Support
 263:Generated_Source\PSoC6\pdl\drivers/peripheral/scb/cy_scb_i2c.h **** ********************************************************************************
 264:Generated_Source\PSoC6\pdl\drivers/peripheral/scb/cy_scb_i2c.h **** * The I2C driver provides callback functions to handle power mode transition.
 265:Generated_Source\PSoC6\pdl\drivers/peripheral/scb/cy_scb_i2c.h **** * The callback \ref Cy_SCB_I2C_DeepSleepCallback must be called
 266:Generated_Source\PSoC6\pdl\drivers/peripheral/scb/cy_scb_i2c.h **** * during execution of \ref Cy_SysPm_CpuEnterDeepSleep \ref Cy_SCB_I2C_HibernateCallback
 267:Generated_Source\PSoC6\pdl\drivers/peripheral/scb/cy_scb_i2c.h **** * must be called during execution of \ref Cy_SysPm_SystemEnterHibernate. To trigger the
 268:Generated_Source\PSoC6\pdl\drivers/peripheral/scb/cy_scb_i2c.h **** * callback execution, the callback must be registered before calling the
 269:Generated_Source\PSoC6\pdl\drivers/peripheral/scb/cy_scb_i2c.h **** * power mode transition function. Refer to \ref group_syspm driver for more
 270:Generated_Source\PSoC6\pdl\drivers/peripheral/scb/cy_scb_i2c.h **** * information about power mode transitions and callback registration.
 271:Generated_Source\PSoC6\pdl\drivers/peripheral/scb/cy_scb_i2c.h **** *
 272:Generated_Source\PSoC6\pdl\drivers/peripheral/scb/cy_scb_i2c.h **** * \note
 273:Generated_Source\PSoC6\pdl\drivers/peripheral/scb/cy_scb_i2c.h **** * Only applicable for <b>rev-08 of the CY8CKIT-062-BLE</b>.
 274:Generated_Source\PSoC6\pdl\drivers/peripheral/scb/cy_scb_i2c.h **** * For proper operation, when the I2C slave is configured to be a wakeup
 275:Generated_Source\PSoC6\pdl\drivers/peripheral/scb/cy_scb_i2c.h **** * source from Deep Sleep mode, the \ref Cy_SCB_I2C_DeepSleepCallback must be
 276:Generated_Source\PSoC6\pdl\drivers/peripheral/scb/cy_scb_i2c.h **** * copied and modified. Refer to the function description to get the details.
 277:Generated_Source\PSoC6\pdl\drivers/peripheral/scb/cy_scb_i2c.h **** *
 278:Generated_Source\PSoC6\pdl\drivers/peripheral/scb/cy_scb_i2c.h **** ********************************************************************************
 279:Generated_Source\PSoC6\pdl\drivers/peripheral/scb/cy_scb_i2c.h **** * \section group_scb_i2c_more_information More Information
 280:Generated_Source\PSoC6\pdl\drivers/peripheral/scb/cy_scb_i2c.h **** ********************************************************************************
 281:Generated_Source\PSoC6\pdl\drivers/peripheral/scb/cy_scb_i2c.h **** * For more information on the SCB peripheral, refer to the technical reference
 282:Generated_Source\PSoC6\pdl\drivers/peripheral/scb/cy_scb_i2c.h **** * manual (TRM).
 283:Generated_Source\PSoC6\pdl\drivers/peripheral/scb/cy_scb_i2c.h **** *
 284:Generated_Source\PSoC6\pdl\drivers/peripheral/scb/cy_scb_i2c.h **** ********************************************************************************
 285:Generated_Source\PSoC6\pdl\drivers/peripheral/scb/cy_scb_i2c.h **** * \section group_scb_i2c_MISRA MISRA-C Compliance
 286:Generated_Source\PSoC6\pdl\drivers/peripheral/scb/cy_scb_i2c.h **** ********************************************************************************
 287:Generated_Source\PSoC6\pdl\drivers/peripheral/scb/cy_scb_i2c.h **** * <table class="doxtable">
 288:Generated_Source\PSoC6\pdl\drivers/peripheral/scb/cy_scb_i2c.h **** *   <tr>
 289:Generated_Source\PSoC6\pdl\drivers/peripheral/scb/cy_scb_i2c.h **** *     <th>MISRA Rule</th>
 290:Generated_Source\PSoC6\pdl\drivers/peripheral/scb/cy_scb_i2c.h **** *     <th>Rule Class (Required/Advisory)</th>
ARM GAS  C:\Users\guill\AppData\Local\Temp\cclz5xua.s 			page 26


 291:Generated_Source\PSoC6\pdl\drivers/peripheral/scb/cy_scb_i2c.h **** *     <th>Rule Description</th>
 292:Generated_Source\PSoC6\pdl\drivers/peripheral/scb/cy_scb_i2c.h **** *     <th>Description of Deviation(s)</th>
 293:Generated_Source\PSoC6\pdl\drivers/peripheral/scb/cy_scb_i2c.h **** *   </tr>
 294:Generated_Source\PSoC6\pdl\drivers/peripheral/scb/cy_scb_i2c.h **** *   <tr>
 295:Generated_Source\PSoC6\pdl\drivers/peripheral/scb/cy_scb_i2c.h **** *     <td>11.4</td>
 296:Generated_Source\PSoC6\pdl\drivers/peripheral/scb/cy_scb_i2c.h **** *     <td>A</td>
 297:Generated_Source\PSoC6\pdl\drivers/peripheral/scb/cy_scb_i2c.h **** *     <td>A cast should not be performed between a pointer to object type and
 298:Generated_Source\PSoC6\pdl\drivers/peripheral/scb/cy_scb_i2c.h **** *         a different pointer to object type.</td>
 299:Generated_Source\PSoC6\pdl\drivers/peripheral/scb/cy_scb_i2c.h **** *     <td>The functions \ref Cy_SCB_I2C_DeepSleepCallback and
 300:Generated_Source\PSoC6\pdl\drivers/peripheral/scb/cy_scb_i2c.h **** *         \ref Cy_SCB_I2C_HibernateCallback are callback of
 301:Generated_Source\PSoC6\pdl\drivers/peripheral/scb/cy_scb_i2c.h **** *         \ref cy_en_syspm_status_t type. The cast operation safety in these
 302:Generated_Source\PSoC6\pdl\drivers/peripheral/scb/cy_scb_i2c.h **** *         functions becomes the user's responsibility because pointers are
 303:Generated_Source\PSoC6\pdl\drivers/peripheral/scb/cy_scb_i2c.h **** *         initialized when callback is registered in SysPm driver.</td>
 304:Generated_Source\PSoC6\pdl\drivers/peripheral/scb/cy_scb_i2c.h **** *   </tr>
 305:Generated_Source\PSoC6\pdl\drivers/peripheral/scb/cy_scb_i2c.h **** *   <tr>
 306:Generated_Source\PSoC6\pdl\drivers/peripheral/scb/cy_scb_i2c.h **** *     <td>14.1</td>
 307:Generated_Source\PSoC6\pdl\drivers/peripheral/scb/cy_scb_i2c.h **** *     <td>R</td>
 308:Generated_Source\PSoC6\pdl\drivers/peripheral/scb/cy_scb_i2c.h **** *     <td>There shall be no unreachable code.</td>
 309:Generated_Source\PSoC6\pdl\drivers/peripheral/scb/cy_scb_i2c.h **** *     <td>The SCB block parameters can be a constant false or true depends on
 310:Generated_Source\PSoC6\pdl\drivers/peripheral/scb/cy_scb_i2c.h **** *         the selected device and cause code to be unreachable.</td>
 311:Generated_Source\PSoC6\pdl\drivers/peripheral/scb/cy_scb_i2c.h **** *   </tr>
 312:Generated_Source\PSoC6\pdl\drivers/peripheral/scb/cy_scb_i2c.h **** *   <tr>
 313:Generated_Source\PSoC6\pdl\drivers/peripheral/scb/cy_scb_i2c.h **** *     <td>13.7</td>
 314:Generated_Source\PSoC6\pdl\drivers/peripheral/scb/cy_scb_i2c.h **** *     <td>R</td>
 315:Generated_Source\PSoC6\pdl\drivers/peripheral/scb/cy_scb_i2c.h **** *     <td>Boolean operations whose results are invariant shall not be
 316:Generated_Source\PSoC6\pdl\drivers/peripheral/scb/cy_scb_i2c.h **** *         permitted.</td>
 317:Generated_Source\PSoC6\pdl\drivers/peripheral/scb/cy_scb_i2c.h **** *     <td>
 318:Generated_Source\PSoC6\pdl\drivers/peripheral/scb/cy_scb_i2c.h **** *         * The SCB block parameters can be a constant false or true depends on
 319:Generated_Source\PSoC6\pdl\drivers/peripheral/scb/cy_scb_i2c.h **** *         the selected device and cause this violation.
 320:Generated_Source\PSoC6\pdl\drivers/peripheral/scb/cy_scb_i2c.h **** *         * The same condition check is executed before and after callback is
 321:Generated_Source\PSoC6\pdl\drivers/peripheral/scb/cy_scb_i2c.h **** *         called because after the callback returns, the condition might be not
 322:Generated_Source\PSoC6\pdl\drivers/peripheral/scb/cy_scb_i2c.h **** *         true any more.</td>
 323:Generated_Source\PSoC6\pdl\drivers/peripheral/scb/cy_scb_i2c.h **** *   </tr>
 324:Generated_Source\PSoC6\pdl\drivers/peripheral/scb/cy_scb_i2c.h **** *   <tr>
 325:Generated_Source\PSoC6\pdl\drivers/peripheral/scb/cy_scb_i2c.h **** *     <td>14.2</td>
 326:Generated_Source\PSoC6\pdl\drivers/peripheral/scb/cy_scb_i2c.h **** *     <td>R</td>
 327:Generated_Source\PSoC6\pdl\drivers/peripheral/scb/cy_scb_i2c.h **** *     <td>All non-null statements shall either: a) have at least one side-effect
 328:Generated_Source\PSoC6\pdl\drivers/peripheral/scb/cy_scb_i2c.h **** *         however executed, or b) cause control flow to change.</td>
 329:Generated_Source\PSoC6\pdl\drivers/peripheral/scb/cy_scb_i2c.h **** *     <td>The unused function parameters are cast to void. This statement
 330:Generated_Source\PSoC6\pdl\drivers/peripheral/scb/cy_scb_i2c.h **** *         has no side-effect and is used to suppress a compiler warning.</td>
 331:Generated_Source\PSoC6\pdl\drivers/peripheral/scb/cy_scb_i2c.h **** *   </tr>
 332:Generated_Source\PSoC6\pdl\drivers/peripheral/scb/cy_scb_i2c.h **** *   <tr>
 333:Generated_Source\PSoC6\pdl\drivers/peripheral/scb/cy_scb_i2c.h **** *     <td>14.7</td>
 334:Generated_Source\PSoC6\pdl\drivers/peripheral/scb/cy_scb_i2c.h **** *     <td>R</td>
 335:Generated_Source\PSoC6\pdl\drivers/peripheral/scb/cy_scb_i2c.h **** *     <td>A function shall have a single point of exit at the end of the
 336:Generated_Source\PSoC6\pdl\drivers/peripheral/scb/cy_scb_i2c.h **** *         function.</td>
 337:Generated_Source\PSoC6\pdl\drivers/peripheral/scb/cy_scb_i2c.h **** *     <td>The functions can return from several points. This is done to improve
 338:Generated_Source\PSoC6\pdl\drivers/peripheral/scb/cy_scb_i2c.h **** *         code clarity when returning error status code if input parameters
 339:Generated_Source\PSoC6\pdl\drivers/peripheral/scb/cy_scb_i2c.h **** *         validation fails.</td>
 340:Generated_Source\PSoC6\pdl\drivers/peripheral/scb/cy_scb_i2c.h **** *   </tr>
 341:Generated_Source\PSoC6\pdl\drivers/peripheral/scb/cy_scb_i2c.h **** * </table>
 342:Generated_Source\PSoC6\pdl\drivers/peripheral/scb/cy_scb_i2c.h **** *
 343:Generated_Source\PSoC6\pdl\drivers/peripheral/scb/cy_scb_i2c.h **** * \section group_scb_i2c_changelog Changelog
 344:Generated_Source\PSoC6\pdl\drivers/peripheral/scb/cy_scb_i2c.h **** * <table class="doxtable">
 345:Generated_Source\PSoC6\pdl\drivers/peripheral/scb/cy_scb_i2c.h **** *   <tr><th>Version</th><th>Changes</th><th>Reason for Change</th></tr>
 346:Generated_Source\PSoC6\pdl\drivers/peripheral/scb/cy_scb_i2c.h **** *   <tr>
 347:Generated_Source\PSoC6\pdl\drivers/peripheral/scb/cy_scb_i2c.h **** *     <td rowspan="4"> 2.20</td>
ARM GAS  C:\Users\guill\AppData\Local\Temp\cclz5xua.s 			page 27


 348:Generated_Source\PSoC6\pdl\drivers/peripheral/scb/cy_scb_i2c.h **** *     <td>Flattened the organization of the driver source code into the single 
 349:Generated_Source\PSoC6\pdl\drivers/peripheral/scb/cy_scb_i2c.h **** *         source directory and the single include directory.
 350:Generated_Source\PSoC6\pdl\drivers/peripheral/scb/cy_scb_i2c.h **** *     </td>
 351:Generated_Source\PSoC6\pdl\drivers/peripheral/scb/cy_scb_i2c.h **** *     <td>Driver library directory-structure simplification.</td>
 352:Generated_Source\PSoC6\pdl\drivers/peripheral/scb/cy_scb_i2c.h **** *   </tr>
 353:Generated_Source\PSoC6\pdl\drivers/peripheral/scb/cy_scb_i2c.h **** *   <tr>
 354:Generated_Source\PSoC6\pdl\drivers/peripheral/scb/cy_scb_i2c.h **** *     <td>Added the enableDigitalFilter, highPhaseDutyCycle and lowPhaseDutyCycle 
 355:Generated_Source\PSoC6\pdl\drivers/peripheral/scb/cy_scb_i2c.h **** *         fields to the \ref cy_stc_scb_i2c_config_t configuration structure.
 356:Generated_Source\PSoC6\pdl\drivers/peripheral/scb/cy_scb_i2c.h **** *     </td>
 357:Generated_Source\PSoC6\pdl\drivers/peripheral/scb/cy_scb_i2c.h **** *     <td>Added the I2C master data rate configuration using the configuration structure.
 358:Generated_Source\PSoC6\pdl\drivers/peripheral/scb/cy_scb_i2c.h **** *     </td>
 359:Generated_Source\PSoC6\pdl\drivers/peripheral/scb/cy_scb_i2c.h **** *   </tr>
 360:Generated_Source\PSoC6\pdl\drivers/peripheral/scb/cy_scb_i2c.h **** *   <tr>
 361:Generated_Source\PSoC6\pdl\drivers/peripheral/scb/cy_scb_i2c.h **** *     <td>Fixed the \ref Cy_SCB_I2C_SetDataRate function to properly configure data rates 
 362:Generated_Source\PSoC6\pdl\drivers/peripheral/scb/cy_scb_i2c.h **** *         greater than 400 kbps in Master and Master-Slave modes. \n
 363:Generated_Source\PSoC6\pdl\drivers/peripheral/scb/cy_scb_i2c.h **** *         Added verification that clk_scb is within the valid range for the desired data rate.
 364:Generated_Source\PSoC6\pdl\drivers/peripheral/scb/cy_scb_i2c.h **** *     </td>     
 365:Generated_Source\PSoC6\pdl\drivers/peripheral/scb/cy_scb_i2c.h **** *     <td>The analog filter was enabled for all data rates in Master and Master-Slave modes. 
 366:Generated_Source\PSoC6\pdl\drivers/peripheral/scb/cy_scb_i2c.h **** *         This prevents reaching the maximum supported data rate of 1000 kbps which requires a digi
 367:Generated_Source\PSoC6\pdl\drivers/peripheral/scb/cy_scb_i2c.h **** *     </td>
 368:Generated_Source\PSoC6\pdl\drivers/peripheral/scb/cy_scb_i2c.h **** *   </tr>
 369:Generated_Source\PSoC6\pdl\drivers/peripheral/scb/cy_scb_i2c.h **** *   <tr>
 370:Generated_Source\PSoC6\pdl\drivers/peripheral/scb/cy_scb_i2c.h **** *     <td>Added register access layer. Use register access macros instead
 371:Generated_Source\PSoC6\pdl\drivers/peripheral/scb/cy_scb_i2c.h **** *         of direct register access using dereferenced pointers.</td>
 372:Generated_Source\PSoC6\pdl\drivers/peripheral/scb/cy_scb_i2c.h **** *     <td>Makes register access device-independent, so that the PDL does 
 373:Generated_Source\PSoC6\pdl\drivers/peripheral/scb/cy_scb_i2c.h **** *         not need to be recompiled for each supported part number.</td>
 374:Generated_Source\PSoC6\pdl\drivers/peripheral/scb/cy_scb_i2c.h **** *   </tr>
 375:Generated_Source\PSoC6\pdl\drivers/peripheral/scb/cy_scb_i2c.h **** *   <tr>
 376:Generated_Source\PSoC6\pdl\drivers/peripheral/scb/cy_scb_i2c.h **** *     <td rowspan="4"> 2.10</td>
 377:Generated_Source\PSoC6\pdl\drivers/peripheral/scb/cy_scb_i2c.h **** *     <td>Fixed the ReStart condition generation sequence for a write
 378:Generated_Source\PSoC6\pdl\drivers/peripheral/scb/cy_scb_i2c.h **** *         transaction in the \ref Cy_SCB_I2C_MasterWrite function.</td>
 379:Generated_Source\PSoC6\pdl\drivers/peripheral/scb/cy_scb_i2c.h **** *     <td>The driver can notify about a zero length write transaction completion 
 380:Generated_Source\PSoC6\pdl\drivers/peripheral/scb/cy_scb_i2c.h **** *         before the address byte is sent if the \ref Cy_SCB_I2C_MasterWrite 
 381:Generated_Source\PSoC6\pdl\drivers/peripheral/scb/cy_scb_i2c.h **** *         function execution was interrupted between setting the restart 
 382:Generated_Source\PSoC6\pdl\drivers/peripheral/scb/cy_scb_i2c.h **** *         generation command and writing the address byte into the TX FIFO.</td>
 383:Generated_Source\PSoC6\pdl\drivers/peripheral/scb/cy_scb_i2c.h **** *   </tr>
 384:Generated_Source\PSoC6\pdl\drivers/peripheral/scb/cy_scb_i2c.h **** *   <tr>
 385:Generated_Source\PSoC6\pdl\drivers/peripheral/scb/cy_scb_i2c.h **** *     <td>Added the slave- and master-specific interrupt functions:
 386:Generated_Source\PSoC6\pdl\drivers/peripheral/scb/cy_scb_i2c.h **** *         \ref Cy_SCB_I2C_SlaveInterrupt and \ref Cy_SCB_I2C_MasterInterrupt.
 387:Generated_Source\PSoC6\pdl\drivers/peripheral/scb/cy_scb_i2c.h **** *     </td>
 388:Generated_Source\PSoC6\pdl\drivers/peripheral/scb/cy_scb_i2c.h **** *     <td>Improved the interrupt configuration options for the I2C slave and
 389:Generated_Source\PSoC6\pdl\drivers/peripheral/scb/cy_scb_i2c.h **** *         master mode configurations.</td>
 390:Generated_Source\PSoC6\pdl\drivers/peripheral/scb/cy_scb_i2c.h **** *   </tr>
 391:Generated_Source\PSoC6\pdl\drivers/peripheral/scb/cy_scb_i2c.h **** *   <tr>
 392:Generated_Source\PSoC6\pdl\drivers/peripheral/scb/cy_scb_i2c.h **** *     <td>Updated the Start condition generation sequence in the \ref 
 393:Generated_Source\PSoC6\pdl\drivers/peripheral/scb/cy_scb_i2c.h **** *         Cy_SCB_I2C_MasterWrite and \ref Cy_SCB_I2C_MasterRead.</td>
 394:Generated_Source\PSoC6\pdl\drivers/peripheral/scb/cy_scb_i2c.h **** *     <td></td>
 395:Generated_Source\PSoC6\pdl\drivers/peripheral/scb/cy_scb_i2c.h **** *   </tr>
 396:Generated_Source\PSoC6\pdl\drivers/peripheral/scb/cy_scb_i2c.h **** *   <tr>
 397:Generated_Source\PSoC6\pdl\drivers/peripheral/scb/cy_scb_i2c.h **** *     <td>Updated the ReStart condition generation sequence for a write
 398:Generated_Source\PSoC6\pdl\drivers/peripheral/scb/cy_scb_i2c.h **** *         transaction in the \ref Cy_SCB_I2C_MasterSendReStart function.</td>
 399:Generated_Source\PSoC6\pdl\drivers/peripheral/scb/cy_scb_i2c.h **** *     <td></td>
 400:Generated_Source\PSoC6\pdl\drivers/peripheral/scb/cy_scb_i2c.h **** *   </tr>
 401:Generated_Source\PSoC6\pdl\drivers/peripheral/scb/cy_scb_i2c.h **** *   <tr>
 402:Generated_Source\PSoC6\pdl\drivers/peripheral/scb/cy_scb_i2c.h **** *     <td rowspan="5"> 2.0</td>
 403:Generated_Source\PSoC6\pdl\drivers/peripheral/scb/cy_scb_i2c.h **** *     <td>Fixed the \ref Cy_SCB_I2C_MasterSendReStart function to properly 
 404:Generated_Source\PSoC6\pdl\drivers/peripheral/scb/cy_scb_i2c.h **** *         generate the ReStart condition when the previous transaction was 
ARM GAS  C:\Users\guill\AppData\Local\Temp\cclz5xua.s 			page 28


 405:Generated_Source\PSoC6\pdl\drivers/peripheral/scb/cy_scb_i2c.h **** *         a write.</td>
 406:Generated_Source\PSoC6\pdl\drivers/peripheral/scb/cy_scb_i2c.h **** *     <td>The master interpreted the address byte written into the TX FIFO as a
 407:Generated_Source\PSoC6\pdl\drivers/peripheral/scb/cy_scb_i2c.h **** *         data byte and continued a write transaction. The ReStart condition was
 408:Generated_Source\PSoC6\pdl\drivers/peripheral/scb/cy_scb_i2c.h **** *         generated after the master completed transferring the data byte.
 409:Generated_Source\PSoC6\pdl\drivers/peripheral/scb/cy_scb_i2c.h **** *         The SCL line was stretched by the master waiting for the address byte
 410:Generated_Source\PSoC6\pdl\drivers/peripheral/scb/cy_scb_i2c.h **** *         to be written into the TX FIFO after the ReStart condition generation.
 411:Generated_Source\PSoC6\pdl\drivers/peripheral/scb/cy_scb_i2c.h **** *         The following timeout detection released the bus from the master
 412:Generated_Source\PSoC6\pdl\drivers/peripheral/scb/cy_scb_i2c.h **** *         control.</td>
 413:Generated_Source\PSoC6\pdl\drivers/peripheral/scb/cy_scb_i2c.h **** *   </tr>
 414:Generated_Source\PSoC6\pdl\drivers/peripheral/scb/cy_scb_i2c.h **** *   <tr>
 415:Generated_Source\PSoC6\pdl\drivers/peripheral/scb/cy_scb_i2c.h **** *     <td>Fixed the slave operation after the address byte was NACKed by the
 416:Generated_Source\PSoC6\pdl\drivers/peripheral/scb/cy_scb_i2c.h **** *         firmware.</td>
 417:Generated_Source\PSoC6\pdl\drivers/peripheral/scb/cy_scb_i2c.h **** *     <td>The observed slave operation failure depends on whether Level 2 assert
 418:Generated_Source\PSoC6\pdl\drivers/peripheral/scb/cy_scb_i2c.h **** *         is enabled or not. Enabled: the device stuck in the fault handler due
 419:Generated_Source\PSoC6\pdl\drivers/peripheral/scb/cy_scb_i2c.h **** *         to the assert assignment in the \ref Cy_SCB_I2C_Interrupt. Disabled: 
 420:Generated_Source\PSoC6\pdl\drivers/peripheral/scb/cy_scb_i2c.h **** *         the slave sets the transaction completion status and notifies on the 
 421:Generated_Source\PSoC6\pdl\drivers/peripheral/scb/cy_scb_i2c.h **** *         transaction completion event after the address was NACKed. The failure
 422:Generated_Source\PSoC6\pdl\drivers/peripheral/scb/cy_scb_i2c.h **** *         is observed only when the slave is configured to accept an address in 
 423:Generated_Source\PSoC6\pdl\drivers/peripheral/scb/cy_scb_i2c.h **** *         the RX FIFO.</td>
 424:Generated_Source\PSoC6\pdl\drivers/peripheral/scb/cy_scb_i2c.h **** *   </tr>
 425:Generated_Source\PSoC6\pdl\drivers/peripheral/scb/cy_scb_i2c.h **** *   <tr>
 426:Generated_Source\PSoC6\pdl\drivers/peripheral/scb/cy_scb_i2c.h **** *     <td>Added parameters validation for public API.</td>
 427:Generated_Source\PSoC6\pdl\drivers/peripheral/scb/cy_scb_i2c.h **** *     <td></td>
 428:Generated_Source\PSoC6\pdl\drivers/peripheral/scb/cy_scb_i2c.h **** *   </tr>
 429:Generated_Source\PSoC6\pdl\drivers/peripheral/scb/cy_scb_i2c.h **** *   <tr>
 430:Generated_Source\PSoC6\pdl\drivers/peripheral/scb/cy_scb_i2c.h **** *     <td>Replaced variables which have limited range of values with enumerated
 431:Generated_Source\PSoC6\pdl\drivers/peripheral/scb/cy_scb_i2c.h **** *         types.</td>
 432:Generated_Source\PSoC6\pdl\drivers/peripheral/scb/cy_scb_i2c.h **** *     <td></td>
 433:Generated_Source\PSoC6\pdl\drivers/peripheral/scb/cy_scb_i2c.h **** *   </tr>
 434:Generated_Source\PSoC6\pdl\drivers/peripheral/scb/cy_scb_i2c.h **** *   <tr>
 435:Generated_Source\PSoC6\pdl\drivers/peripheral/scb/cy_scb_i2c.h **** *     <td>Added missing "cy_cb_" to the callback function type names.</td>
 436:Generated_Source\PSoC6\pdl\drivers/peripheral/scb/cy_scb_i2c.h **** *     <td></td>
 437:Generated_Source\PSoC6\pdl\drivers/peripheral/scb/cy_scb_i2c.h **** *   </tr>
 438:Generated_Source\PSoC6\pdl\drivers/peripheral/scb/cy_scb_i2c.h **** *   <tr>
 439:Generated_Source\PSoC6\pdl\drivers/peripheral/scb/cy_scb_i2c.h **** *     <td>1.0</td>
 440:Generated_Source\PSoC6\pdl\drivers/peripheral/scb/cy_scb_i2c.h **** *     <td>Initial version.</td>
 441:Generated_Source\PSoC6\pdl\drivers/peripheral/scb/cy_scb_i2c.h **** *     <td></td>
 442:Generated_Source\PSoC6\pdl\drivers/peripheral/scb/cy_scb_i2c.h **** *   </tr>
 443:Generated_Source\PSoC6\pdl\drivers/peripheral/scb/cy_scb_i2c.h **** * </table>
 444:Generated_Source\PSoC6\pdl\drivers/peripheral/scb/cy_scb_i2c.h **** *
 445:Generated_Source\PSoC6\pdl\drivers/peripheral/scb/cy_scb_i2c.h **** * \defgroup group_scb_i2c_macros Macros
 446:Generated_Source\PSoC6\pdl\drivers/peripheral/scb/cy_scb_i2c.h **** * \defgroup group_scb_i2c_functions Functions
 447:Generated_Source\PSoC6\pdl\drivers/peripheral/scb/cy_scb_i2c.h **** * \{
 448:Generated_Source\PSoC6\pdl\drivers/peripheral/scb/cy_scb_i2c.h **** * \defgroup group_scb_i2c_general_functions General
 449:Generated_Source\PSoC6\pdl\drivers/peripheral/scb/cy_scb_i2c.h **** * \defgroup group_scb_i2c_slave_functions Slave
 450:Generated_Source\PSoC6\pdl\drivers/peripheral/scb/cy_scb_i2c.h **** * \defgroup group_scb_i2c_master_high_level_functions Master High-Level
 451:Generated_Source\PSoC6\pdl\drivers/peripheral/scb/cy_scb_i2c.h **** * \defgroup group_scb_i2c_master_low_level_functions Master Low-Level
 452:Generated_Source\PSoC6\pdl\drivers/peripheral/scb/cy_scb_i2c.h **** * \defgroup group_scb_i2c_interrupt_functions Interrupt
 453:Generated_Source\PSoC6\pdl\drivers/peripheral/scb/cy_scb_i2c.h **** * \defgroup group_scb_i2c_low_power_functions Low Power Callbacks
 454:Generated_Source\PSoC6\pdl\drivers/peripheral/scb/cy_scb_i2c.h **** * \}
 455:Generated_Source\PSoC6\pdl\drivers/peripheral/scb/cy_scb_i2c.h **** * \defgroup group_scb_i2c_data_structures Data Structures
 456:Generated_Source\PSoC6\pdl\drivers/peripheral/scb/cy_scb_i2c.h **** * \defgroup group_scb_i2c_enums Enumerated Types
 457:Generated_Source\PSoC6\pdl\drivers/peripheral/scb/cy_scb_i2c.h **** */
 458:Generated_Source\PSoC6\pdl\drivers/peripheral/scb/cy_scb_i2c.h **** 
 459:Generated_Source\PSoC6\pdl\drivers/peripheral/scb/cy_scb_i2c.h **** #if !defined(CY_SCB_I2C_H)
 460:Generated_Source\PSoC6\pdl\drivers/peripheral/scb/cy_scb_i2c.h **** #define CY_SCB_I2C_H
 461:Generated_Source\PSoC6\pdl\drivers/peripheral/scb/cy_scb_i2c.h **** 
ARM GAS  C:\Users\guill\AppData\Local\Temp\cclz5xua.s 			page 29


 462:Generated_Source\PSoC6\pdl\drivers/peripheral/scb/cy_scb_i2c.h **** #include "cy_scb_common.h"
 463:Generated_Source\PSoC6\pdl\drivers/peripheral/scb/cy_scb_i2c.h **** 
 464:Generated_Source\PSoC6\pdl\drivers/peripheral/scb/cy_scb_i2c.h **** #if defined(__cplusplus)
 465:Generated_Source\PSoC6\pdl\drivers/peripheral/scb/cy_scb_i2c.h **** extern "C" {
 466:Generated_Source\PSoC6\pdl\drivers/peripheral/scb/cy_scb_i2c.h **** #endif
 467:Generated_Source\PSoC6\pdl\drivers/peripheral/scb/cy_scb_i2c.h **** 
 468:Generated_Source\PSoC6\pdl\drivers/peripheral/scb/cy_scb_i2c.h **** /*******************************************************************************
 469:Generated_Source\PSoC6\pdl\drivers/peripheral/scb/cy_scb_i2c.h **** *                            Enumerated Types
 470:Generated_Source\PSoC6\pdl\drivers/peripheral/scb/cy_scb_i2c.h **** *******************************************************************************/
 471:Generated_Source\PSoC6\pdl\drivers/peripheral/scb/cy_scb_i2c.h **** 
 472:Generated_Source\PSoC6\pdl\drivers/peripheral/scb/cy_scb_i2c.h **** /**
 473:Generated_Source\PSoC6\pdl\drivers/peripheral/scb/cy_scb_i2c.h **** * \addtogroup group_scb_i2c_enums
 474:Generated_Source\PSoC6\pdl\drivers/peripheral/scb/cy_scb_i2c.h **** * \{
 475:Generated_Source\PSoC6\pdl\drivers/peripheral/scb/cy_scb_i2c.h **** */
 476:Generated_Source\PSoC6\pdl\drivers/peripheral/scb/cy_scb_i2c.h **** 
 477:Generated_Source\PSoC6\pdl\drivers/peripheral/scb/cy_scb_i2c.h **** /** I2C status codes */
 478:Generated_Source\PSoC6\pdl\drivers/peripheral/scb/cy_scb_i2c.h **** typedef enum
 479:Generated_Source\PSoC6\pdl\drivers/peripheral/scb/cy_scb_i2c.h **** {
 480:Generated_Source\PSoC6\pdl\drivers/peripheral/scb/cy_scb_i2c.h ****     /** Operation completed successfully */
 481:Generated_Source\PSoC6\pdl\drivers/peripheral/scb/cy_scb_i2c.h ****     CY_SCB_I2C_SUCCESS = 0U,
 482:Generated_Source\PSoC6\pdl\drivers/peripheral/scb/cy_scb_i2c.h **** 
 483:Generated_Source\PSoC6\pdl\drivers/peripheral/scb/cy_scb_i2c.h ****     /** One or more of input parameters are invalid */
 484:Generated_Source\PSoC6\pdl\drivers/peripheral/scb/cy_scb_i2c.h ****     CY_SCB_I2C_BAD_PARAM = (CY_SCB_ID | CY_PDL_STATUS_ERROR | CY_SCB_I2C_ID | 1U),
 485:Generated_Source\PSoC6\pdl\drivers/peripheral/scb/cy_scb_i2c.h **** 
 486:Generated_Source\PSoC6\pdl\drivers/peripheral/scb/cy_scb_i2c.h ****     /**
 487:Generated_Source\PSoC6\pdl\drivers/peripheral/scb/cy_scb_i2c.h ****     * The master is not ready to start a new transaction.
 488:Generated_Source\PSoC6\pdl\drivers/peripheral/scb/cy_scb_i2c.h ****     * Either the master is still processing a previous transaction or in the
 489:Generated_Source\PSoC6\pdl\drivers/peripheral/scb/cy_scb_i2c.h ****     * master-slave mode, the slave operation is in progress.
 490:Generated_Source\PSoC6\pdl\drivers/peripheral/scb/cy_scb_i2c.h ****     */
 491:Generated_Source\PSoC6\pdl\drivers/peripheral/scb/cy_scb_i2c.h ****     CY_SCB_I2C_MASTER_NOT_READY = (CY_SCB_ID | CY_PDL_STATUS_ERROR | CY_SCB_I2C_ID | 2U),
 492:Generated_Source\PSoC6\pdl\drivers/peripheral/scb/cy_scb_i2c.h **** 
 493:Generated_Source\PSoC6\pdl\drivers/peripheral/scb/cy_scb_i2c.h ****     /**
 494:Generated_Source\PSoC6\pdl\drivers/peripheral/scb/cy_scb_i2c.h ****     * The master operation timed out before completing. Applicable only for
 495:Generated_Source\PSoC6\pdl\drivers/peripheral/scb/cy_scb_i2c.h ****     * the \ref group_scb_i2c_master_low_level_functions functions.
 496:Generated_Source\PSoC6\pdl\drivers/peripheral/scb/cy_scb_i2c.h ****     */
 497:Generated_Source\PSoC6\pdl\drivers/peripheral/scb/cy_scb_i2c.h ****     CY_SCB_I2C_MASTER_MANUAL_TIMEOUT = (CY_SCB_ID | CY_PDL_STATUS_ERROR | CY_SCB_I2C_ID | 3U),
 498:Generated_Source\PSoC6\pdl\drivers/peripheral/scb/cy_scb_i2c.h **** 
 499:Generated_Source\PSoC6\pdl\drivers/peripheral/scb/cy_scb_i2c.h ****     /** The slave NACKed the address. Applicable only for the
 500:Generated_Source\PSoC6\pdl\drivers/peripheral/scb/cy_scb_i2c.h ****     * \ref group_scb_i2c_master_low_level_functions functions.
 501:Generated_Source\PSoC6\pdl\drivers/peripheral/scb/cy_scb_i2c.h ****     */
 502:Generated_Source\PSoC6\pdl\drivers/peripheral/scb/cy_scb_i2c.h ****     CY_SCB_I2C_MASTER_MANUAL_ADDR_NAK = (CY_SCB_ID | CY_PDL_STATUS_ERROR | CY_SCB_I2C_ID | 4U),
 503:Generated_Source\PSoC6\pdl\drivers/peripheral/scb/cy_scb_i2c.h **** 
 504:Generated_Source\PSoC6\pdl\drivers/peripheral/scb/cy_scb_i2c.h ****     /** The slave NACKed the data byte.  Applicable only for the
 505:Generated_Source\PSoC6\pdl\drivers/peripheral/scb/cy_scb_i2c.h ****     * \ref group_scb_i2c_master_low_level_functions.
 506:Generated_Source\PSoC6\pdl\drivers/peripheral/scb/cy_scb_i2c.h ****     */
 507:Generated_Source\PSoC6\pdl\drivers/peripheral/scb/cy_scb_i2c.h ****     CY_SCB_I2C_MASTER_MANUAL_NAK = (CY_SCB_ID | CY_PDL_STATUS_ERROR | CY_SCB_I2C_ID | 5U),
 508:Generated_Source\PSoC6\pdl\drivers/peripheral/scb/cy_scb_i2c.h **** 
 509:Generated_Source\PSoC6\pdl\drivers/peripheral/scb/cy_scb_i2c.h ****     /**
 510:Generated_Source\PSoC6\pdl\drivers/peripheral/scb/cy_scb_i2c.h ****     * The master lost arbitration, the transaction was aborted. Applicable only
 511:Generated_Source\PSoC6\pdl\drivers/peripheral/scb/cy_scb_i2c.h ****     * for the \ref group_scb_i2c_master_low_level_functions functions.
 512:Generated_Source\PSoC6\pdl\drivers/peripheral/scb/cy_scb_i2c.h ****     */
 513:Generated_Source\PSoC6\pdl\drivers/peripheral/scb/cy_scb_i2c.h ****     CY_SCB_I2C_MASTER_MANUAL_ARB_LOST = (CY_SCB_ID | CY_PDL_STATUS_ERROR | CY_SCB_I2C_ID | 6U),
 514:Generated_Source\PSoC6\pdl\drivers/peripheral/scb/cy_scb_i2c.h **** 
 515:Generated_Source\PSoC6\pdl\drivers/peripheral/scb/cy_scb_i2c.h ****     /**
 516:Generated_Source\PSoC6\pdl\drivers/peripheral/scb/cy_scb_i2c.h ****     * The master detected an erroneous start or stop, the transaction was
 517:Generated_Source\PSoC6\pdl\drivers/peripheral/scb/cy_scb_i2c.h ****     * aborted. Applicable only for the
 518:Generated_Source\PSoC6\pdl\drivers/peripheral/scb/cy_scb_i2c.h ****     * \ref group_scb_i2c_master_low_level_functions functions.
ARM GAS  C:\Users\guill\AppData\Local\Temp\cclz5xua.s 			page 30


 519:Generated_Source\PSoC6\pdl\drivers/peripheral/scb/cy_scb_i2c.h ****     */
 520:Generated_Source\PSoC6\pdl\drivers/peripheral/scb/cy_scb_i2c.h ****     CY_SCB_I2C_MASTER_MANUAL_BUS_ERR = (CY_SCB_ID | CY_PDL_STATUS_ERROR | CY_SCB_I2C_ID | 7U),
 521:Generated_Source\PSoC6\pdl\drivers/peripheral/scb/cy_scb_i2c.h **** 
 522:Generated_Source\PSoC6\pdl\drivers/peripheral/scb/cy_scb_i2c.h ****     /**
 523:Generated_Source\PSoC6\pdl\drivers/peripheral/scb/cy_scb_i2c.h ****     * The master transaction was aborted and the slave transaction is on-going
 524:Generated_Source\PSoC6\pdl\drivers/peripheral/scb/cy_scb_i2c.h ****     * because the slave was addressed before the master generated a start.
 525:Generated_Source\PSoC6\pdl\drivers/peripheral/scb/cy_scb_i2c.h ****     * Applicable only for the \ref group_scb_i2c_master_low_level_functions
 526:Generated_Source\PSoC6\pdl\drivers/peripheral/scb/cy_scb_i2c.h ****     * functions.
 527:Generated_Source\PSoC6\pdl\drivers/peripheral/scb/cy_scb_i2c.h ****     */
 528:Generated_Source\PSoC6\pdl\drivers/peripheral/scb/cy_scb_i2c.h ****     CY_SCB_I2C_MASTER_MANUAL_ABORT_START = (CY_SCB_ID | CY_PDL_STATUS_ERROR | CY_SCB_I2C_ID | 8U)
 529:Generated_Source\PSoC6\pdl\drivers/peripheral/scb/cy_scb_i2c.h **** } cy_en_scb_i2c_status_t;
 530:Generated_Source\PSoC6\pdl\drivers/peripheral/scb/cy_scb_i2c.h **** 
 531:Generated_Source\PSoC6\pdl\drivers/peripheral/scb/cy_scb_i2c.h **** /** I2C Operation Modes */
 532:Generated_Source\PSoC6\pdl\drivers/peripheral/scb/cy_scb_i2c.h **** typedef enum
 533:Generated_Source\PSoC6\pdl\drivers/peripheral/scb/cy_scb_i2c.h **** {
 534:Generated_Source\PSoC6\pdl\drivers/peripheral/scb/cy_scb_i2c.h ****     CY_SCB_I2C_SLAVE        = 1U,    /**< Configures SCB for I2C Slave operation */
 535:Generated_Source\PSoC6\pdl\drivers/peripheral/scb/cy_scb_i2c.h ****     CY_SCB_I2C_MASTER       = 2U,    /**< Configures SCB for I2C Master operation */
 536:Generated_Source\PSoC6\pdl\drivers/peripheral/scb/cy_scb_i2c.h ****     CY_SCB_I2C_MASTER_SLAVE = 3U,    /**< Configures SCB for I2C Master-Slave operation */
 537:Generated_Source\PSoC6\pdl\drivers/peripheral/scb/cy_scb_i2c.h **** } cy_en_scb_i2c_mode_t;
 538:Generated_Source\PSoC6\pdl\drivers/peripheral/scb/cy_scb_i2c.h **** 
 539:Generated_Source\PSoC6\pdl\drivers/peripheral/scb/cy_scb_i2c.h **** /** I2C Transaction Direction */
 540:Generated_Source\PSoC6\pdl\drivers/peripheral/scb/cy_scb_i2c.h **** typedef enum
 541:Generated_Source\PSoC6\pdl\drivers/peripheral/scb/cy_scb_i2c.h **** {
 542:Generated_Source\PSoC6\pdl\drivers/peripheral/scb/cy_scb_i2c.h ****     CY_SCB_I2C_WRITE_XFER = 0U,  /**< Current transaction is Write */
 543:Generated_Source\PSoC6\pdl\drivers/peripheral/scb/cy_scb_i2c.h ****     CY_SCB_I2C_READ_XFER  = 1U,  /**< Current transaction is Read */
 544:Generated_Source\PSoC6\pdl\drivers/peripheral/scb/cy_scb_i2c.h **** } cy_en_scb_i2c_direction_t;
 545:Generated_Source\PSoC6\pdl\drivers/peripheral/scb/cy_scb_i2c.h **** 
 546:Generated_Source\PSoC6\pdl\drivers/peripheral/scb/cy_scb_i2c.h **** /** I2C Command ACK / NAK */
 547:Generated_Source\PSoC6\pdl\drivers/peripheral/scb/cy_scb_i2c.h **** typedef enum
 548:Generated_Source\PSoC6\pdl\drivers/peripheral/scb/cy_scb_i2c.h **** {
 549:Generated_Source\PSoC6\pdl\drivers/peripheral/scb/cy_scb_i2c.h ****     CY_SCB_I2C_ACK,     /**< Send ACK to current byte */
 550:Generated_Source\PSoC6\pdl\drivers/peripheral/scb/cy_scb_i2c.h ****     CY_SCB_I2C_NAK,     /**< Send NAK to current byte */
 551:Generated_Source\PSoC6\pdl\drivers/peripheral/scb/cy_scb_i2c.h **** } cy_en_scb_i2c_command_t;
 552:Generated_Source\PSoC6\pdl\drivers/peripheral/scb/cy_scb_i2c.h **** /** \} group_scb_i2c_enums */
 553:Generated_Source\PSoC6\pdl\drivers/peripheral/scb/cy_scb_i2c.h **** 
 554:Generated_Source\PSoC6\pdl\drivers/peripheral/scb/cy_scb_i2c.h **** 
 555:Generated_Source\PSoC6\pdl\drivers/peripheral/scb/cy_scb_i2c.h **** /*******************************************************************************
 556:Generated_Source\PSoC6\pdl\drivers/peripheral/scb/cy_scb_i2c.h **** *                              Type Definitions
 557:Generated_Source\PSoC6\pdl\drivers/peripheral/scb/cy_scb_i2c.h **** *******************************************************************************/
 558:Generated_Source\PSoC6\pdl\drivers/peripheral/scb/cy_scb_i2c.h **** 
 559:Generated_Source\PSoC6\pdl\drivers/peripheral/scb/cy_scb_i2c.h **** /**
 560:Generated_Source\PSoC6\pdl\drivers/peripheral/scb/cy_scb_i2c.h **** * \addtogroup group_scb_i2c_data_structures
 561:Generated_Source\PSoC6\pdl\drivers/peripheral/scb/cy_scb_i2c.h **** * \{
 562:Generated_Source\PSoC6\pdl\drivers/peripheral/scb/cy_scb_i2c.h **** */
 563:Generated_Source\PSoC6\pdl\drivers/peripheral/scb/cy_scb_i2c.h **** 
 564:Generated_Source\PSoC6\pdl\drivers/peripheral/scb/cy_scb_i2c.h **** /**
 565:Generated_Source\PSoC6\pdl\drivers/peripheral/scb/cy_scb_i2c.h **** * Provides the typedef for the callback function called in the
 566:Generated_Source\PSoC6\pdl\drivers/peripheral/scb/cy_scb_i2c.h **** * \ref Cy_SCB_I2C_Interrupt to notify the user about occurrences of
 567:Generated_Source\PSoC6\pdl\drivers/peripheral/scb/cy_scb_i2c.h **** * \ref group_scb_i2c_macros_callback_events.
 568:Generated_Source\PSoC6\pdl\drivers/peripheral/scb/cy_scb_i2c.h **** */
 569:Generated_Source\PSoC6\pdl\drivers/peripheral/scb/cy_scb_i2c.h **** typedef void (* cy_cb_scb_i2c_handle_events_t)(uint32_t event);
 570:Generated_Source\PSoC6\pdl\drivers/peripheral/scb/cy_scb_i2c.h **** 
 571:Generated_Source\PSoC6\pdl\drivers/peripheral/scb/cy_scb_i2c.h **** /**
 572:Generated_Source\PSoC6\pdl\drivers/peripheral/scb/cy_scb_i2c.h **** * Provides the typedef for the callback function called in the
 573:Generated_Source\PSoC6\pdl\drivers/peripheral/scb/cy_scb_i2c.h **** * \ref Cy_SCB_I2C_Interrupt to notify the user about occurrences of
 574:Generated_Source\PSoC6\pdl\drivers/peripheral/scb/cy_scb_i2c.h **** * \ref group_scb_i2c_macros_addr_callback_events.
 575:Generated_Source\PSoC6\pdl\drivers/peripheral/scb/cy_scb_i2c.h **** * This callback must return a decision to ACK (continue transaction) or
ARM GAS  C:\Users\guill\AppData\Local\Temp\cclz5xua.s 			page 31


 576:Generated_Source\PSoC6\pdl\drivers/peripheral/scb/cy_scb_i2c.h **** * NAK (end transaction) the received address.
 577:Generated_Source\PSoC6\pdl\drivers/peripheral/scb/cy_scb_i2c.h **** * Note if the slave is configured to accept an address in RX FIFO, it must read
 578:Generated_Source\PSoC6\pdl\drivers/peripheral/scb/cy_scb_i2c.h **** * from it using the \ref Cy_SCB_ReadRxFifo function.
 579:Generated_Source\PSoC6\pdl\drivers/peripheral/scb/cy_scb_i2c.h **** */
 580:Generated_Source\PSoC6\pdl\drivers/peripheral/scb/cy_scb_i2c.h **** typedef cy_en_scb_i2c_command_t (* cy_cb_scb_i2c_handle_addr_t)(uint32_t event);
 581:Generated_Source\PSoC6\pdl\drivers/peripheral/scb/cy_scb_i2c.h **** 
 582:Generated_Source\PSoC6\pdl\drivers/peripheral/scb/cy_scb_i2c.h **** /** I2C configuration structure */
 583:Generated_Source\PSoC6\pdl\drivers/peripheral/scb/cy_scb_i2c.h **** typedef struct cy_stc_scb_i2c_config
 584:Generated_Source\PSoC6\pdl\drivers/peripheral/scb/cy_scb_i2c.h **** {
 585:Generated_Source\PSoC6\pdl\drivers/peripheral/scb/cy_scb_i2c.h ****     /** Specifies the mode of operation */
 586:Generated_Source\PSoC6\pdl\drivers/peripheral/scb/cy_scb_i2c.h ****     cy_en_scb_i2c_mode_t i2cMode;
 587:Generated_Source\PSoC6\pdl\drivers/peripheral/scb/cy_scb_i2c.h **** 
 588:Generated_Source\PSoC6\pdl\drivers/peripheral/scb/cy_scb_i2c.h ****     /**
 589:Generated_Source\PSoC6\pdl\drivers/peripheral/scb/cy_scb_i2c.h ****     * The SCB provides an RX FIFO in hardware (consult the selected device
 590:Generated_Source\PSoC6\pdl\drivers/peripheral/scb/cy_scb_i2c.h ****     * datasheet to get the actual FIFO size). The useRxFifo field defines
 591:Generated_Source\PSoC6\pdl\drivers/peripheral/scb/cy_scb_i2c.h ****     * how the driver firmware reads data from the RX FIFO:
 592:Generated_Source\PSoC6\pdl\drivers/peripheral/scb/cy_scb_i2c.h ****     * * If this option is enabled, the hardware is configured to automatically
 593:Generated_Source\PSoC6\pdl\drivers/peripheral/scb/cy_scb_i2c.h ****     *   ACK incoming data, and interrupt is enabled to take data out of the RX
 594:Generated_Source\PSoC6\pdl\drivers/peripheral/scb/cy_scb_i2c.h ****     *   FIFO when it has some number of bytes (typically, when it is half full).
 595:Generated_Source\PSoC6\pdl\drivers/peripheral/scb/cy_scb_i2c.h ****     * * If this option is disabled, the interrupt is enabled to take data out of
 596:Generated_Source\PSoC6\pdl\drivers/peripheral/scb/cy_scb_i2c.h ****     *   the RX FIFO when a byte is available. Also, hardware does not
 597:Generated_Source\PSoC6\pdl\drivers/peripheral/scb/cy_scb_i2c.h ****     *   automatically ACK the data. Firmware must tell the hardware to ACK
 598:Generated_Source\PSoC6\pdl\drivers/peripheral/scb/cy_scb_i2c.h ****     *   the byte (so each byte requires interrupt processing).
 599:Generated_Source\PSoC6\pdl\drivers/peripheral/scb/cy_scb_i2c.h ****     * \n <b>Typically, this option should be enabled</b> to configure hardware to
 600:Generated_Source\PSoC6\pdl\drivers/peripheral/scb/cy_scb_i2c.h ****     * automatically ACK incoming data. Otherwise hardware might not get the command
 601:Generated_Source\PSoC6\pdl\drivers/peripheral/scb/cy_scb_i2c.h ****     * to ACK or NACK a byte fast enough, and clock stretching is applied
 602:Generated_Source\PSoC6\pdl\drivers/peripheral/scb/cy_scb_i2c.h ****     * (the transaction is delayed) until the command is set. When this option is
 603:Generated_Source\PSoC6\pdl\drivers/peripheral/scb/cy_scb_i2c.h ****     * enabled, the number of interrupts required to process the transaction
 604:Generated_Source\PSoC6\pdl\drivers/peripheral/scb/cy_scb_i2c.h ****     * is significantly reduced because several bytes are handled at once.
 605:Generated_Source\PSoC6\pdl\drivers/peripheral/scb/cy_scb_i2c.h ****     * \n <b>However, there is a side effect:</b>
 606:Generated_Source\PSoC6\pdl\drivers/peripheral/scb/cy_scb_i2c.h ****     * * For master mode, the drawback is that the master may receive more
 607:Generated_Source\PSoC6\pdl\drivers/peripheral/scb/cy_scb_i2c.h ****     *   data than desired due to the interrupt latency. An interrupt fires
 608:Generated_Source\PSoC6\pdl\drivers/peripheral/scb/cy_scb_i2c.h ****     *   when the second-to-last byte has been received. This interrupt tells
 609:Generated_Source\PSoC6\pdl\drivers/peripheral/scb/cy_scb_i2c.h ****     *   the hardware to stop receiving data. If the latency of this interrupt
 610:Generated_Source\PSoC6\pdl\drivers/peripheral/scb/cy_scb_i2c.h ****     *   is longer than one transaction of the byte on the I2C bus, then the
 611:Generated_Source\PSoC6\pdl\drivers/peripheral/scb/cy_scb_i2c.h ****     *   hardware automatically ACKs the following bytes until the interrupt
 612:Generated_Source\PSoC6\pdl\drivers/peripheral/scb/cy_scb_i2c.h ****     *   is serviced or the RX FIFO becomes full.
 613:Generated_Source\PSoC6\pdl\drivers/peripheral/scb/cy_scb_i2c.h ****     * * For slave mode, the drawback is that the slave only NACKs
 614:Generated_Source\PSoC6\pdl\drivers/peripheral/scb/cy_scb_i2c.h ****     *   the master when the RX FIFO becomes full, NOT when the slave write
 615:Generated_Source\PSoC6\pdl\drivers/peripheral/scb/cy_scb_i2c.h ****     *   firmware buffer becomes full.
 616:Generated_Source\PSoC6\pdl\drivers/peripheral/scb/cy_scb_i2c.h ****     * \n In either master or slave mode, all received extra bytes are dropped.
 617:Generated_Source\PSoC6\pdl\drivers/peripheral/scb/cy_scb_i2c.h ****     * \note The useRxFifo option is not available if acceptAddrInFifo is true.
 618:Generated_Source\PSoC6\pdl\drivers/peripheral/scb/cy_scb_i2c.h ****     */
 619:Generated_Source\PSoC6\pdl\drivers/peripheral/scb/cy_scb_i2c.h ****     bool useRxFifo;
 620:Generated_Source\PSoC6\pdl\drivers/peripheral/scb/cy_scb_i2c.h **** 
 621:Generated_Source\PSoC6\pdl\drivers/peripheral/scb/cy_scb_i2c.h ****     /**
 622:Generated_Source\PSoC6\pdl\drivers/peripheral/scb/cy_scb_i2c.h ****     * The SCB provides a TX FIFO in hardware (consult the selected device
 623:Generated_Source\PSoC6\pdl\drivers/peripheral/scb/cy_scb_i2c.h ****     * datasheet to get the actual FIFO size). The useTxFifo option defines how the
 624:Generated_Source\PSoC6\pdl\drivers/peripheral/scb/cy_scb_i2c.h ****     * driver firmware loads data into the TX FIFO:
 625:Generated_Source\PSoC6\pdl\drivers/peripheral/scb/cy_scb_i2c.h ****     * * If this option is enabled, the TX FIFO is fully loaded with data and the
 626:Generated_Source\PSoC6\pdl\drivers/peripheral/scb/cy_scb_i2c.h ****     *   interrupt is enabled to keep the TX FIFO loaded until the end of the transaction.
 627:Generated_Source\PSoC6\pdl\drivers/peripheral/scb/cy_scb_i2c.h ****     * * If this option is disabled, a single byte is loaded into the TX FIFO and
 628:Generated_Source\PSoC6\pdl\drivers/peripheral/scb/cy_scb_i2c.h ****     *   the interrupt enabled to load the next byte when the TX FIFO becomes empty
 629:Generated_Source\PSoC6\pdl\drivers/peripheral/scb/cy_scb_i2c.h ****     *   (so each byte requires interrupt processing).
 630:Generated_Source\PSoC6\pdl\drivers/peripheral/scb/cy_scb_i2c.h ****     * \n <b>Typically, this option should be enabled</b> to keep the TX FIFO loaded with
 631:Generated_Source\PSoC6\pdl\drivers/peripheral/scb/cy_scb_i2c.h ****     * data and reduce the probability of clock stretching. When there is no data
 632:Generated_Source\PSoC6\pdl\drivers/peripheral/scb/cy_scb_i2c.h ****     * to transfer, clock stretching is applied (the transaction is delayed) until
ARM GAS  C:\Users\guill\AppData\Local\Temp\cclz5xua.s 			page 32


 633:Generated_Source\PSoC6\pdl\drivers/peripheral/scb/cy_scb_i2c.h ****     * the data is loaded. When this option is enabled, the number of interrupts required
 634:Generated_Source\PSoC6\pdl\drivers/peripheral/scb/cy_scb_i2c.h ****     * to process the transaction is significantly reduced because several
 635:Generated_Source\PSoC6\pdl\drivers/peripheral/scb/cy_scb_i2c.h ****     * bytes are handled at once.
 636:Generated_Source\PSoC6\pdl\drivers/peripheral/scb/cy_scb_i2c.h ****     * \n <b>The drawback of enabling useTxFifo</b> is that the abort operation clears
 637:Generated_Source\PSoC6\pdl\drivers/peripheral/scb/cy_scb_i2c.h ****     * the TX FIFO. The TX FIFO clear operation also clears the shift
 638:Generated_Source\PSoC6\pdl\drivers/peripheral/scb/cy_scb_i2c.h ****     * register. As a result the shifter may be cleared in the middle of a byte
 639:Generated_Source\PSoC6\pdl\drivers/peripheral/scb/cy_scb_i2c.h ****     * transaction, corrupting it. The remaining bits to transaction within the
 640:Generated_Source\PSoC6\pdl\drivers/peripheral/scb/cy_scb_i2c.h ****     * corrupted byte are complemented with 1s. If this is an issue,
 641:Generated_Source\PSoC6\pdl\drivers/peripheral/scb/cy_scb_i2c.h ****     * then do not enable this option.
 642:Generated_Source\PSoC6\pdl\drivers/peripheral/scb/cy_scb_i2c.h ****     */
 643:Generated_Source\PSoC6\pdl\drivers/peripheral/scb/cy_scb_i2c.h ****     bool useTxFifo;
 644:Generated_Source\PSoC6\pdl\drivers/peripheral/scb/cy_scb_i2c.h **** 
 645:Generated_Source\PSoC6\pdl\drivers/peripheral/scb/cy_scb_i2c.h ****     /**
 646:Generated_Source\PSoC6\pdl\drivers/peripheral/scb/cy_scb_i2c.h ****     * The 7-bit right justified slave address, used only for the slave mode
 647:Generated_Source\PSoC6\pdl\drivers/peripheral/scb/cy_scb_i2c.h ****     */
 648:Generated_Source\PSoC6\pdl\drivers/peripheral/scb/cy_scb_i2c.h ****     uint8_t slaveAddress;
 649:Generated_Source\PSoC6\pdl\drivers/peripheral/scb/cy_scb_i2c.h **** 
 650:Generated_Source\PSoC6\pdl\drivers/peripheral/scb/cy_scb_i2c.h ****     /**
 651:Generated_Source\PSoC6\pdl\drivers/peripheral/scb/cy_scb_i2c.h ****     * The slave address mask is used to mask bits of the slave address during 
 652:Generated_Source\PSoC6\pdl\drivers/peripheral/scb/cy_scb_i2c.h ****     * the address match procedure (it is used only for the slave mode). 
 653:Generated_Source\PSoC6\pdl\drivers/peripheral/scb/cy_scb_i2c.h ****     * Bit 0 of the address mask corresponds to the 
 654:Generated_Source\PSoC6\pdl\drivers/peripheral/scb/cy_scb_i2c.h ****     * read/write direction bit and is always a do not care in the address match 
 655:Generated_Source\PSoC6\pdl\drivers/peripheral/scb/cy_scb_i2c.h ****     * therefore must be set 0. Bit value 0 - excludes bit from address 
 656:Generated_Source\PSoC6\pdl\drivers/peripheral/scb/cy_scb_i2c.h ****     * comparison. Bit value 1 - the bit needs to match with the corresponding 
 657:Generated_Source\PSoC6\pdl\drivers/peripheral/scb/cy_scb_i2c.h ****     * bit of the I2C slave address.
 658:Generated_Source\PSoC6\pdl\drivers/peripheral/scb/cy_scb_i2c.h ****     */
 659:Generated_Source\PSoC6\pdl\drivers/peripheral/scb/cy_scb_i2c.h ****     uint8_t slaveAddressMask;
 660:Generated_Source\PSoC6\pdl\drivers/peripheral/scb/cy_scb_i2c.h **** 
 661:Generated_Source\PSoC6\pdl\drivers/peripheral/scb/cy_scb_i2c.h ****     /**
 662:Generated_Source\PSoC6\pdl\drivers/peripheral/scb/cy_scb_i2c.h ****     * True - the slave address is accepted in the RX FIFO, false - the slave
 663:Generated_Source\PSoC6\pdl\drivers/peripheral/scb/cy_scb_i2c.h ****     * addresses are not accepted in the RX FIFO
 664:Generated_Source\PSoC6\pdl\drivers/peripheral/scb/cy_scb_i2c.h ****     */
 665:Generated_Source\PSoC6\pdl\drivers/peripheral/scb/cy_scb_i2c.h ****     bool acceptAddrInFifo;
 666:Generated_Source\PSoC6\pdl\drivers/peripheral/scb/cy_scb_i2c.h **** 
 667:Generated_Source\PSoC6\pdl\drivers/peripheral/scb/cy_scb_i2c.h ****     /**
 668:Generated_Source\PSoC6\pdl\drivers/peripheral/scb/cy_scb_i2c.h ****     * True - accept the general call address; false - ignore the general
 669:Generated_Source\PSoC6\pdl\drivers/peripheral/scb/cy_scb_i2c.h ****     * call address.
 670:Generated_Source\PSoC6\pdl\drivers/peripheral/scb/cy_scb_i2c.h ****     */
 671:Generated_Source\PSoC6\pdl\drivers/peripheral/scb/cy_scb_i2c.h ****     bool ackGeneralAddr;
 672:Generated_Source\PSoC6\pdl\drivers/peripheral/scb/cy_scb_i2c.h **** 
 673:Generated_Source\PSoC6\pdl\drivers/peripheral/scb/cy_scb_i2c.h ****     /**
 674:Generated_Source\PSoC6\pdl\drivers/peripheral/scb/cy_scb_i2c.h ****     * When set, the slave will wake the device from Deep Sleep on an address
 675:Generated_Source\PSoC6\pdl\drivers/peripheral/scb/cy_scb_i2c.h ****     * match (the device datasheet must be consulted to determine which SCBs
 676:Generated_Source\PSoC6\pdl\drivers/peripheral/scb/cy_scb_i2c.h ****     * support this mode)
 677:Generated_Source\PSoC6\pdl\drivers/peripheral/scb/cy_scb_i2c.h ****     */
 678:Generated_Source\PSoC6\pdl\drivers/peripheral/scb/cy_scb_i2c.h ****     bool enableWakeFromSleep;
 679:Generated_Source\PSoC6\pdl\drivers/peripheral/scb/cy_scb_i2c.h **** 
 680:Generated_Source\PSoC6\pdl\drivers/peripheral/scb/cy_scb_i2c.h ****     /**
 681:Generated_Source\PSoC6\pdl\drivers/peripheral/scb/cy_scb_i2c.h ****     * Enables a digital 3-tap median filter to be applied to the inputs
 682:Generated_Source\PSoC6\pdl\drivers/peripheral/scb/cy_scb_i2c.h ****     * of filter glitches on the lines.
 683:Generated_Source\PSoC6\pdl\drivers/peripheral/scb/cy_scb_i2c.h ****     */
 684:Generated_Source\PSoC6\pdl\drivers/peripheral/scb/cy_scb_i2c.h ****     bool enableDigitalFilter;
 685:Generated_Source\PSoC6\pdl\drivers/peripheral/scb/cy_scb_i2c.h **** 
 686:Generated_Source\PSoC6\pdl\drivers/peripheral/scb/cy_scb_i2c.h ****     /**
 687:Generated_Source\PSoC6\pdl\drivers/peripheral/scb/cy_scb_i2c.h ****     * The number of SCB clock cycles in the low phase of SCL. Only applicable 
 688:Generated_Source\PSoC6\pdl\drivers/peripheral/scb/cy_scb_i2c.h ****     * in master modes. The valid range is 7 to 16.
 689:Generated_Source\PSoC6\pdl\drivers/peripheral/scb/cy_scb_i2c.h ****     */
ARM GAS  C:\Users\guill\AppData\Local\Temp\cclz5xua.s 			page 33


 690:Generated_Source\PSoC6\pdl\drivers/peripheral/scb/cy_scb_i2c.h ****     uint32_t lowPhaseDutyCycle;
 691:Generated_Source\PSoC6\pdl\drivers/peripheral/scb/cy_scb_i2c.h **** 
 692:Generated_Source\PSoC6\pdl\drivers/peripheral/scb/cy_scb_i2c.h ****     /**
 693:Generated_Source\PSoC6\pdl\drivers/peripheral/scb/cy_scb_i2c.h ****     * The number of SCB clock cycles in the high phase of SCL. Only applicable 
 694:Generated_Source\PSoC6\pdl\drivers/peripheral/scb/cy_scb_i2c.h ****     * in master modes. The valid range is 5 to 16.
 695:Generated_Source\PSoC6\pdl\drivers/peripheral/scb/cy_scb_i2c.h ****     */
 696:Generated_Source\PSoC6\pdl\drivers/peripheral/scb/cy_scb_i2c.h ****     uint32_t highPhaseDutyCycle;
 697:Generated_Source\PSoC6\pdl\drivers/peripheral/scb/cy_scb_i2c.h **** 
 698:Generated_Source\PSoC6\pdl\drivers/peripheral/scb/cy_scb_i2c.h **** } cy_stc_scb_i2c_config_t;
 699:Generated_Source\PSoC6\pdl\drivers/peripheral/scb/cy_scb_i2c.h **** 
 700:Generated_Source\PSoC6\pdl\drivers/peripheral/scb/cy_scb_i2c.h **** /** I2C context structure.
 701:Generated_Source\PSoC6\pdl\drivers/peripheral/scb/cy_scb_i2c.h **** * All fields for the context structure are internal. Firmware never reads or
 702:Generated_Source\PSoC6\pdl\drivers/peripheral/scb/cy_scb_i2c.h **** * writes these values. Firmware allocates the structure and provides the
 703:Generated_Source\PSoC6\pdl\drivers/peripheral/scb/cy_scb_i2c.h **** * address of the structure to the driver in function calls. Firmware must
 704:Generated_Source\PSoC6\pdl\drivers/peripheral/scb/cy_scb_i2c.h **** * ensure that the defined instance of this structure remains in scope
 705:Generated_Source\PSoC6\pdl\drivers/peripheral/scb/cy_scb_i2c.h **** * while the drive is in use.
 706:Generated_Source\PSoC6\pdl\drivers/peripheral/scb/cy_scb_i2c.h **** */
 707:Generated_Source\PSoC6\pdl\drivers/peripheral/scb/cy_scb_i2c.h **** typedef struct cy_stc_scb_i2c_context
 708:Generated_Source\PSoC6\pdl\drivers/peripheral/scb/cy_scb_i2c.h **** {
 709:Generated_Source\PSoC6\pdl\drivers/peripheral/scb/cy_scb_i2c.h ****     /** \cond INTERNAL */
 710:Generated_Source\PSoC6\pdl\drivers/peripheral/scb/cy_scb_i2c.h ****     bool useRxFifo;             /**< Stores RX FIFO configuration */
 711:Generated_Source\PSoC6\pdl\drivers/peripheral/scb/cy_scb_i2c.h ****     bool useTxFifo;             /**< Stores TX FIFO configuration */
 712:Generated_Source\PSoC6\pdl\drivers/peripheral/scb/cy_scb_i2c.h **** 
 713:Generated_Source\PSoC6\pdl\drivers/peripheral/scb/cy_scb_i2c.h ****     volatile uint32_t state;    /**< The driver state */
 714:Generated_Source\PSoC6\pdl\drivers/peripheral/scb/cy_scb_i2c.h **** 
 715:Generated_Source\PSoC6\pdl\drivers/peripheral/scb/cy_scb_i2c.h ****     volatile uint32_t masterStatus; /**< The master status */
 716:Generated_Source\PSoC6\pdl\drivers/peripheral/scb/cy_scb_i2c.h ****     bool     masterPause;           /**< Stores how the master ends the transaction */
 717:Generated_Source\PSoC6\pdl\drivers/peripheral/scb/cy_scb_i2c.h ****     bool     masterRdDir;           /**< The direction of the master transaction */
 718:Generated_Source\PSoC6\pdl\drivers/peripheral/scb/cy_scb_i2c.h **** 
 719:Generated_Source\PSoC6\pdl\drivers/peripheral/scb/cy_scb_i2c.h ****     uint8_t  *masterBuffer;     /**< The pointer to the master buffer (either for a transmit or a r
 720:Generated_Source\PSoC6\pdl\drivers/peripheral/scb/cy_scb_i2c.h ****     uint32_t  masterBufferSize;         /**< The current master buffer size */
 721:Generated_Source\PSoC6\pdl\drivers/peripheral/scb/cy_scb_i2c.h ****     volatile uint32_t masterBufferIdx;  /**< The current location in the master buffer */
 722:Generated_Source\PSoC6\pdl\drivers/peripheral/scb/cy_scb_i2c.h ****     volatile uint32_t masterNumBytes;   /**< The number of bytes to send or receive */
 723:Generated_Source\PSoC6\pdl\drivers/peripheral/scb/cy_scb_i2c.h **** 
 724:Generated_Source\PSoC6\pdl\drivers/peripheral/scb/cy_scb_i2c.h ****     volatile uint32_t slaveStatus;       /**< The slave status */
 725:Generated_Source\PSoC6\pdl\drivers/peripheral/scb/cy_scb_i2c.h ****     volatile bool     slaveRdBufEmpty;   /**< Tracks slave Read buffer empty event */
 726:Generated_Source\PSoC6\pdl\drivers/peripheral/scb/cy_scb_i2c.h **** 
 727:Generated_Source\PSoC6\pdl\drivers/peripheral/scb/cy_scb_i2c.h ****     uint8_t  *slaveTxBuffer;             /**< The pointer to the slave transmit buffer (a master re
 728:Generated_Source\PSoC6\pdl\drivers/peripheral/scb/cy_scb_i2c.h ****     uint32_t  slaveTxBufferSize;         /**< The current slave transmit buffer size */
 729:Generated_Source\PSoC6\pdl\drivers/peripheral/scb/cy_scb_i2c.h ****     volatile uint32_t slaveTxBufferIdx;  /**< The current location in the slave buffer */
 730:Generated_Source\PSoC6\pdl\drivers/peripheral/scb/cy_scb_i2c.h ****     volatile uint32_t slaveTxBufferCnt;  /**< The number of transferred bytes */
 731:Generated_Source\PSoC6\pdl\drivers/peripheral/scb/cy_scb_i2c.h **** 
 732:Generated_Source\PSoC6\pdl\drivers/peripheral/scb/cy_scb_i2c.h ****     uint8_t  *slaveRxBuffer;             /**< The pointer to the slave receive buffer (a master wri
 733:Generated_Source\PSoC6\pdl\drivers/peripheral/scb/cy_scb_i2c.h ****     uint32_t  slaveRxBufferSize;         /**< The current slave receive buffer size */
 734:Generated_Source\PSoC6\pdl\drivers/peripheral/scb/cy_scb_i2c.h ****     volatile uint32_t slaveRxBufferIdx;  /**< The current location in the slave buffer */
 735:Generated_Source\PSoC6\pdl\drivers/peripheral/scb/cy_scb_i2c.h **** 
 736:Generated_Source\PSoC6\pdl\drivers/peripheral/scb/cy_scb_i2c.h ****     /**
 737:Generated_Source\PSoC6\pdl\drivers/peripheral/scb/cy_scb_i2c.h ****     * The pointer to an event callback that is called when any of
 738:Generated_Source\PSoC6\pdl\drivers/peripheral/scb/cy_scb_i2c.h ****     * \ref group_scb_i2c_macros_callback_events occurs
 739:Generated_Source\PSoC6\pdl\drivers/peripheral/scb/cy_scb_i2c.h ****     */
 740:Generated_Source\PSoC6\pdl\drivers/peripheral/scb/cy_scb_i2c.h ****     cy_cb_scb_i2c_handle_events_t cbEvents;
 741:Generated_Source\PSoC6\pdl\drivers/peripheral/scb/cy_scb_i2c.h **** 
 742:Generated_Source\PSoC6\pdl\drivers/peripheral/scb/cy_scb_i2c.h ****     /**
 743:Generated_Source\PSoC6\pdl\drivers/peripheral/scb/cy_scb_i2c.h ****     * The pointer to an address callback that is called when any of
 744:Generated_Source\PSoC6\pdl\drivers/peripheral/scb/cy_scb_i2c.h ****     * \ref group_scb_i2c_macros_addr_callback_events occurs (applicable only
 745:Generated_Source\PSoC6\pdl\drivers/peripheral/scb/cy_scb_i2c.h ****     * for the slave)
 746:Generated_Source\PSoC6\pdl\drivers/peripheral/scb/cy_scb_i2c.h ****     */
ARM GAS  C:\Users\guill\AppData\Local\Temp\cclz5xua.s 			page 34


 747:Generated_Source\PSoC6\pdl\drivers/peripheral/scb/cy_scb_i2c.h ****     cy_cb_scb_i2c_handle_addr_t   cbAddr;
 748:Generated_Source\PSoC6\pdl\drivers/peripheral/scb/cy_scb_i2c.h **** 
 749:Generated_Source\PSoC6\pdl\drivers/peripheral/scb/cy_scb_i2c.h ****     /** \endcond */
 750:Generated_Source\PSoC6\pdl\drivers/peripheral/scb/cy_scb_i2c.h **** } cy_stc_scb_i2c_context_t;
 751:Generated_Source\PSoC6\pdl\drivers/peripheral/scb/cy_scb_i2c.h **** 
 752:Generated_Source\PSoC6\pdl\drivers/peripheral/scb/cy_scb_i2c.h **** /** The I2C Master transfer structure */
 753:Generated_Source\PSoC6\pdl\drivers/peripheral/scb/cy_scb_i2c.h **** typedef struct cy_stc_scb_i2c_master_xfer_config
 754:Generated_Source\PSoC6\pdl\drivers/peripheral/scb/cy_scb_i2c.h **** {
 755:Generated_Source\PSoC6\pdl\drivers/peripheral/scb/cy_scb_i2c.h ****     /** The 7-bit right justified slave address to communicate with */
 756:Generated_Source\PSoC6\pdl\drivers/peripheral/scb/cy_scb_i2c.h ****     uint8_t  slaveAddress;
 757:Generated_Source\PSoC6\pdl\drivers/peripheral/scb/cy_scb_i2c.h **** 
 758:Generated_Source\PSoC6\pdl\drivers/peripheral/scb/cy_scb_i2c.h ****     /**
 759:Generated_Source\PSoC6\pdl\drivers/peripheral/scb/cy_scb_i2c.h ****     * The pointer to the buffer for data to read from the slave or 
 760:Generated_Source\PSoC6\pdl\drivers/peripheral/scb/cy_scb_i2c.h ****     * data to write into the slave
 761:Generated_Source\PSoC6\pdl\drivers/peripheral/scb/cy_scb_i2c.h ****     */
 762:Generated_Source\PSoC6\pdl\drivers/peripheral/scb/cy_scb_i2c.h ****     uint8_t  *buffer;
 763:Generated_Source\PSoC6\pdl\drivers/peripheral/scb/cy_scb_i2c.h **** 
 764:Generated_Source\PSoC6\pdl\drivers/peripheral/scb/cy_scb_i2c.h ****     /** The size of the buffer */
 765:Generated_Source\PSoC6\pdl\drivers/peripheral/scb/cy_scb_i2c.h ****     uint32_t bufferSize;
 766:Generated_Source\PSoC6\pdl\drivers/peripheral/scb/cy_scb_i2c.h **** 
 767:Generated_Source\PSoC6\pdl\drivers/peripheral/scb/cy_scb_i2c.h ****     /**
 768:Generated_Source\PSoC6\pdl\drivers/peripheral/scb/cy_scb_i2c.h ****     * The transfer operation is pending - the stop condition will not
 769:Generated_Source\PSoC6\pdl\drivers/peripheral/scb/cy_scb_i2c.h ****     * be generated. 
 770:Generated_Source\PSoC6\pdl\drivers/peripheral/scb/cy_scb_i2c.h ****     * A new transfer starts from start condition and ends 
 771:Generated_Source\PSoC6\pdl\drivers/peripheral/scb/cy_scb_i2c.h ****     * with or without stop condition. The stop condition releases I2C 
 772:Generated_Source\PSoC6\pdl\drivers/peripheral/scb/cy_scb_i2c.h ****     * bus from master control. When stop is not generated master keeps 
 773:Generated_Source\PSoC6\pdl\drivers/peripheral/scb/cy_scb_i2c.h ****     * bus control (transfer is pending) and can issue the next transfer 
 774:Generated_Source\PSoC6\pdl\drivers/peripheral/scb/cy_scb_i2c.h ****     * using restart condition instead of start. The I2C driver 
 775:Generated_Source\PSoC6\pdl\drivers/peripheral/scb/cy_scb_i2c.h ****     * automatically generates start or restart condition depends on 
 776:Generated_Source\PSoC6\pdl\drivers/peripheral/scb/cy_scb_i2c.h ****     * current state.
 777:Generated_Source\PSoC6\pdl\drivers/peripheral/scb/cy_scb_i2c.h ****     * Note if master lost arbitration during transfer it stops control 
 778:Generated_Source\PSoC6\pdl\drivers/peripheral/scb/cy_scb_i2c.h ****     * the bus and does not send/receive data or generate stop condition - the 
 779:Generated_Source\PSoC6\pdl\drivers/peripheral/scb/cy_scb_i2c.h ****     * transfer ends.
 780:Generated_Source\PSoC6\pdl\drivers/peripheral/scb/cy_scb_i2c.h ****     */
 781:Generated_Source\PSoC6\pdl\drivers/peripheral/scb/cy_scb_i2c.h ****     bool     xferPending;
 782:Generated_Source\PSoC6\pdl\drivers/peripheral/scb/cy_scb_i2c.h **** } cy_stc_scb_i2c_master_xfer_config_t;
 783:Generated_Source\PSoC6\pdl\drivers/peripheral/scb/cy_scb_i2c.h **** /** \} group_scb_i2c_data_structures */
 784:Generated_Source\PSoC6\pdl\drivers/peripheral/scb/cy_scb_i2c.h **** 
 785:Generated_Source\PSoC6\pdl\drivers/peripheral/scb/cy_scb_i2c.h **** 
 786:Generated_Source\PSoC6\pdl\drivers/peripheral/scb/cy_scb_i2c.h **** /*******************************************************************************
 787:Generated_Source\PSoC6\pdl\drivers/peripheral/scb/cy_scb_i2c.h **** *                            Function Prototypes
 788:Generated_Source\PSoC6\pdl\drivers/peripheral/scb/cy_scb_i2c.h **** *******************************************************************************/
 789:Generated_Source\PSoC6\pdl\drivers/peripheral/scb/cy_scb_i2c.h **** 
 790:Generated_Source\PSoC6\pdl\drivers/peripheral/scb/cy_scb_i2c.h **** /**
 791:Generated_Source\PSoC6\pdl\drivers/peripheral/scb/cy_scb_i2c.h **** * \addtogroup group_scb_i2c_general_functions
 792:Generated_Source\PSoC6\pdl\drivers/peripheral/scb/cy_scb_i2c.h **** * \{
 793:Generated_Source\PSoC6\pdl\drivers/peripheral/scb/cy_scb_i2c.h **** */
 794:Generated_Source\PSoC6\pdl\drivers/peripheral/scb/cy_scb_i2c.h **** cy_en_scb_i2c_status_t Cy_SCB_I2C_Init(CySCB_Type *base, cy_stc_scb_i2c_config_t const *config,
 795:Generated_Source\PSoC6\pdl\drivers/peripheral/scb/cy_scb_i2c.h ****                                        cy_stc_scb_i2c_context_t *context);
 796:Generated_Source\PSoC6\pdl\drivers/peripheral/scb/cy_scb_i2c.h **** void Cy_SCB_I2C_DeInit(CySCB_Type *base);
 797:Generated_Source\PSoC6\pdl\drivers/peripheral/scb/cy_scb_i2c.h **** __STATIC_INLINE void Cy_SCB_I2C_Enable(CySCB_Type *base);
 798:Generated_Source\PSoC6\pdl\drivers/peripheral/scb/cy_scb_i2c.h **** void Cy_SCB_I2C_Disable(CySCB_Type *base, cy_stc_scb_i2c_context_t *context);
 799:Generated_Source\PSoC6\pdl\drivers/peripheral/scb/cy_scb_i2c.h **** 
 800:Generated_Source\PSoC6\pdl\drivers/peripheral/scb/cy_scb_i2c.h **** uint32_t Cy_SCB_I2C_SetDataRate(CySCB_Type *base, uint32_t dataRateHz, uint32_t scbClockHz);
 801:Generated_Source\PSoC6\pdl\drivers/peripheral/scb/cy_scb_i2c.h **** uint32_t Cy_SCB_I2C_GetDataRate(CySCB_Type const *base, uint32_t scbClockHz);
 802:Generated_Source\PSoC6\pdl\drivers/peripheral/scb/cy_scb_i2c.h **** 
 803:Generated_Source\PSoC6\pdl\drivers/peripheral/scb/cy_scb_i2c.h **** __STATIC_INLINE void     Cy_SCB_I2C_SlaveSetAddress(CySCB_Type *base, uint8_t addr);
ARM GAS  C:\Users\guill\AppData\Local\Temp\cclz5xua.s 			page 35


 804:Generated_Source\PSoC6\pdl\drivers/peripheral/scb/cy_scb_i2c.h **** __STATIC_INLINE uint32_t Cy_SCB_I2C_SlaveGetAddress(CySCB_Type const *base);
 805:Generated_Source\PSoC6\pdl\drivers/peripheral/scb/cy_scb_i2c.h **** __STATIC_INLINE void     Cy_SCB_I2C_SlaveSetAddressMask(CySCB_Type *base, uint8_t addrMask);
 806:Generated_Source\PSoC6\pdl\drivers/peripheral/scb/cy_scb_i2c.h **** __STATIC_INLINE uint32_t Cy_SCB_I2C_SlaveGetAddressMask(CySCB_Type const *base);
 807:Generated_Source\PSoC6\pdl\drivers/peripheral/scb/cy_scb_i2c.h **** 
 808:Generated_Source\PSoC6\pdl\drivers/peripheral/scb/cy_scb_i2c.h **** __STATIC_INLINE bool Cy_SCB_I2C_IsBusBusy(CySCB_Type const *base);
 809:Generated_Source\PSoC6\pdl\drivers/peripheral/scb/cy_scb_i2c.h **** 
 810:Generated_Source\PSoC6\pdl\drivers/peripheral/scb/cy_scb_i2c.h **** __STATIC_INLINE void Cy_SCB_I2C_MasterSetLowPhaseDutyCycle (CySCB_Type *base, uint32_t clockCycles)
 811:Generated_Source\PSoC6\pdl\drivers/peripheral/scb/cy_scb_i2c.h **** __STATIC_INLINE void Cy_SCB_I2C_MasterSetHighPhaseDutyCycle(CySCB_Type *base, uint32_t clockCycles)
 812:Generated_Source\PSoC6\pdl\drivers/peripheral/scb/cy_scb_i2c.h **** /** \} group_scb_i2c_general_functions */
 813:Generated_Source\PSoC6\pdl\drivers/peripheral/scb/cy_scb_i2c.h **** 
 814:Generated_Source\PSoC6\pdl\drivers/peripheral/scb/cy_scb_i2c.h **** /**
 815:Generated_Source\PSoC6\pdl\drivers/peripheral/scb/cy_scb_i2c.h **** * \addtogroup group_scb_i2c_slave_functions
 816:Generated_Source\PSoC6\pdl\drivers/peripheral/scb/cy_scb_i2c.h **** * \{
 817:Generated_Source\PSoC6\pdl\drivers/peripheral/scb/cy_scb_i2c.h **** */
 818:Generated_Source\PSoC6\pdl\drivers/peripheral/scb/cy_scb_i2c.h **** void Cy_SCB_I2C_SlaveConfigReadBuf (CySCB_Type const *base, uint8_t *buffer, uint32_t size,
 819:Generated_Source\PSoC6\pdl\drivers/peripheral/scb/cy_scb_i2c.h ****                                     cy_stc_scb_i2c_context_t *context);
 820:Generated_Source\PSoC6\pdl\drivers/peripheral/scb/cy_scb_i2c.h **** void Cy_SCB_I2C_SlaveAbortRead     (CySCB_Type *base, cy_stc_scb_i2c_context_t *context);
 821:Generated_Source\PSoC6\pdl\drivers/peripheral/scb/cy_scb_i2c.h **** void Cy_SCB_I2C_SlaveConfigWriteBuf(CySCB_Type const *base, uint8_t *buffer, uint32_t size,
 822:Generated_Source\PSoC6\pdl\drivers/peripheral/scb/cy_scb_i2c.h ****                                     cy_stc_scb_i2c_context_t *context);
 823:Generated_Source\PSoC6\pdl\drivers/peripheral/scb/cy_scb_i2c.h **** void Cy_SCB_I2C_SlaveAbortWrite    (CySCB_Type *base, cy_stc_scb_i2c_context_t *context);
 824:Generated_Source\PSoC6\pdl\drivers/peripheral/scb/cy_scb_i2c.h **** 
 825:Generated_Source\PSoC6\pdl\drivers/peripheral/scb/cy_scb_i2c.h **** uint32_t Cy_SCB_I2C_SlaveGetStatus       (CySCB_Type const *base, cy_stc_scb_i2c_context_t const *c
 826:Generated_Source\PSoC6\pdl\drivers/peripheral/scb/cy_scb_i2c.h **** uint32_t Cy_SCB_I2C_SlaveClearReadStatus (CySCB_Type const *base, cy_stc_scb_i2c_context_t *context
 827:Generated_Source\PSoC6\pdl\drivers/peripheral/scb/cy_scb_i2c.h **** uint32_t Cy_SCB_I2C_SlaveClearWriteStatus(CySCB_Type const *base, cy_stc_scb_i2c_context_t *context
 828:Generated_Source\PSoC6\pdl\drivers/peripheral/scb/cy_scb_i2c.h **** 
 829:Generated_Source\PSoC6\pdl\drivers/peripheral/scb/cy_scb_i2c.h **** uint32_t Cy_SCB_I2C_SlaveGetReadTransferCount (CySCB_Type const *base, cy_stc_scb_i2c_context_t con
 830:Generated_Source\PSoC6\pdl\drivers/peripheral/scb/cy_scb_i2c.h **** uint32_t Cy_SCB_I2C_SlaveGetWriteTransferCount(CySCB_Type const *base, cy_stc_scb_i2c_context_t con
 831:Generated_Source\PSoC6\pdl\drivers/peripheral/scb/cy_scb_i2c.h **** /** \} group_scb_i2c_slave_functions */
 832:Generated_Source\PSoC6\pdl\drivers/peripheral/scb/cy_scb_i2c.h **** 
 833:Generated_Source\PSoC6\pdl\drivers/peripheral/scb/cy_scb_i2c.h **** /**
 834:Generated_Source\PSoC6\pdl\drivers/peripheral/scb/cy_scb_i2c.h **** * \addtogroup group_scb_i2c_master_high_level_functions
 835:Generated_Source\PSoC6\pdl\drivers/peripheral/scb/cy_scb_i2c.h **** * \{
 836:Generated_Source\PSoC6\pdl\drivers/peripheral/scb/cy_scb_i2c.h **** */
 837:Generated_Source\PSoC6\pdl\drivers/peripheral/scb/cy_scb_i2c.h **** cy_en_scb_i2c_status_t Cy_SCB_I2C_MasterWrite(CySCB_Type *base, cy_stc_scb_i2c_master_xfer_config_t
 838:Generated_Source\PSoC6\pdl\drivers/peripheral/scb/cy_scb_i2c.h ****                                               cy_stc_scb_i2c_context_t *context);
 839:Generated_Source\PSoC6\pdl\drivers/peripheral/scb/cy_scb_i2c.h **** void     Cy_SCB_I2C_MasterAbortWrite         (CySCB_Type *base, cy_stc_scb_i2c_context_t *context);
 840:Generated_Source\PSoC6\pdl\drivers/peripheral/scb/cy_scb_i2c.h **** cy_en_scb_i2c_status_t Cy_SCB_I2C_MasterRead (CySCB_Type *base, cy_stc_scb_i2c_master_xfer_config_t
 841:Generated_Source\PSoC6\pdl\drivers/peripheral/scb/cy_scb_i2c.h ****                                               cy_stc_scb_i2c_context_t *context);
 842:Generated_Source\PSoC6\pdl\drivers/peripheral/scb/cy_scb_i2c.h **** void     Cy_SCB_I2C_MasterAbortRead          (CySCB_Type *base, cy_stc_scb_i2c_context_t *context);
 843:Generated_Source\PSoC6\pdl\drivers/peripheral/scb/cy_scb_i2c.h **** uint32_t Cy_SCB_I2C_MasterGetStatus          (CySCB_Type const *base, cy_stc_scb_i2c_context_t cons
 844:Generated_Source\PSoC6\pdl\drivers/peripheral/scb/cy_scb_i2c.h **** uint32_t Cy_SCB_I2C_MasterGetTransferCount   (CySCB_Type const *base, cy_stc_scb_i2c_context_t cons
 845:Generated_Source\PSoC6\pdl\drivers/peripheral/scb/cy_scb_i2c.h **** /** \} group_scb_i2c_master_low_high_functions */
 846:Generated_Source\PSoC6\pdl\drivers/peripheral/scb/cy_scb_i2c.h **** 
 847:Generated_Source\PSoC6\pdl\drivers/peripheral/scb/cy_scb_i2c.h **** /**
 848:Generated_Source\PSoC6\pdl\drivers/peripheral/scb/cy_scb_i2c.h **** * \addtogroup group_scb_i2c_master_low_level_functions
 849:Generated_Source\PSoC6\pdl\drivers/peripheral/scb/cy_scb_i2c.h **** * \{
 850:Generated_Source\PSoC6\pdl\drivers/peripheral/scb/cy_scb_i2c.h **** */
 851:Generated_Source\PSoC6\pdl\drivers/peripheral/scb/cy_scb_i2c.h **** cy_en_scb_i2c_status_t Cy_SCB_I2C_MasterSendStart  (CySCB_Type *base, uint32_t address, cy_en_scb_i
 852:Generated_Source\PSoC6\pdl\drivers/peripheral/scb/cy_scb_i2c.h ****                                                     uint32_t timeoutMs, cy_stc_scb_i2c_context_t *c
 853:Generated_Source\PSoC6\pdl\drivers/peripheral/scb/cy_scb_i2c.h **** cy_en_scb_i2c_status_t Cy_SCB_I2C_MasterSendReStart(CySCB_Type *base, uint32_t address, cy_en_scb_i
 854:Generated_Source\PSoC6\pdl\drivers/peripheral/scb/cy_scb_i2c.h ****                                                     uint32_t timeoutMs, cy_stc_scb_i2c_context_t *c
 855:Generated_Source\PSoC6\pdl\drivers/peripheral/scb/cy_scb_i2c.h **** cy_en_scb_i2c_status_t Cy_SCB_I2C_MasterSendStop   (CySCB_Type *base,uint32_t timeoutMs, cy_stc_scb
 856:Generated_Source\PSoC6\pdl\drivers/peripheral/scb/cy_scb_i2c.h **** cy_en_scb_i2c_status_t Cy_SCB_I2C_MasterReadByte   (CySCB_Type *base, cy_en_scb_i2c_command_t ackNa
 857:Generated_Source\PSoC6\pdl\drivers/peripheral/scb/cy_scb_i2c.h ****                                                     uint32_t timeoutMs, cy_stc_scb_i2c_context_t *c
 858:Generated_Source\PSoC6\pdl\drivers/peripheral/scb/cy_scb_i2c.h **** cy_en_scb_i2c_status_t Cy_SCB_I2C_MasterWriteByte  (CySCB_Type *base, uint8_t byte, uint32_t timeou
 859:Generated_Source\PSoC6\pdl\drivers/peripheral/scb/cy_scb_i2c.h ****                                                     cy_stc_scb_i2c_context_t *context);
 860:Generated_Source\PSoC6\pdl\drivers/peripheral/scb/cy_scb_i2c.h **** /** \} group_scb_i2c_master_low_level_functions */
ARM GAS  C:\Users\guill\AppData\Local\Temp\cclz5xua.s 			page 36


 861:Generated_Source\PSoC6\pdl\drivers/peripheral/scb/cy_scb_i2c.h **** 
 862:Generated_Source\PSoC6\pdl\drivers/peripheral/scb/cy_scb_i2c.h **** /**
 863:Generated_Source\PSoC6\pdl\drivers/peripheral/scb/cy_scb_i2c.h **** * \addtogroup group_scb_i2c_interrupt_functions
 864:Generated_Source\PSoC6\pdl\drivers/peripheral/scb/cy_scb_i2c.h **** * \{
 865:Generated_Source\PSoC6\pdl\drivers/peripheral/scb/cy_scb_i2c.h **** */
 866:Generated_Source\PSoC6\pdl\drivers/peripheral/scb/cy_scb_i2c.h **** void Cy_SCB_I2C_Interrupt      (CySCB_Type *base, cy_stc_scb_i2c_context_t *context);
 867:Generated_Source\PSoC6\pdl\drivers/peripheral/scb/cy_scb_i2c.h **** void Cy_SCB_I2C_SlaveInterrupt (CySCB_Type *base, cy_stc_scb_i2c_context_t *context);
 868:Generated_Source\PSoC6\pdl\drivers/peripheral/scb/cy_scb_i2c.h **** void Cy_SCB_I2C_MasterInterrupt (CySCB_Type *base, cy_stc_scb_i2c_context_t *context);
 869:Generated_Source\PSoC6\pdl\drivers/peripheral/scb/cy_scb_i2c.h **** 
 870:Generated_Source\PSoC6\pdl\drivers/peripheral/scb/cy_scb_i2c.h **** __STATIC_INLINE void Cy_SCB_I2C_RegisterEventCallback(CySCB_Type const *base, cy_cb_scb_i2c_handle_
 871:Generated_Source\PSoC6\pdl\drivers/peripheral/scb/cy_scb_i2c.h ****                                                       cy_stc_scb_i2c_context_t *context);
 872:Generated_Source\PSoC6\pdl\drivers/peripheral/scb/cy_scb_i2c.h **** __STATIC_INLINE void Cy_SCB_I2C_RegisterAddrCallback (CySCB_Type const *base, cy_cb_scb_i2c_handle_
 873:Generated_Source\PSoC6\pdl\drivers/peripheral/scb/cy_scb_i2c.h ****                                                       cy_stc_scb_i2c_context_t *context);
 874:Generated_Source\PSoC6\pdl\drivers/peripheral/scb/cy_scb_i2c.h **** /** \} group_scb_i2c_interrupt_functions */
 875:Generated_Source\PSoC6\pdl\drivers/peripheral/scb/cy_scb_i2c.h **** 
 876:Generated_Source\PSoC6\pdl\drivers/peripheral/scb/cy_scb_i2c.h **** /**
 877:Generated_Source\PSoC6\pdl\drivers/peripheral/scb/cy_scb_i2c.h **** * \addtogroup group_scb_i2c_low_power_functions
 878:Generated_Source\PSoC6\pdl\drivers/peripheral/scb/cy_scb_i2c.h **** * \{
 879:Generated_Source\PSoC6\pdl\drivers/peripheral/scb/cy_scb_i2c.h **** */
 880:Generated_Source\PSoC6\pdl\drivers/peripheral/scb/cy_scb_i2c.h **** cy_en_syspm_status_t Cy_SCB_I2C_DeepSleepCallback(cy_stc_syspm_callback_params_t *callbackParams, c
 881:Generated_Source\PSoC6\pdl\drivers/peripheral/scb/cy_scb_i2c.h **** cy_en_syspm_status_t Cy_SCB_I2C_HibernateCallback(cy_stc_syspm_callback_params_t *callbackParams, c
 882:Generated_Source\PSoC6\pdl\drivers/peripheral/scb/cy_scb_i2c.h **** /** \} group_scb_i2c_low_power_functions */
 883:Generated_Source\PSoC6\pdl\drivers/peripheral/scb/cy_scb_i2c.h **** 
 884:Generated_Source\PSoC6\pdl\drivers/peripheral/scb/cy_scb_i2c.h **** 
 885:Generated_Source\PSoC6\pdl\drivers/peripheral/scb/cy_scb_i2c.h **** /*******************************************************************************
 886:Generated_Source\PSoC6\pdl\drivers/peripheral/scb/cy_scb_i2c.h **** *                               API Constants
 887:Generated_Source\PSoC6\pdl\drivers/peripheral/scb/cy_scb_i2c.h **** *******************************************************************************/
 888:Generated_Source\PSoC6\pdl\drivers/peripheral/scb/cy_scb_i2c.h **** 
 889:Generated_Source\PSoC6\pdl\drivers/peripheral/scb/cy_scb_i2c.h **** /**
 890:Generated_Source\PSoC6\pdl\drivers/peripheral/scb/cy_scb_i2c.h **** * \addtogroup group_scb_i2c_macros
 891:Generated_Source\PSoC6\pdl\drivers/peripheral/scb/cy_scb_i2c.h **** * \{
 892:Generated_Source\PSoC6\pdl\drivers/peripheral/scb/cy_scb_i2c.h **** */
 893:Generated_Source\PSoC6\pdl\drivers/peripheral/scb/cy_scb_i2c.h **** 
 894:Generated_Source\PSoC6\pdl\drivers/peripheral/scb/cy_scb_i2c.h **** /**
 895:Generated_Source\PSoC6\pdl\drivers/peripheral/scb/cy_scb_i2c.h **** * \defgroup group_scb_i2c_macros_slave_status I2C Slave Status
 896:Generated_Source\PSoC6\pdl\drivers/peripheral/scb/cy_scb_i2c.h **** * Macros to check current I2C slave status returned by 
 897:Generated_Source\PSoC6\pdl\drivers/peripheral/scb/cy_scb_i2c.h **** * \ref Cy_SCB_I2C_SlaveGetStatus function. Each I2C slave status is encoded 
 898:Generated_Source\PSoC6\pdl\drivers/peripheral/scb/cy_scb_i2c.h **** * in a separate bit, therefore multiple bits may be set to indicate the 
 899:Generated_Source\PSoC6\pdl\drivers/peripheral/scb/cy_scb_i2c.h **** * current status.
 900:Generated_Source\PSoC6\pdl\drivers/peripheral/scb/cy_scb_i2c.h **** * \{
 901:Generated_Source\PSoC6\pdl\drivers/peripheral/scb/cy_scb_i2c.h **** */
 902:Generated_Source\PSoC6\pdl\drivers/peripheral/scb/cy_scb_i2c.h **** /** There is a read transaction in progress */
 903:Generated_Source\PSoC6\pdl\drivers/peripheral/scb/cy_scb_i2c.h **** #define CY_SCB_I2C_SLAVE_RD_BUSY       (0x00000001UL)
 904:Generated_Source\PSoC6\pdl\drivers/peripheral/scb/cy_scb_i2c.h **** 
 905:Generated_Source\PSoC6\pdl\drivers/peripheral/scb/cy_scb_i2c.h **** /**
 906:Generated_Source\PSoC6\pdl\drivers/peripheral/scb/cy_scb_i2c.h **** * All read data has been loaded into the TX FIFO, applicable only if
 907:Generated_Source\PSoC6\pdl\drivers/peripheral/scb/cy_scb_i2c.h **** * the TX FIFO is used
 908:Generated_Source\PSoC6\pdl\drivers/peripheral/scb/cy_scb_i2c.h **** */
 909:Generated_Source\PSoC6\pdl\drivers/peripheral/scb/cy_scb_i2c.h **** #define CY_SCB_I2C_SLAVE_RD_IN_FIFO    (0x00000002UL)
 910:Generated_Source\PSoC6\pdl\drivers/peripheral/scb/cy_scb_i2c.h **** 
 911:Generated_Source\PSoC6\pdl\drivers/peripheral/scb/cy_scb_i2c.h **** /**
 912:Generated_Source\PSoC6\pdl\drivers/peripheral/scb/cy_scb_i2c.h **** * The master has finished reading data from the slave
 913:Generated_Source\PSoC6\pdl\drivers/peripheral/scb/cy_scb_i2c.h **** */
 914:Generated_Source\PSoC6\pdl\drivers/peripheral/scb/cy_scb_i2c.h **** #define CY_SCB_I2C_SLAVE_RD_CMPLT      (0x00000004UL)
 915:Generated_Source\PSoC6\pdl\drivers/peripheral/scb/cy_scb_i2c.h **** 
 916:Generated_Source\PSoC6\pdl\drivers/peripheral/scb/cy_scb_i2c.h **** /**
 917:Generated_Source\PSoC6\pdl\drivers/peripheral/scb/cy_scb_i2c.h **** * Set when the master tried to read more bytes than available in the configured
ARM GAS  C:\Users\guill\AppData\Local\Temp\cclz5xua.s 			page 37


 918:Generated_Source\PSoC6\pdl\drivers/peripheral/scb/cy_scb_i2c.h **** * read buffer. The slave is not able to finish the transaction and sends
 919:Generated_Source\PSoC6\pdl\drivers/peripheral/scb/cy_scb_i2c.h **** * \ref CY_SCB_I2C_DEFAULT_TX.
 920:Generated_Source\PSoC6\pdl\drivers/peripheral/scb/cy_scb_i2c.h **** */
 921:Generated_Source\PSoC6\pdl\drivers/peripheral/scb/cy_scb_i2c.h **** #define CY_SCB_I2C_SLAVE_RD_UNDRFL     (0x00000008UL)
 922:Generated_Source\PSoC6\pdl\drivers/peripheral/scb/cy_scb_i2c.h **** 
 923:Generated_Source\PSoC6\pdl\drivers/peripheral/scb/cy_scb_i2c.h **** /** There is a write transaction in progress */
 924:Generated_Source\PSoC6\pdl\drivers/peripheral/scb/cy_scb_i2c.h **** #define CY_SCB_I2C_SLAVE_WR_BUSY       (0x00000010UL)
 925:Generated_Source\PSoC6\pdl\drivers/peripheral/scb/cy_scb_i2c.h **** 
 926:Generated_Source\PSoC6\pdl\drivers/peripheral/scb/cy_scb_i2c.h **** /**
 927:Generated_Source\PSoC6\pdl\drivers/peripheral/scb/cy_scb_i2c.h **** * The master has finished writing data into the slave
 928:Generated_Source\PSoC6\pdl\drivers/peripheral/scb/cy_scb_i2c.h **** */
 929:Generated_Source\PSoC6\pdl\drivers/peripheral/scb/cy_scb_i2c.h **** #define CY_SCB_I2C_SLAVE_WR_CMPLT      (0x00000020UL)
 930:Generated_Source\PSoC6\pdl\drivers/peripheral/scb/cy_scb_i2c.h **** 
 931:Generated_Source\PSoC6\pdl\drivers/peripheral/scb/cy_scb_i2c.h **** /**
 932:Generated_Source\PSoC6\pdl\drivers/peripheral/scb/cy_scb_i2c.h **** * The master attempted to write more bytes than space available in the
 933:Generated_Source\PSoC6\pdl\drivers/peripheral/scb/cy_scb_i2c.h **** * configured Write buffer. Note that all subsequent bytes are dropped.
 934:Generated_Source\PSoC6\pdl\drivers/peripheral/scb/cy_scb_i2c.h **** */
 935:Generated_Source\PSoC6\pdl\drivers/peripheral/scb/cy_scb_i2c.h **** #define CY_SCB_I2C_SLAVE_WR_OVRFL      (0x00000040UL)
 936:Generated_Source\PSoC6\pdl\drivers/peripheral/scb/cy_scb_i2c.h **** 
 937:Generated_Source\PSoC6\pdl\drivers/peripheral/scb/cy_scb_i2c.h **** /** The slave lost arbitration, and the transaction was aborted */
 938:Generated_Source\PSoC6\pdl\drivers/peripheral/scb/cy_scb_i2c.h **** #define CY_SCB_I2C_SLAVE_ARB_LOST      (0x00000080UL)
 939:Generated_Source\PSoC6\pdl\drivers/peripheral/scb/cy_scb_i2c.h **** 
 940:Generated_Source\PSoC6\pdl\drivers/peripheral/scb/cy_scb_i2c.h **** /**
 941:Generated_Source\PSoC6\pdl\drivers/peripheral/scb/cy_scb_i2c.h **** * The slave captured an error on the bus during a master transaction (source
 942:Generated_Source\PSoC6\pdl\drivers/peripheral/scb/cy_scb_i2c.h **** * of error is misplaced Start or Stop).
 943:Generated_Source\PSoC6\pdl\drivers/peripheral/scb/cy_scb_i2c.h **** */
 944:Generated_Source\PSoC6\pdl\drivers/peripheral/scb/cy_scb_i2c.h **** #define CY_SCB_I2C_SLAVE_BUS_ERR       (0x00000100UL)
 945:Generated_Source\PSoC6\pdl\drivers/peripheral/scb/cy_scb_i2c.h **** /** \} group_scb_i2c_macros_slave_status */
 946:Generated_Source\PSoC6\pdl\drivers/peripheral/scb/cy_scb_i2c.h **** 
 947:Generated_Source\PSoC6\pdl\drivers/peripheral/scb/cy_scb_i2c.h **** /**
 948:Generated_Source\PSoC6\pdl\drivers/peripheral/scb/cy_scb_i2c.h **** * \defgroup group_scb_i2c_macros_master_status I2C Master Status
 949:Generated_Source\PSoC6\pdl\drivers/peripheral/scb/cy_scb_i2c.h **** * Macros to check current I2C master status returned by 
 950:Generated_Source\PSoC6\pdl\drivers/peripheral/scb/cy_scb_i2c.h **** * \ref Cy_SCB_I2C_MasterGetStatus function. Each I2C master status is encoded 
 951:Generated_Source\PSoC6\pdl\drivers/peripheral/scb/cy_scb_i2c.h **** * in a separate bit, therefore multiple bits may be set to indicate the 
 952:Generated_Source\PSoC6\pdl\drivers/peripheral/scb/cy_scb_i2c.h **** * current status.
 953:Generated_Source\PSoC6\pdl\drivers/peripheral/scb/cy_scb_i2c.h **** * \{
 954:Generated_Source\PSoC6\pdl\drivers/peripheral/scb/cy_scb_i2c.h **** */
 955:Generated_Source\PSoC6\pdl\drivers/peripheral/scb/cy_scb_i2c.h **** 
 956:Generated_Source\PSoC6\pdl\drivers/peripheral/scb/cy_scb_i2c.h **** /**
 957:Generated_Source\PSoC6\pdl\drivers/peripheral/scb/cy_scb_i2c.h **** * The master is busy executing operation started by \ref Cy_SCB_I2C_MasterRead
 958:Generated_Source\PSoC6\pdl\drivers/peripheral/scb/cy_scb_i2c.h **** * or \ref Cy_SCB_I2C_MasterWrite
 959:Generated_Source\PSoC6\pdl\drivers/peripheral/scb/cy_scb_i2c.h **** */
 960:Generated_Source\PSoC6\pdl\drivers/peripheral/scb/cy_scb_i2c.h **** #define CY_SCB_I2C_MASTER_BUSY         (0x00010000UL)
 961:Generated_Source\PSoC6\pdl\drivers/peripheral/scb/cy_scb_i2c.h **** 
 962:Generated_Source\PSoC6\pdl\drivers/peripheral/scb/cy_scb_i2c.h **** /**
 963:Generated_Source\PSoC6\pdl\drivers/peripheral/scb/cy_scb_i2c.h **** * All Write data has been loaded into the TX FIFO
 964:Generated_Source\PSoC6\pdl\drivers/peripheral/scb/cy_scb_i2c.h **** */
 965:Generated_Source\PSoC6\pdl\drivers/peripheral/scb/cy_scb_i2c.h **** #define CY_SCB_I2C_MASTER_WR_IN_FIFO   (0x00020000UL)
 966:Generated_Source\PSoC6\pdl\drivers/peripheral/scb/cy_scb_i2c.h **** 
 967:Generated_Source\PSoC6\pdl\drivers/peripheral/scb/cy_scb_i2c.h **** /** The slave NACKed the address. */
 968:Generated_Source\PSoC6\pdl\drivers/peripheral/scb/cy_scb_i2c.h **** #define CY_SCB_I2C_MASTER_ADDR_NAK     (0x00100000UL)
 969:Generated_Source\PSoC6\pdl\drivers/peripheral/scb/cy_scb_i2c.h **** 
 970:Generated_Source\PSoC6\pdl\drivers/peripheral/scb/cy_scb_i2c.h **** /** Write completed before all bytes were sent (last byte was NAKed)
 971:Generated_Source\PSoC6\pdl\drivers/peripheral/scb/cy_scb_i2c.h **** */
 972:Generated_Source\PSoC6\pdl\drivers/peripheral/scb/cy_scb_i2c.h **** #define CY_SCB_I2C_MASTER_DATA_NAK     (0x00200000UL)
 973:Generated_Source\PSoC6\pdl\drivers/peripheral/scb/cy_scb_i2c.h **** 
 974:Generated_Source\PSoC6\pdl\drivers/peripheral/scb/cy_scb_i2c.h **** /** The master lost arbitration, the transaction was aborted */
ARM GAS  C:\Users\guill\AppData\Local\Temp\cclz5xua.s 			page 38


 975:Generated_Source\PSoC6\pdl\drivers/peripheral/scb/cy_scb_i2c.h **** #define CY_SCB_I2C_MASTER_ARB_LOST     (0x00400000UL)
 976:Generated_Source\PSoC6\pdl\drivers/peripheral/scb/cy_scb_i2c.h **** 
 977:Generated_Source\PSoC6\pdl\drivers/peripheral/scb/cy_scb_i2c.h **** /**
 978:Generated_Source\PSoC6\pdl\drivers/peripheral/scb/cy_scb_i2c.h **** * The master detected an erroneous start or stop, the transaction was aborted
 979:Generated_Source\PSoC6\pdl\drivers/peripheral/scb/cy_scb_i2c.h **** */
 980:Generated_Source\PSoC6\pdl\drivers/peripheral/scb/cy_scb_i2c.h **** #define CY_SCB_I2C_MASTER_BUS_ERR      (0x00800000UL)
 981:Generated_Source\PSoC6\pdl\drivers/peripheral/scb/cy_scb_i2c.h **** 
 982:Generated_Source\PSoC6\pdl\drivers/peripheral/scb/cy_scb_i2c.h **** /**
 983:Generated_Source\PSoC6\pdl\drivers/peripheral/scb/cy_scb_i2c.h **** * The master transaction was aborted and the slave transaction is on-going
 984:Generated_Source\PSoC6\pdl\drivers/peripheral/scb/cy_scb_i2c.h **** * because the slave was addressed before the master generated a start
 985:Generated_Source\PSoC6\pdl\drivers/peripheral/scb/cy_scb_i2c.h **** */
 986:Generated_Source\PSoC6\pdl\drivers/peripheral/scb/cy_scb_i2c.h **** #define CY_SCB_I2C_MASTER_ABORT_START  (0x01000000UL)
 987:Generated_Source\PSoC6\pdl\drivers/peripheral/scb/cy_scb_i2c.h **** /** \} group_scb_i2c_macros_master_status */
 988:Generated_Source\PSoC6\pdl\drivers/peripheral/scb/cy_scb_i2c.h **** 
 989:Generated_Source\PSoC6\pdl\drivers/peripheral/scb/cy_scb_i2c.h **** /**
 990:Generated_Source\PSoC6\pdl\drivers/peripheral/scb/cy_scb_i2c.h **** * \defgroup group_scb_i2c_macros_callback_events I2C Callback Events
 991:Generated_Source\PSoC6\pdl\drivers/peripheral/scb/cy_scb_i2c.h **** * \{
 992:Generated_Source\PSoC6\pdl\drivers/peripheral/scb/cy_scb_i2c.h **** * Macros to check I2C events passed by \ref cy_cb_scb_i2c_handle_events_t callback.
 993:Generated_Source\PSoC6\pdl\drivers/peripheral/scb/cy_scb_i2c.h **** * Each event is encoded in a separate bit, and therefore it is possible to
 994:Generated_Source\PSoC6\pdl\drivers/peripheral/scb/cy_scb_i2c.h **** * notify about multiple events.
 995:Generated_Source\PSoC6\pdl\drivers/peripheral/scb/cy_scb_i2c.h **** */
 996:Generated_Source\PSoC6\pdl\drivers/peripheral/scb/cy_scb_i2c.h **** /**
 997:Generated_Source\PSoC6\pdl\drivers/peripheral/scb/cy_scb_i2c.h **** * Indicates that the slave was addressed and the master wants to read data.
 998:Generated_Source\PSoC6\pdl\drivers/peripheral/scb/cy_scb_i2c.h **** * This event can be used to configure the slave Read buffer.
 999:Generated_Source\PSoC6\pdl\drivers/peripheral/scb/cy_scb_i2c.h **** */
1000:Generated_Source\PSoC6\pdl\drivers/peripheral/scb/cy_scb_i2c.h **** #define CY_SCB_I2C_SLAVE_READ_EVENT            (0x00000001UL)
1001:Generated_Source\PSoC6\pdl\drivers/peripheral/scb/cy_scb_i2c.h **** 
1002:Generated_Source\PSoC6\pdl\drivers/peripheral/scb/cy_scb_i2c.h **** /**
1003:Generated_Source\PSoC6\pdl\drivers/peripheral/scb/cy_scb_i2c.h **** * Indicates that the slave was addressed and the master wants to write data.
1004:Generated_Source\PSoC6\pdl\drivers/peripheral/scb/cy_scb_i2c.h **** * This event can be used to configure the slave Write buffer.
1005:Generated_Source\PSoC6\pdl\drivers/peripheral/scb/cy_scb_i2c.h **** */
1006:Generated_Source\PSoC6\pdl\drivers/peripheral/scb/cy_scb_i2c.h **** #define CY_SCB_I2C_SLAVE_WRITE_EVENT           (0x00000002UL)
1007:Generated_Source\PSoC6\pdl\drivers/peripheral/scb/cy_scb_i2c.h **** 
1008:Generated_Source\PSoC6\pdl\drivers/peripheral/scb/cy_scb_i2c.h **** /**
1009:Generated_Source\PSoC6\pdl\drivers/peripheral/scb/cy_scb_i2c.h **** * All slave data from the configured Read buffer has been loaded into the
1010:Generated_Source\PSoC6\pdl\drivers/peripheral/scb/cy_scb_i2c.h **** * TX FIFO. The content of the Read buffer can be modified. Applicable only
1011:Generated_Source\PSoC6\pdl\drivers/peripheral/scb/cy_scb_i2c.h **** * if the TX FIFO is used.
1012:Generated_Source\PSoC6\pdl\drivers/peripheral/scb/cy_scb_i2c.h **** */
1013:Generated_Source\PSoC6\pdl\drivers/peripheral/scb/cy_scb_i2c.h **** #define CY_SCB_I2C_SLAVE_RD_IN_FIFO_EVENT      (0x00000004UL)
1014:Generated_Source\PSoC6\pdl\drivers/peripheral/scb/cy_scb_i2c.h **** 
1015:Generated_Source\PSoC6\pdl\drivers/peripheral/scb/cy_scb_i2c.h **** /**
1016:Generated_Source\PSoC6\pdl\drivers/peripheral/scb/cy_scb_i2c.h **** * The master has read all data out of the configured Read buffer.
1017:Generated_Source\PSoC6\pdl\drivers/peripheral/scb/cy_scb_i2c.h **** * This event can be used to configure the next Read buffer. If the buffer
1018:Generated_Source\PSoC6\pdl\drivers/peripheral/scb/cy_scb_i2c.h **** * remains empty, the \ref CY_SCB_I2C_DEFAULT_TX bytes are returned to the master.
1019:Generated_Source\PSoC6\pdl\drivers/peripheral/scb/cy_scb_i2c.h **** */
1020:Generated_Source\PSoC6\pdl\drivers/peripheral/scb/cy_scb_i2c.h **** #define CY_SCB_I2C_SLAVE_RD_BUF_EMPTY_EVENT    (0x00000008UL)
1021:Generated_Source\PSoC6\pdl\drivers/peripheral/scb/cy_scb_i2c.h **** 
1022:Generated_Source\PSoC6\pdl\drivers/peripheral/scb/cy_scb_i2c.h **** /**
1023:Generated_Source\PSoC6\pdl\drivers/peripheral/scb/cy_scb_i2c.h **** * Indicates the master completed reading from the slave (set by the master NAK
1024:Generated_Source\PSoC6\pdl\drivers/peripheral/scb/cy_scb_i2c.h **** * or Stop)
1025:Generated_Source\PSoC6\pdl\drivers/peripheral/scb/cy_scb_i2c.h **** */
1026:Generated_Source\PSoC6\pdl\drivers/peripheral/scb/cy_scb_i2c.h **** #define CY_SCB_I2C_SLAVE_RD_CMPLT_EVENT        (0x00000010UL)
1027:Generated_Source\PSoC6\pdl\drivers/peripheral/scb/cy_scb_i2c.h **** 
1028:Generated_Source\PSoC6\pdl\drivers/peripheral/scb/cy_scb_i2c.h **** /**
1029:Generated_Source\PSoC6\pdl\drivers/peripheral/scb/cy_scb_i2c.h **** * Indicates the master completed writing to the slave (set by the master Stop
1030:Generated_Source\PSoC6\pdl\drivers/peripheral/scb/cy_scb_i2c.h **** * or Restart)
1031:Generated_Source\PSoC6\pdl\drivers/peripheral/scb/cy_scb_i2c.h **** */
ARM GAS  C:\Users\guill\AppData\Local\Temp\cclz5xua.s 			page 39


1032:Generated_Source\PSoC6\pdl\drivers/peripheral/scb/cy_scb_i2c.h **** #define CY_SCB_I2C_SLAVE_WR_CMPLT_EVENT        (0x00000020UL)
1033:Generated_Source\PSoC6\pdl\drivers/peripheral/scb/cy_scb_i2c.h **** 
1034:Generated_Source\PSoC6\pdl\drivers/peripheral/scb/cy_scb_i2c.h **** /**
1035:Generated_Source\PSoC6\pdl\drivers/peripheral/scb/cy_scb_i2c.h **** * Indicates the I2C hardware detected an error.
1036:Generated_Source\PSoC6\pdl\drivers/peripheral/scb/cy_scb_i2c.h **** * Check \ref Cy_SCB_I2C_SlaveGetStatus to determine the source of the error.
1037:Generated_Source\PSoC6\pdl\drivers/peripheral/scb/cy_scb_i2c.h **** */
1038:Generated_Source\PSoC6\pdl\drivers/peripheral/scb/cy_scb_i2c.h **** #define CY_SCB_I2C_SLAVE_ERR_EVENT             (0x00000040UL)
1039:Generated_Source\PSoC6\pdl\drivers/peripheral/scb/cy_scb_i2c.h **** 
1040:Generated_Source\PSoC6\pdl\drivers/peripheral/scb/cy_scb_i2c.h **** /**
1041:Generated_Source\PSoC6\pdl\drivers/peripheral/scb/cy_scb_i2c.h **** * All data specified by \ref Cy_SCB_I2C_MasterWrite has been loaded
1042:Generated_Source\PSoC6\pdl\drivers/peripheral/scb/cy_scb_i2c.h **** * into the TX FIFO. The content of the master write buffer can be modified.
1043:Generated_Source\PSoC6\pdl\drivers/peripheral/scb/cy_scb_i2c.h **** * Applicable only if the TX FIFO is used.
1044:Generated_Source\PSoC6\pdl\drivers/peripheral/scb/cy_scb_i2c.h **** */
1045:Generated_Source\PSoC6\pdl\drivers/peripheral/scb/cy_scb_i2c.h **** #define CY_SCB_I2C_MASTER_WR_IN_FIFO_EVENT     (0x00010000UL)
1046:Generated_Source\PSoC6\pdl\drivers/peripheral/scb/cy_scb_i2c.h **** 
1047:Generated_Source\PSoC6\pdl\drivers/peripheral/scb/cy_scb_i2c.h **** /** The master write started by \ref Cy_SCB_I2C_MasterWrite is complete */
1048:Generated_Source\PSoC6\pdl\drivers/peripheral/scb/cy_scb_i2c.h **** #define CY_SCB_I2C_MASTER_WR_CMPLT_EVENT       (0x00020000UL)
1049:Generated_Source\PSoC6\pdl\drivers/peripheral/scb/cy_scb_i2c.h **** 
1050:Generated_Source\PSoC6\pdl\drivers/peripheral/scb/cy_scb_i2c.h **** /** The master read started by \ref Cy_SCB_I2C_MasterRead is complete */
1051:Generated_Source\PSoC6\pdl\drivers/peripheral/scb/cy_scb_i2c.h **** #define CY_SCB_I2C_MASTER_RD_CMPLT_EVENT       (0x00040000UL)
1052:Generated_Source\PSoC6\pdl\drivers/peripheral/scb/cy_scb_i2c.h **** 
1053:Generated_Source\PSoC6\pdl\drivers/peripheral/scb/cy_scb_i2c.h **** /**
1054:Generated_Source\PSoC6\pdl\drivers/peripheral/scb/cy_scb_i2c.h **** * Indicates the I2C hardware has detected an error. It occurs together with
1055:Generated_Source\PSoC6\pdl\drivers/peripheral/scb/cy_scb_i2c.h **** * \ref CY_SCB_I2C_MASTER_RD_CMPLT_EVENT or \ref CY_SCB_I2C_MASTER_WR_CMPLT_EVENT
1056:Generated_Source\PSoC6\pdl\drivers/peripheral/scb/cy_scb_i2c.h **** * depends on the direction of the transfer.
1057:Generated_Source\PSoC6\pdl\drivers/peripheral/scb/cy_scb_i2c.h **** * Check \ref Cy_SCB_I2C_MasterGetStatus to determine the source of the error.
1058:Generated_Source\PSoC6\pdl\drivers/peripheral/scb/cy_scb_i2c.h **** */
1059:Generated_Source\PSoC6\pdl\drivers/peripheral/scb/cy_scb_i2c.h **** #define CY_SCB_I2C_MASTER_ERR_EVENT            (0x00080000UL)
1060:Generated_Source\PSoC6\pdl\drivers/peripheral/scb/cy_scb_i2c.h **** /** \} group_scb_i2c_macros_callback_events */
1061:Generated_Source\PSoC6\pdl\drivers/peripheral/scb/cy_scb_i2c.h **** 
1062:Generated_Source\PSoC6\pdl\drivers/peripheral/scb/cy_scb_i2c.h **** /**
1063:Generated_Source\PSoC6\pdl\drivers/peripheral/scb/cy_scb_i2c.h **** * \defgroup group_scb_i2c_macros_addr_callback_events I2C Address Callback Events
1064:Generated_Source\PSoC6\pdl\drivers/peripheral/scb/cy_scb_i2c.h **** * Macros to check I2C address events passed by \ref cy_cb_scb_i2c_handle_addr_t callback.
1065:Generated_Source\PSoC6\pdl\drivers/peripheral/scb/cy_scb_i2c.h **** * Each event is encoded in a separate bit and therefore it is possible to
1066:Generated_Source\PSoC6\pdl\drivers/peripheral/scb/cy_scb_i2c.h **** * notify about multiple events.
1067:Generated_Source\PSoC6\pdl\drivers/peripheral/scb/cy_scb_i2c.h **** * \{
1068:Generated_Source\PSoC6\pdl\drivers/peripheral/scb/cy_scb_i2c.h **** */
1069:Generated_Source\PSoC6\pdl\drivers/peripheral/scb/cy_scb_i2c.h **** /**
1070:Generated_Source\PSoC6\pdl\drivers/peripheral/scb/cy_scb_i2c.h **** * Indicates the slave was addressed by the general call address
1071:Generated_Source\PSoC6\pdl\drivers/peripheral/scb/cy_scb_i2c.h **** */
1072:Generated_Source\PSoC6\pdl\drivers/peripheral/scb/cy_scb_i2c.h **** #define CY_SCB_I2C_GENERAL_CALL_EVENT      (0x01UL)
1073:Generated_Source\PSoC6\pdl\drivers/peripheral/scb/cy_scb_i2c.h **** 
1074:Generated_Source\PSoC6\pdl\drivers/peripheral/scb/cy_scb_i2c.h **** /**
1075:Generated_Source\PSoC6\pdl\drivers/peripheral/scb/cy_scb_i2c.h **** * The slave address is in the RX FIFO.
1076:Generated_Source\PSoC6\pdl\drivers/peripheral/scb/cy_scb_i2c.h **** * Note that the address must be read from the RX FIFO using the
1077:Generated_Source\PSoC6\pdl\drivers/peripheral/scb/cy_scb_i2c.h **** * \ref Cy_SCB_ReadRxFifo function.
1078:Generated_Source\PSoC6\pdl\drivers/peripheral/scb/cy_scb_i2c.h **** */
1079:Generated_Source\PSoC6\pdl\drivers/peripheral/scb/cy_scb_i2c.h **** #define CY_SCB_I2C_ADDR_IN_FIFO_EVENT      (0x02UL)
1080:Generated_Source\PSoC6\pdl\drivers/peripheral/scb/cy_scb_i2c.h **** /** \} group_scb_i2c_macros_addr_callback_events */
1081:Generated_Source\PSoC6\pdl\drivers/peripheral/scb/cy_scb_i2c.h **** 
1082:Generated_Source\PSoC6\pdl\drivers/peripheral/scb/cy_scb_i2c.h **** /**
1083:Generated_Source\PSoC6\pdl\drivers/peripheral/scb/cy_scb_i2c.h **** * This value is returned by the slave when there is no data in the
1084:Generated_Source\PSoC6\pdl\drivers/peripheral/scb/cy_scb_i2c.h **** * Read buffer
1085:Generated_Source\PSoC6\pdl\drivers/peripheral/scb/cy_scb_i2c.h **** */
1086:Generated_Source\PSoC6\pdl\drivers/peripheral/scb/cy_scb_i2c.h **** #define CY_SCB_I2C_DEFAULT_TX  (0xFFUL)
1087:Generated_Source\PSoC6\pdl\drivers/peripheral/scb/cy_scb_i2c.h **** 
1088:Generated_Source\PSoC6\pdl\drivers/peripheral/scb/cy_scb_i2c.h **** 
ARM GAS  C:\Users\guill\AppData\Local\Temp\cclz5xua.s 			page 40


1089:Generated_Source\PSoC6\pdl\drivers/peripheral/scb/cy_scb_i2c.h **** /*******************************************************************************
1090:Generated_Source\PSoC6\pdl\drivers/peripheral/scb/cy_scb_i2c.h **** *                          Internal Constants
1091:Generated_Source\PSoC6\pdl\drivers/peripheral/scb/cy_scb_i2c.h **** *******************************************************************************/
1092:Generated_Source\PSoC6\pdl\drivers/peripheral/scb/cy_scb_i2c.h **** 
1093:Generated_Source\PSoC6\pdl\drivers/peripheral/scb/cy_scb_i2c.h **** /** \cond INTERNAL */
1094:Generated_Source\PSoC6\pdl\drivers/peripheral/scb/cy_scb_i2c.h **** 
1095:Generated_Source\PSoC6\pdl\drivers/peripheral/scb/cy_scb_i2c.h **** /* Slave statuses */
1096:Generated_Source\PSoC6\pdl\drivers/peripheral/scb/cy_scb_i2c.h **** #define CY_SCB_I2C_SLAVE_RD_CLEAR  (CY_SCB_I2C_SLAVE_RD_CMPLT  | CY_SCB_I2C_SLAVE_RD_IN_FIFO | \
1097:Generated_Source\PSoC6\pdl\drivers/peripheral/scb/cy_scb_i2c.h ****                                     CY_SCB_I2C_SLAVE_RD_UNDRFL | CY_SCB_I2C_SLAVE_ARB_LOST   | \
1098:Generated_Source\PSoC6\pdl\drivers/peripheral/scb/cy_scb_i2c.h ****                                     CY_SCB_I2C_SLAVE_BUS_ERR)
1099:Generated_Source\PSoC6\pdl\drivers/peripheral/scb/cy_scb_i2c.h **** 
1100:Generated_Source\PSoC6\pdl\drivers/peripheral/scb/cy_scb_i2c.h **** #define CY_SCB_I2C_SLAVE_WR_CLEAR  (CY_SCB_I2C_SLAVE_WR_CMPLT | CY_SCB_I2C_SLAVE_WR_OVRFL | \
1101:Generated_Source\PSoC6\pdl\drivers/peripheral/scb/cy_scb_i2c.h ****                                     CY_SCB_I2C_SLAVE_ARB_LOST | CY_SCB_I2C_SLAVE_BUS_ERR)
1102:Generated_Source\PSoC6\pdl\drivers/peripheral/scb/cy_scb_i2c.h **** 
1103:Generated_Source\PSoC6\pdl\drivers/peripheral/scb/cy_scb_i2c.h **** /* Master error statuses */
1104:Generated_Source\PSoC6\pdl\drivers/peripheral/scb/cy_scb_i2c.h **** #define CY_SCB_I2C_MASTER_ERR (CY_SCB_I2C_MASTER_ABORT_START | CY_SCB_I2C_MASTER_ADDR_NAK | \
1105:Generated_Source\PSoC6\pdl\drivers/peripheral/scb/cy_scb_i2c.h ****                                CY_SCB_I2C_MASTER_DATA_NAK    | CY_SCB_I2C_MASTER_BUS_ERR  | \
1106:Generated_Source\PSoC6\pdl\drivers/peripheral/scb/cy_scb_i2c.h ****                                CY_SCB_I2C_MASTER_ARB_LOST)
1107:Generated_Source\PSoC6\pdl\drivers/peripheral/scb/cy_scb_i2c.h **** 
1108:Generated_Source\PSoC6\pdl\drivers/peripheral/scb/cy_scb_i2c.h **** /* Master interrupt masks */
1109:Generated_Source\PSoC6\pdl\drivers/peripheral/scb/cy_scb_i2c.h **** #define CY_SCB_I2C_MASTER_INTR     (CY_SCB_MASTER_INTR_I2C_ARB_LOST | CY_SCB_MASTER_INTR_I2C_BUS_ER
1110:Generated_Source\PSoC6\pdl\drivers/peripheral/scb/cy_scb_i2c.h ****                                     CY_SCB_MASTER_INTR_I2C_NACK     | CY_SCB_MASTER_INTR_I2C_STOP)
1111:Generated_Source\PSoC6\pdl\drivers/peripheral/scb/cy_scb_i2c.h **** 
1112:Generated_Source\PSoC6\pdl\drivers/peripheral/scb/cy_scb_i2c.h **** #define CY_SCB_I2C_MASTER_INTR_ALL   (CY_SCB_I2C_MASTER_INTR | CY_SCB_MASTER_INTR_I2C_ACK)
1113:Generated_Source\PSoC6\pdl\drivers/peripheral/scb/cy_scb_i2c.h **** 
1114:Generated_Source\PSoC6\pdl\drivers/peripheral/scb/cy_scb_i2c.h **** #define CY_SCB_I2C_MASTER_INTR_ERR   (CY_SCB_MASTER_INTR_I2C_BUS_ERROR | CY_SCB_MASTER_INTR_I2C_ARB
1115:Generated_Source\PSoC6\pdl\drivers/peripheral/scb/cy_scb_i2c.h **** 
1116:Generated_Source\PSoC6\pdl\drivers/peripheral/scb/cy_scb_i2c.h **** #define CY_SCB_I2C_MASTER_INTR_CMPLT (CY_SCB_I2C_MASTER_INTR_ERR | CY_SCB_MASTER_INTR_I2C_STOP)
1117:Generated_Source\PSoC6\pdl\drivers/peripheral/scb/cy_scb_i2c.h **** 
1118:Generated_Source\PSoC6\pdl\drivers/peripheral/scb/cy_scb_i2c.h **** /* Master statuses. */
1119:Generated_Source\PSoC6\pdl\drivers/peripheral/scb/cy_scb_i2c.h **** #define CY_SCB_I2C_MASTER_TX_BYTE_DONE (CY_SCB_MASTER_INTR_I2C_ACK       | CY_SCB_MASTER_INTR_I2C_N
1120:Generated_Source\PSoC6\pdl\drivers/peripheral/scb/cy_scb_i2c.h ****                                         CY_SCB_MASTER_INTR_I2C_BUS_ERROR | CY_SCB_MASTER_INTR_I2C_A
1121:Generated_Source\PSoC6\pdl\drivers/peripheral/scb/cy_scb_i2c.h **** 
1122:Generated_Source\PSoC6\pdl\drivers/peripheral/scb/cy_scb_i2c.h **** #define CY_SCB_I2C_MASTER_RX_BYTE_DONE (CY_SCB_MASTER_INTR_I2C_BUS_ERROR | CY_SCB_MASTER_INTR_I2C_A
1123:Generated_Source\PSoC6\pdl\drivers/peripheral/scb/cy_scb_i2c.h **** 
1124:Generated_Source\PSoC6\pdl\drivers/peripheral/scb/cy_scb_i2c.h **** #define CY_SCB_I2C_MASTER_STOP_DONE    (CY_SCB_MASTER_INTR_I2C_STOP      | \
1125:Generated_Source\PSoC6\pdl\drivers/peripheral/scb/cy_scb_i2c.h ****                                         CY_SCB_MASTER_INTR_I2C_BUS_ERROR | CY_SCB_MASTER_INTR_I2C_A
1126:Generated_Source\PSoC6\pdl\drivers/peripheral/scb/cy_scb_i2c.h **** 
1127:Generated_Source\PSoC6\pdl\drivers/peripheral/scb/cy_scb_i2c.h **** #define CY_SCB_I2C_MASTER_TIMEOUT_DONE (0x80000000UL)
1128:Generated_Source\PSoC6\pdl\drivers/peripheral/scb/cy_scb_i2c.h **** 
1129:Generated_Source\PSoC6\pdl\drivers/peripheral/scb/cy_scb_i2c.h **** /* The slave interrupt mask */
1130:Generated_Source\PSoC6\pdl\drivers/peripheral/scb/cy_scb_i2c.h **** #define CY_SCB_I2C_SLAVE_INTR      (CY_SCB_SLAVE_INTR_I2C_ADDR_MATCH | CY_SCB_SLAVE_INTR_I2C_GENERA
1131:Generated_Source\PSoC6\pdl\drivers/peripheral/scb/cy_scb_i2c.h ****                                     CY_SCB_SLAVE_INTR_I2C_STOP       | CY_SCB_SLAVE_INTR_I2C_BUS_ER
1132:Generated_Source\PSoC6\pdl\drivers/peripheral/scb/cy_scb_i2c.h ****                                     CY_SCB_SLAVE_INTR_I2C_ARB_LOST)
1133:Generated_Source\PSoC6\pdl\drivers/peripheral/scb/cy_scb_i2c.h **** 
1134:Generated_Source\PSoC6\pdl\drivers/peripheral/scb/cy_scb_i2c.h **** #define CY_SCB_I2C_SLAVE_INTR_NO_STOP   (CY_SCB_I2C_SLAVE_INTR & (uint32_t) ~CY_SCB_SLAVE_INTR_I2C_
1135:Generated_Source\PSoC6\pdl\drivers/peripheral/scb/cy_scb_i2c.h **** 
1136:Generated_Source\PSoC6\pdl\drivers/peripheral/scb/cy_scb_i2c.h **** #define CY_SCB_I2C_SLAVE_INTR_ADDR      (CY_SCB_SLAVE_INTR_I2C_ADDR_MATCH | CY_SCB_SLAVE_INTR_I2C_G
1137:Generated_Source\PSoC6\pdl\drivers/peripheral/scb/cy_scb_i2c.h **** 
1138:Generated_Source\PSoC6\pdl\drivers/peripheral/scb/cy_scb_i2c.h **** #define CY_SCB_I2C_SLAVE_ADDR_DONE      (CY_SCB_I2C_SLAVE_INTR_ADDR)
1139:Generated_Source\PSoC6\pdl\drivers/peripheral/scb/cy_scb_i2c.h **** 
1140:Generated_Source\PSoC6\pdl\drivers/peripheral/scb/cy_scb_i2c.h **** #define CY_SCB_I2C_SLAVE_INTR_NO_ADDR   (CY_SCB_I2C_SLAVE_INTR & (uint32_t) ~CY_SCB_I2C_SLAVE_INTR_
1141:Generated_Source\PSoC6\pdl\drivers/peripheral/scb/cy_scb_i2c.h **** 
1142:Generated_Source\PSoC6\pdl\drivers/peripheral/scb/cy_scb_i2c.h **** #define CY_SCB_I2C_SLAVE_INTR_TX        (CY_SCB_TX_INTR_LEVEL | CY_SCB_TX_INTR_UNDERFLOW)
1143:Generated_Source\PSoC6\pdl\drivers/peripheral/scb/cy_scb_i2c.h **** 
1144:Generated_Source\PSoC6\pdl\drivers/peripheral/scb/cy_scb_i2c.h **** #define CY_SCB_I2C_SLAVE_INTR_ERROR     (CY_SCB_SLAVE_INTR_I2C_BUS_ERROR | CY_SCB_SLAVE_INTR_I2C_AR
1145:Generated_Source\PSoC6\pdl\drivers/peripheral/scb/cy_scb_i2c.h **** 
ARM GAS  C:\Users\guill\AppData\Local\Temp\cclz5xua.s 			page 41


1146:Generated_Source\PSoC6\pdl\drivers/peripheral/scb/cy_scb_i2c.h **** /* I2C states */
1147:Generated_Source\PSoC6\pdl\drivers/peripheral/scb/cy_scb_i2c.h **** #define CY_SCB_I2C_IDLE              (0x10000000UL)
1148:Generated_Source\PSoC6\pdl\drivers/peripheral/scb/cy_scb_i2c.h **** #define CY_SCB_I2C_IDLE_MASK         (0x10000000UL)
1149:Generated_Source\PSoC6\pdl\drivers/peripheral/scb/cy_scb_i2c.h **** 
1150:Generated_Source\PSoC6\pdl\drivers/peripheral/scb/cy_scb_i2c.h **** /* Master states */
1151:Generated_Source\PSoC6\pdl\drivers/peripheral/scb/cy_scb_i2c.h **** #define CY_SCB_I2C_MASTER_ACTIVE     (0x00100000UL)
1152:Generated_Source\PSoC6\pdl\drivers/peripheral/scb/cy_scb_i2c.h **** #define CY_SCB_I2C_MASTER_WAIT       (0x10100000UL)
1153:Generated_Source\PSoC6\pdl\drivers/peripheral/scb/cy_scb_i2c.h **** #define CY_SCB_I2C_MASTER_RX0        (0x00110000UL)
1154:Generated_Source\PSoC6\pdl\drivers/peripheral/scb/cy_scb_i2c.h **** #define CY_SCB_I2C_MASTER_RX1        (0x00120000UL)
1155:Generated_Source\PSoC6\pdl\drivers/peripheral/scb/cy_scb_i2c.h **** #define CY_SCB_I2C_MASTER_ADDR       (0x10130000UL)
1156:Generated_Source\PSoC6\pdl\drivers/peripheral/scb/cy_scb_i2c.h **** #define CY_SCB_I2C_MASTER_TX         (0x00140000UL)
1157:Generated_Source\PSoC6\pdl\drivers/peripheral/scb/cy_scb_i2c.h **** #define CY_SCB_I2C_MASTER_TX_DONE    (0x00150000UL)
1158:Generated_Source\PSoC6\pdl\drivers/peripheral/scb/cy_scb_i2c.h **** #define CY_SCB_I2C_MASTER_STOP       (0x00160000UL)
1159:Generated_Source\PSoC6\pdl\drivers/peripheral/scb/cy_scb_i2c.h **** #define CY_SCB_I2C_MASTER_WAIT_STOP  (0x00170000UL)
1160:Generated_Source\PSoC6\pdl\drivers/peripheral/scb/cy_scb_i2c.h **** #define CY_SCB_I2C_MASTER_CMPLT      (0x00180000UL)
1161:Generated_Source\PSoC6\pdl\drivers/peripheral/scb/cy_scb_i2c.h **** 
1162:Generated_Source\PSoC6\pdl\drivers/peripheral/scb/cy_scb_i2c.h **** /* Slave states */
1163:Generated_Source\PSoC6\pdl\drivers/peripheral/scb/cy_scb_i2c.h **** #define CY_SCB_I2C_SLAVE_ACTIVE      (0x00001000UL)
1164:Generated_Source\PSoC6\pdl\drivers/peripheral/scb/cy_scb_i2c.h **** #define CY_SCB_I2C_SLAVE_RX_MASK     (0x00001001UL)
1165:Generated_Source\PSoC6\pdl\drivers/peripheral/scb/cy_scb_i2c.h **** #define CY_SCB_I2C_SLAVE_RX          (0x00001001UL)
1166:Generated_Source\PSoC6\pdl\drivers/peripheral/scb/cy_scb_i2c.h **** #define CY_SCB_I2C_SLAVE_TX          (0x00001002UL)
1167:Generated_Source\PSoC6\pdl\drivers/peripheral/scb/cy_scb_i2c.h **** 
1168:Generated_Source\PSoC6\pdl\drivers/peripheral/scb/cy_scb_i2c.h **** /* FIFO size */
1169:Generated_Source\PSoC6\pdl\drivers/peripheral/scb/cy_scb_i2c.h **** #define CY_SCB_I2C_FIFO_SIZE          CY_SCB_FIFO_SIZE
1170:Generated_Source\PSoC6\pdl\drivers/peripheral/scb/cy_scb_i2c.h **** #define CY_SCB_I2C_HALF_FIFO_SIZE     (CY_SCB_FIFO_SIZE / 2UL)
1171:Generated_Source\PSoC6\pdl\drivers/peripheral/scb/cy_scb_i2c.h **** 
1172:Generated_Source\PSoC6\pdl\drivers/peripheral/scb/cy_scb_i2c.h **** #define CY_SCB_I2C_DEFAULT_RETURN    (0xFFUL)
1173:Generated_Source\PSoC6\pdl\drivers/peripheral/scb/cy_scb_i2c.h **** 
1174:Generated_Source\PSoC6\pdl\drivers/peripheral/scb/cy_scb_i2c.h **** /* Convert the timeout in milliseconds to microseconds */
1175:Generated_Source\PSoC6\pdl\drivers/peripheral/scb/cy_scb_i2c.h **** #define CY_SCB_I2C_CONVERT_TIMEOUT_TO_US(timeoutMs)     ((timeoutMs) * 1000UL)
1176:Generated_Source\PSoC6\pdl\drivers/peripheral/scb/cy_scb_i2c.h **** 
1177:Generated_Source\PSoC6\pdl\drivers/peripheral/scb/cy_scb_i2c.h **** /* I2C data rates max (Hz): standard, fast and fast plus modes */
1178:Generated_Source\PSoC6\pdl\drivers/peripheral/scb/cy_scb_i2c.h **** #define CY_SCB_I2C_STD_DATA_RATE    (100000U)
1179:Generated_Source\PSoC6\pdl\drivers/peripheral/scb/cy_scb_i2c.h **** #define CY_SCB_I2C_FST_DATA_RATE    (400000U)
1180:Generated_Source\PSoC6\pdl\drivers/peripheral/scb/cy_scb_i2c.h **** #define CY_SCB_I2C_FSTP_DATA_RATE  (1000000U)
1181:Generated_Source\PSoC6\pdl\drivers/peripheral/scb/cy_scb_i2c.h **** 
1182:Generated_Source\PSoC6\pdl\drivers/peripheral/scb/cy_scb_i2c.h **** /* Slave clock limits */
1183:Generated_Source\PSoC6\pdl\drivers/peripheral/scb/cy_scb_i2c.h **** #define CY_SCB_I2C_SLAVE_STD_CLK_MIN    (1550000U)
1184:Generated_Source\PSoC6\pdl\drivers/peripheral/scb/cy_scb_i2c.h **** #define CY_SCB_I2C_SLAVE_STD_CLK_MAX   (12800000U)
1185:Generated_Source\PSoC6\pdl\drivers/peripheral/scb/cy_scb_i2c.h **** #define CY_SCB_I2C_SLAVE_FST_CLK_MIN    (7820000U)
1186:Generated_Source\PSoC6\pdl\drivers/peripheral/scb/cy_scb_i2c.h **** #define CY_SCB_I2C_SLAVE_FST_CLK_MAX   (15380000U)
1187:Generated_Source\PSoC6\pdl\drivers/peripheral/scb/cy_scb_i2c.h **** #define CY_SCB_I2C_SLAVE_FSTP_CLK_MIN  (15840000U)
1188:Generated_Source\PSoC6\pdl\drivers/peripheral/scb/cy_scb_i2c.h **** #define CY_SCB_I2C_SLAVE_FSTP_CLK_MAX  (89000000U)
1189:Generated_Source\PSoC6\pdl\drivers/peripheral/scb/cy_scb_i2c.h **** 
1190:Generated_Source\PSoC6\pdl\drivers/peripheral/scb/cy_scb_i2c.h **** /* Master clock (Hz) and duty cycle limits for standard mode */
1191:Generated_Source\PSoC6\pdl\drivers/peripheral/scb/cy_scb_i2c.h **** #define CY_SCB_I2C_MASTER_STD_CLK_MIN           (1550000U)
1192:Generated_Source\PSoC6\pdl\drivers/peripheral/scb/cy_scb_i2c.h **** #define CY_SCB_I2C_MASTER_STD_CLK_MAX           (3200000U)
1193:Generated_Source\PSoC6\pdl\drivers/peripheral/scb/cy_scb_i2c.h **** #define CY_SCB_I2C_MASTER_STD_LOW_PHASE_MIN     (8U)
1194:Generated_Source\PSoC6\pdl\drivers/peripheral/scb/cy_scb_i2c.h **** #define CY_SCB_I2C_MASTER_STD_HIGH_PHASE_MIN    (8U)
1195:Generated_Source\PSoC6\pdl\drivers/peripheral/scb/cy_scb_i2c.h **** 
1196:Generated_Source\PSoC6\pdl\drivers/peripheral/scb/cy_scb_i2c.h **** /* Master clock (Hz) and duty cycle limits for fast mode */
1197:Generated_Source\PSoC6\pdl\drivers/peripheral/scb/cy_scb_i2c.h **** #define CY_SCB_I2C_MASTER_FST_CLK_MIN           (7820000U)
1198:Generated_Source\PSoC6\pdl\drivers/peripheral/scb/cy_scb_i2c.h **** #define CY_SCB_I2C_MASTER_FST_CLK_MAX           (10000000U)
1199:Generated_Source\PSoC6\pdl\drivers/peripheral/scb/cy_scb_i2c.h **** #define CY_SCB_I2C_MASTER_FST_LOW_PHASE_MIN     (13U)
1200:Generated_Source\PSoC6\pdl\drivers/peripheral/scb/cy_scb_i2c.h **** #define CY_SCB_I2C_MASTER_FST_HIGH_PHASE_MIN    (8U)
1201:Generated_Source\PSoC6\pdl\drivers/peripheral/scb/cy_scb_i2c.h **** 
1202:Generated_Source\PSoC6\pdl\drivers/peripheral/scb/cy_scb_i2c.h **** /* Master clock (Hz) and duty cycle limits for fast plus mode */
ARM GAS  C:\Users\guill\AppData\Local\Temp\cclz5xua.s 			page 42


1203:Generated_Source\PSoC6\pdl\drivers/peripheral/scb/cy_scb_i2c.h **** #define CY_SCB_I2C_MASTER_FSTP_CLK_MIN          (14320000U)
1204:Generated_Source\PSoC6\pdl\drivers/peripheral/scb/cy_scb_i2c.h **** #define CY_SCB_I2C_MASTER_FSTP_CLK_MAX          (25800000U)
1205:Generated_Source\PSoC6\pdl\drivers/peripheral/scb/cy_scb_i2c.h **** #define CY_SCB_I2C_MASTER_FSTP_LOW_PHASE_MIN    (9U)
1206:Generated_Source\PSoC6\pdl\drivers/peripheral/scb/cy_scb_i2c.h **** #define CY_SCB_I2C_MASTER_FSTP_HIGH_PHASE_MIN   (6U)
1207:Generated_Source\PSoC6\pdl\drivers/peripheral/scb/cy_scb_i2c.h **** 
1208:Generated_Source\PSoC6\pdl\drivers/peripheral/scb/cy_scb_i2c.h **** /* SCL low and high time in ns. Takes into account tF and tR */
1209:Generated_Source\PSoC6\pdl\drivers/peripheral/scb/cy_scb_i2c.h **** #define CY_SCB_I2C_MASTER_STD_SCL_LOW   (5000U) /* tLOW  + tF = 4700 + 300  */
1210:Generated_Source\PSoC6\pdl\drivers/peripheral/scb/cy_scb_i2c.h **** #define CY_SCB_I2C_MASTER_STD_SCL_HIGH  (5000U) /* tHIGH + tR = 4000 + 1000 */
1211:Generated_Source\PSoC6\pdl\drivers/peripheral/scb/cy_scb_i2c.h **** #define CY_SCB_I2C_MASTER_FST_SCL_LOW   (1600U) /* tLOW  + tF = 1300 + 300  */
1212:Generated_Source\PSoC6\pdl\drivers/peripheral/scb/cy_scb_i2c.h **** #define CY_SCB_I2C_MASTER_FST_SCL_HIGH   (900U) /* tHIGH + tR = 600 + 300   */
1213:Generated_Source\PSoC6\pdl\drivers/peripheral/scb/cy_scb_i2c.h **** #define CY_SCB_I2C_MASTER_FSTP_SCL_LOW   (620U) /* tLOW  + tF = 500 + 120   */
1214:Generated_Source\PSoC6\pdl\drivers/peripheral/scb/cy_scb_i2c.h **** #define CY_SCB_I2C_MASTER_FSTP_SCL_HIGH  (380U) /* tHIGH + tR = 260 + 120   */
1215:Generated_Source\PSoC6\pdl\drivers/peripheral/scb/cy_scb_i2c.h **** 
1216:Generated_Source\PSoC6\pdl\drivers/peripheral/scb/cy_scb_i2c.h **** /* Master duty cycle limits */
1217:Generated_Source\PSoC6\pdl\drivers/peripheral/scb/cy_scb_i2c.h **** #define CY_SCB_I2C_LOW_PHASE_MAX    (16U)
1218:Generated_Source\PSoC6\pdl\drivers/peripheral/scb/cy_scb_i2c.h **** #define CY_SCB_I2C_HIGH_PHASE_MAX   (16U)
1219:Generated_Source\PSoC6\pdl\drivers/peripheral/scb/cy_scb_i2c.h **** #define CY_SCB_I2C_DUTY_CYCLE_MAX   (CY_SCB_I2C_LOW_PHASE_MAX + CY_SCB_I2C_HIGH_PHASE_MAX)
1220:Generated_Source\PSoC6\pdl\drivers/peripheral/scb/cy_scb_i2c.h **** 
1221:Generated_Source\PSoC6\pdl\drivers/peripheral/scb/cy_scb_i2c.h **** /* Analog filter settings. */
1222:Generated_Source\PSoC6\pdl\drivers/peripheral/scb/cy_scb_i2c.h **** #define CY_SCB_I2C_ENABLE_ANALOG_FITLER    (CY_SCB_I2C_CFG_DEF_VAL)
1223:Generated_Source\PSoC6\pdl\drivers/peripheral/scb/cy_scb_i2c.h **** #define CY_SCB_I2C_DISABLE_ANALOG_FITLER   (CY_SCB_I2C_CFG_DEF_VAL & \
1224:Generated_Source\PSoC6\pdl\drivers/peripheral/scb/cy_scb_i2c.h ****                                             (uint32_t) ~(SCB_I2C_CFG_SDA_IN_FILT_SEL_Msk | \
1225:Generated_Source\PSoC6\pdl\drivers/peripheral/scb/cy_scb_i2c.h ****                                                          SCB_I2C_CFG_SCL_IN_FILT_SEL_Msk))
1226:Generated_Source\PSoC6\pdl\drivers/peripheral/scb/cy_scb_i2c.h **** 
1227:Generated_Source\PSoC6\pdl\drivers/peripheral/scb/cy_scb_i2c.h **** #define CY_SCB_I2C_IS_MODE_VALID(mode)      ( (CY_SCB_I2C_SLAVE  == (mode)) || \
1228:Generated_Source\PSoC6\pdl\drivers/peripheral/scb/cy_scb_i2c.h ****                                               (CY_SCB_I2C_MASTER == (mode)) || \
1229:Generated_Source\PSoC6\pdl\drivers/peripheral/scb/cy_scb_i2c.h ****                                               (CY_SCB_I2C_MASTER_SLAVE == (mode)) )
1230:Generated_Source\PSoC6\pdl\drivers/peripheral/scb/cy_scb_i2c.h **** 
1231:Generated_Source\PSoC6\pdl\drivers/peripheral/scb/cy_scb_i2c.h **** #define CY_SCB_I2C_IS_RW_BIT_VALID(dir)     ( (CY_SCB_I2C_WRITE_XFER == (dir)) || \
1232:Generated_Source\PSoC6\pdl\drivers/peripheral/scb/cy_scb_i2c.h ****                                               (CY_SCB_I2C_READ_XFER  == (dir)) )
1233:Generated_Source\PSoC6\pdl\drivers/peripheral/scb/cy_scb_i2c.h **** 
1234:Generated_Source\PSoC6\pdl\drivers/peripheral/scb/cy_scb_i2c.h **** #define CY_SCB_I2C_IS_RESPONSE_VALID(cmd)   ( (CY_SCB_I2C_ACK == (cmd))  || \
1235:Generated_Source\PSoC6\pdl\drivers/peripheral/scb/cy_scb_i2c.h ****                                               (CY_SCB_I2C_NAK == (cmd)) )
1236:Generated_Source\PSoC6\pdl\drivers/peripheral/scb/cy_scb_i2c.h **** 
1237:Generated_Source\PSoC6\pdl\drivers/peripheral/scb/cy_scb_i2c.h **** #define CY_SCB_I2C_IS_ADDR_MASK_VALID(mask)         ( (0U == ((mask) & 0x01U)) )
1238:Generated_Source\PSoC6\pdl\drivers/peripheral/scb/cy_scb_i2c.h **** 
1239:Generated_Source\PSoC6\pdl\drivers/peripheral/scb/cy_scb_i2c.h **** #define CY_SCB_I2C_IS_PHASE_OVERSAMPLE_VALID(phaseOvs)  ((phaseOvs) <= 16U)
1240:Generated_Source\PSoC6\pdl\drivers/peripheral/scb/cy_scb_i2c.h **** 
1241:Generated_Source\PSoC6\pdl\drivers/peripheral/scb/cy_scb_i2c.h **** #define CY_SCB_I2C_IS_DATA_RATE_VALID(dataRateHz)   ( ((dataRateHz) > 0UL) && \
1242:Generated_Source\PSoC6\pdl\drivers/peripheral/scb/cy_scb_i2c.h ****                                                       ((dataRateHz) <= CY_SCB_I2C_FSTP_DATA_RATE) )
1243:Generated_Source\PSoC6\pdl\drivers/peripheral/scb/cy_scb_i2c.h **** 
1244:Generated_Source\PSoC6\pdl\drivers/peripheral/scb/cy_scb_i2c.h **** #define CY_SCB_I2C_IS_TIMEOUT_VALID(timeoutMs)              ( (timeoutMs) <= (0xFFFFFFFFUL / 1000UL
1245:Generated_Source\PSoC6\pdl\drivers/peripheral/scb/cy_scb_i2c.h **** #define CY_SCB_I2C_IS_LOW_PHASE_CYCLES_VALID(clockCycles)   ( ((clockCycles) >= 7UL) && ((clockCycl
1246:Generated_Source\PSoC6\pdl\drivers/peripheral/scb/cy_scb_i2c.h **** #define CY_SCB_I2C_IS_HIGH_PHASE_CYCLES_VALID(clockCycles)  ( ((clockCycles) >= 5UL) && ((clockCycl
1247:Generated_Source\PSoC6\pdl\drivers/peripheral/scb/cy_scb_i2c.h **** 
1248:Generated_Source\PSoC6\pdl\drivers/peripheral/scb/cy_scb_i2c.h **** /** \endcond */
1249:Generated_Source\PSoC6\pdl\drivers/peripheral/scb/cy_scb_i2c.h **** 
1250:Generated_Source\PSoC6\pdl\drivers/peripheral/scb/cy_scb_i2c.h **** /** \} group_scb_i2c_macros */
1251:Generated_Source\PSoC6\pdl\drivers/peripheral/scb/cy_scb_i2c.h **** 
1252:Generated_Source\PSoC6\pdl\drivers/peripheral/scb/cy_scb_i2c.h **** 
1253:Generated_Source\PSoC6\pdl\drivers/peripheral/scb/cy_scb_i2c.h **** /*******************************************************************************
1254:Generated_Source\PSoC6\pdl\drivers/peripheral/scb/cy_scb_i2c.h **** *                     In-line Function Implementation
1255:Generated_Source\PSoC6\pdl\drivers/peripheral/scb/cy_scb_i2c.h **** *******************************************************************************/
1256:Generated_Source\PSoC6\pdl\drivers/peripheral/scb/cy_scb_i2c.h **** 
1257:Generated_Source\PSoC6\pdl\drivers/peripheral/scb/cy_scb_i2c.h **** /**
1258:Generated_Source\PSoC6\pdl\drivers/peripheral/scb/cy_scb_i2c.h **** * \addtogroup group_scb_i2c_general_functions
1259:Generated_Source\PSoC6\pdl\drivers/peripheral/scb/cy_scb_i2c.h **** * \{
ARM GAS  C:\Users\guill\AppData\Local\Temp\cclz5xua.s 			page 43


1260:Generated_Source\PSoC6\pdl\drivers/peripheral/scb/cy_scb_i2c.h **** */
1261:Generated_Source\PSoC6\pdl\drivers/peripheral/scb/cy_scb_i2c.h **** 
1262:Generated_Source\PSoC6\pdl\drivers/peripheral/scb/cy_scb_i2c.h **** /*******************************************************************************
1263:Generated_Source\PSoC6\pdl\drivers/peripheral/scb/cy_scb_i2c.h **** * Function Name: Cy_SCB_I2C_Enable
1264:Generated_Source\PSoC6\pdl\drivers/peripheral/scb/cy_scb_i2c.h **** ****************************************************************************//**
1265:Generated_Source\PSoC6\pdl\drivers/peripheral/scb/cy_scb_i2c.h **** *
1266:Generated_Source\PSoC6\pdl\drivers/peripheral/scb/cy_scb_i2c.h **** * Enables the SCB block for the I2C operation
1267:Generated_Source\PSoC6\pdl\drivers/peripheral/scb/cy_scb_i2c.h **** *
1268:Generated_Source\PSoC6\pdl\drivers/peripheral/scb/cy_scb_i2c.h **** * \param base
1269:Generated_Source\PSoC6\pdl\drivers/peripheral/scb/cy_scb_i2c.h **** * The pointer to the I2C SCB instance.
1270:Generated_Source\PSoC6\pdl\drivers/peripheral/scb/cy_scb_i2c.h **** *
1271:Generated_Source\PSoC6\pdl\drivers/peripheral/scb/cy_scb_i2c.h **** *******************************************************************************/
1272:Generated_Source\PSoC6\pdl\drivers/peripheral/scb/cy_scb_i2c.h **** __STATIC_INLINE void Cy_SCB_I2C_Enable(CySCB_Type *base)
1273:Generated_Source\PSoC6\pdl\drivers/peripheral/scb/cy_scb_i2c.h **** {
1274:Generated_Source\PSoC6\pdl\drivers/peripheral/scb/cy_scb_i2c.h ****     SCB_CTRL(base) |= SCB_CTRL_ENABLED_Msk;
 816              		.loc 2 1274 0
 817 0010 2368     		ldr	r3, [r4]
 818 0012 8022     		movs	r2, #128
 819 0014 1206     		lsls	r2, r2, #24
 820 0016 1343     		orrs	r3, r2
 821 0018 2360     		str	r3, [r4]
 822              	.LVL84:
 823              	.LBE7:
 824              	.LBE6:
 140:DRF0554.c     ****     
 825              		.loc 1 140 0
 826 001a 204D     		ldr	r5, .L49+4
 827 001c 2A78     		ldrb	r2, [r5]
 828 001e 0823     		movs	r3, #8
 829 0020 1343     		orrs	r3, r2
 830 0022 2B70     		strb	r3, [r5]
 143:DRF0554.c     **** 
 831              		.loc 1 143 0
 832 0024 3230     		adds	r0, r0, #50
 833              	.LVL85:
 834 0026 FFF7FEFF 		bl	Cy_SysLib_Delay
 835              	.LVL86:
 149:DRF0554.c     ****     CyDelay(5);  // wait more than 4.1ms
 836              		.loc 1 149 0
 837 002a 2024     		movs	r4, #32
 838              	.LVL87:
 839 002c 2878     		ldrb	r0, [r5]
 840 002e 2043     		orrs	r0, r4
 841 0030 C0B2     		uxtb	r0, r0
 842 0032 FFF7FEFF 		bl	command
 843              	.LVL88:
 150:DRF0554.c     **** 	
 844              		.loc 1 150 0
 845 0036 0520     		movs	r0, #5
 846 0038 FFF7FEFF 		bl	Cy_SysLib_Delay
 847              	.LVL89:
 153:DRF0554.c     ****     CyDelay(5);
 848              		.loc 1 153 0
 849 003c 2878     		ldrb	r0, [r5]
 850 003e 2043     		orrs	r0, r4
 851 0040 C0B2     		uxtb	r0, r0
 852 0042 FFF7FEFF 		bl	command
ARM GAS  C:\Users\guill\AppData\Local\Temp\cclz5xua.s 			page 44


 853              	.LVL90:
 154:DRF0554.c     **** 
 854              		.loc 1 154 0
 855 0046 0520     		movs	r0, #5
 856 0048 FFF7FEFF 		bl	Cy_SysLib_Delay
 857              	.LVL91:
 157:DRF0554.c     **** 
 858              		.loc 1 157 0
 859 004c 2878     		ldrb	r0, [r5]
 860 004e 0443     		orrs	r4, r0
 861 0050 E0B2     		uxtb	r0, r4
 862 0052 FFF7FEFF 		bl	command
 863              	.LVL92:
 160:DRF0554.c     ****     LCD_Display(On);
 864              		.loc 1 160 0
 865 0056 0422     		movs	r2, #4
 866 0058 114B     		ldr	r3, .L49+8
 867 005a 1A70     		strb	r2, [r3]
 161:DRF0554.c     **** 
 868              		.loc 1 161 0
 869 005c 0120     		movs	r0, #1
 870 005e FFF7FEFF 		bl	LCD_Display
 871              	.LVL93:
 164:DRF0554.c     **** 
 872              		.loc 1 164 0
 873 0062 FFF7FEFF 		bl	LCD_Clear
 874              	.LVL94:
 167:DRF0554.c     ****     ///< set the entry mode
 875              		.loc 1 167 0
 876 0066 0222     		movs	r2, #2
 877 0068 0E4B     		ldr	r3, .L49+12
 878 006a 1A70     		strb	r2, [r3]
 169:DRF0554.c     ****     
 879              		.loc 1 169 0
 880 006c 0620     		movs	r0, #6
 881 006e FFF7FEFF 		bl	command
 882              	.LVL95:
 173:DRF0554.c     ****     ///< set LEDs controllable by both PWM and GRPPWM registers
 883              		.loc 1 173 0
 884 0072 0021     		movs	r1, #0
 885 0074 0020     		movs	r0, #0
 886 0076 FFF7FEFF 		bl	setReg
 887              	.LVL96:
 175:DRF0554.c     ****     ///< set MODE2 values
 888              		.loc 1 175 0
 889 007a FF21     		movs	r1, #255
 890 007c 0820     		movs	r0, #8
 891 007e FFF7FEFF 		bl	setReg
 892              	.LVL97:
 178:DRF0554.c     ****     
 893              		.loc 1 178 0
 894 0082 2021     		movs	r1, #32
 895 0084 0120     		movs	r0, #1
 896 0086 FFF7FEFF 		bl	setReg
 897              	.LVL98:
 180:DRF0554.c     ****    return true; 
 898              		.loc 1 180 0
ARM GAS  C:\Users\guill\AppData\Local\Temp\cclz5xua.s 			page 45


 899 008a 0020     		movs	r0, #0
 900 008c FFF7FEFF 		bl	LCD_SetColor
 901              	.LVL99:
 181:DRF0554.c     ****     
 902              		.loc 1 181 0
 903 0090 0120     		movs	r0, #1
 904 0092 00E0     		b	.L47
 905              	.LVL100:
 906              	.L48:
 131:DRF0554.c     ****     }
 907              		.loc 1 131 0
 908 0094 0020     		movs	r0, #0
 909              	.LVL101:
 910              	.L47:
 183:DRF0554.c     **** 
 911              		.loc 1 183 0
 912              		@ sp needed
 913 0096 70BD     		pop	{r4, r5, r6, pc}
 914              	.L50:
 915              		.align	2
 916              	.L49:
 917 0098 00000000 		.word	I2C_config
 918 009c 00000000 		.word	_showFunction
 919 00a0 00000000 		.word	_showControl
 920 00a4 00000000 		.word	_showMode
 921              		.cfi_endproc
 922              	.LFE593:
 923              		.size	LCD_Start, .-LCD_Start
 924              		.section	.text.LCD_Print,"ax",%progbits
 925              		.align	2
 926              		.global	LCD_Print
 927              		.code	16
 928              		.thumb_func
 929              		.type	LCD_Print, %function
 930              	LCD_Print:
 931              	.LFB603:
 306:DRF0554.c     **** 
 307:DRF0554.c     ****  
 308:DRF0554.c     **** // Prints all characters from zero terminated string STR. 
 309:DRF0554.c     **** // If strlen(str) > 16, call LCD_Autoscroll(On) first. 
 310:DRF0554.c     **** // Returns FALSE on error, TRUE otherwise. 
 311:DRF0554.c     **** bool LCD_Print(char *str){
 932              		.loc 1 311 0
 933              		.cfi_startproc
 934              		@ args = 0, pretend = 0, frame = 0
 935              		@ frame_needed = 0, uses_anonymous_args = 0
 936              	.LVL102:
 937 0000 70B5     		push	{r4, r5, r6, lr}
 938              		.cfi_def_cfa_offset 16
 939              		.cfi_offset 4, -16
 940              		.cfi_offset 5, -12
 941              		.cfi_offset 6, -8
 942              		.cfi_offset 14, -4
 943 0002 0600     		movs	r6, r0
 312:DRF0554.c     ****     uint8_t size = strlen(str);
 944              		.loc 1 312 0
 945 0004 FFF7FEFF 		bl	strlen
ARM GAS  C:\Users\guill\AppData\Local\Temp\cclz5xua.s 			page 46


 946              	.LVL103:
 947 0008 0500     		movs	r5, r0
 948 000a C0B2     		uxtb	r0, r0
 949              	.LVL104:
 313:DRF0554.c     ****     uint32_t i;
 314:DRF0554.c     ****     if(size>16){
 950              		.loc 1 314 0
 951 000c 1028     		cmp	r0, #16
 952 000e 13D9     		bls	.L57
 315:DRF0554.c     ****         LCD_Autoscroll(On);
 953              		.loc 1 315 0
 954 0010 0120     		movs	r0, #1
 955              	.LVL105:
 956 0012 FFF7FEFF 		bl	LCD_Autoscroll
 957              	.LVL106:
 316:DRF0554.c     ****         for (i = 0; i < size; i++){
 958              		.loc 1 316 0
 959 0016 0024     		movs	r4, #0
 960 0018 03E0     		b	.L53
 961              	.LVL107:
 962              	.L54:
 317:DRF0554.c     ****             write(str[i]);
 963              		.loc 1 317 0 discriminator 3
 964 001a 305D     		ldrb	r0, [r6, r4]
 965 001c FFF7FEFF 		bl	write
 966              	.LVL108:
 316:DRF0554.c     ****         for (i = 0; i < size; i++){
 967              		.loc 1 316 0 discriminator 3
 968 0020 0134     		adds	r4, r4, #1
 969              	.LVL109:
 970              	.L53:
 316:DRF0554.c     ****         for (i = 0; i < size; i++){
 971              		.loc 1 316 0 is_stmt 0 discriminator 1
 972 0022 FF23     		movs	r3, #255
 973 0024 2B40     		ands	r3, r5
 974 0026 9C42     		cmp	r4, r3
 975 0028 F7D3     		bcc	.L54
 318:DRF0554.c     ****         }
 319:DRF0554.c     ****       return true;
 976              		.loc 1 319 0 is_stmt 1
 977 002a 0120     		movs	r0, #1
 978 002c 0AE0     		b	.L55
 979              	.L56:
 320:DRF0554.c     ****     }
 321:DRF0554.c     ****     
 322:DRF0554.c     ****        for (i = 0; i < size; i++){
 323:DRF0554.c     ****             write(str[i]);
 980              		.loc 1 323 0 discriminator 3
 981 002e 305D     		ldrb	r0, [r6, r4]
 982 0030 FFF7FEFF 		bl	write
 983              	.LVL110:
 322:DRF0554.c     ****             write(str[i]);
 984              		.loc 1 322 0 discriminator 3
 985 0034 0134     		adds	r4, r4, #1
 986              	.LVL111:
 987 0036 00E0     		b	.L52
 988              	.LVL112:
ARM GAS  C:\Users\guill\AppData\Local\Temp\cclz5xua.s 			page 47


 989              	.L57:
 990 0038 0024     		movs	r4, #0
 991              	.LVL113:
 992              	.L52:
 322:DRF0554.c     ****             write(str[i]);
 993              		.loc 1 322 0 is_stmt 0 discriminator 1
 994 003a FF23     		movs	r3, #255
 995 003c 2B40     		ands	r3, r5
 996 003e 9C42     		cmp	r4, r3
 997 0040 F5D3     		bcc	.L56
 324:DRF0554.c     ****         }
 325:DRF0554.c     ****       return false;
 998              		.loc 1 325 0 is_stmt 1
 999 0042 0020     		movs	r0, #0
 1000              	.L55:
 326:DRF0554.c     ****     
 327:DRF0554.c     ****        
 328:DRF0554.c     **** }...
 1001              		.loc 1 328 0
 1002              		@ sp needed
 1003              	.LVL114:
 1004              	.LVL115:
 1005 0044 70BD     		pop	{r4, r5, r6, pc}
 1006              		.cfi_endproc
 1007              	.LFE603:
 1008              		.size	LCD_Print, .-LCD_Print
 1009              		.global	_rows
 1010              		.global	_cols
 1011              		.global	_RGBAddr
 1012              		.global	_lcdAddr
 1013              		.comm	_currLine,1,1
 1014              		.comm	_numLines,1,1
 1015              		.comm	_initialized,1,1
 1016              		.comm	_showMode,1,1
 1017              		.comm	_showControl,1,1
 1018              		.comm	_showFunction,1,1
 1019 0046 C046     		.data
 1020              		.set	.LANCHOR0,. + 0
 1021              		.type	_lcdAddr, %object
 1022              		.size	_lcdAddr, 1
 1023              	_lcdAddr:
 1024 0000 3E       		.byte	62
 1025              		.type	_RGBAddr, %object
 1026              		.size	_RGBAddr, 1
 1027              	_RGBAddr:
 1028 0001 60       		.byte	96
 1029              		.type	_rows, %object
 1030              		.size	_rows, 1
 1031              	_rows:
 1032 0002 02       		.byte	2
 1033              		.type	_cols, %object
 1034              		.size	_cols, 1
 1035              	_cols:
 1036 0003 10       		.byte	16
 1037              		.text
 1038              	.Letext0:
 1039              		.file 3 "c:\\program files (x86)\\cypress\\psoc creator\\4.4\\psoc creator\\import\\gnu\\arm\\5.4.
ARM GAS  C:\Users\guill\AppData\Local\Temp\cclz5xua.s 			page 48


 1040              		.file 4 "c:\\program files (x86)\\cypress\\psoc creator\\4.4\\psoc creator\\import\\gnu\\arm\\5.4.
 1041              		.file 5 "Generated_Source\\PSoC6\\pdl\\devices/psoc6/include/ip/cyip_scb.h"
 1042              		.file 6 "Generated_Source\\PSoC6\\pdl\\devices/psoc6/include/psoc6_01_config.h"
 1043              		.file 7 "Generated_Source\\PSoC6\\pdl\\drivers/peripheral/device/cy_device.h"
 1044              		.file 8 "Generated_Source\\PSoC6\\pdl\\drivers/peripheral/scb/cy_scb_uart.h"
 1045              		.file 9 "Generated_Source\\PSoC6\\pdl\\drivers/peripheral/tcpwm/cy_tcpwm_counter.h"
 1046              		.file 10 "Generated_Source\\PSoC6\\pdl\\drivers/peripheral/tcpwm/cy_tcpwm_pwm.h"
 1047              		.file 11 "DRF0554.h"
 1048              		.file 12 "Generated_Source\\PSoC6/UART.h"
 1049              		.file 13 "Generated_Source\\PSoC6/PWM_Blue.h"
 1050              		.file 14 "Generated_Source\\PSoC6/PWM_Green.h"
 1051              		.file 15 "Generated_Source\\PSoC6/I2C.h"
 1052              		.file 16 "Generated_Source\\PSoC6/Timer_Echo.h"
 1053              		.file 17 "Generated_Source\\PSoC6/PWM_Trigger.h"
 1054              		.file 18 "Generated_Source\\PSoC6\\pdl\\drivers/peripheral/syslib/cy_syslib.h"
 1055              		.file 19 "c:\\program files (x86)\\cypress\\psoc creator\\4.4\\psoc creator\\import\\gnu\\arm\\5.4