ARM GAS  C:\Users\guill\AppData\Local\Temp\cclz5xua.s 			page 1


   1              		.syntax unified
   2              		.cpu cortex-m0plus
   3              		.fpu softvfp
   4              		.eabi_attribute 20, 1
   5              		.eabi_attribute 21, 1
   6              		.eabi_attribute 23, 3
   7              		.eabi_attribute 24, 1
   8              		.eabi_attribute 25, 1
   9              		.eabi_attribute 26, 1
  10              		.eabi_attribute 30, 1
  11              		.eabi_attribute 34, 0
  12              		.eabi_attribute 18, 4
  13              		.thumb
  14              		.syntax unified
  15              		.file	"DRF0554.c"
  16              		.text
  17              	.Ltext0:
  18              		.cfi_sections	.debug_frame
  19              		.section	.text.send,"ax",%progbits
  20              		.align	2
  21              		.global	send
  22              		.code	16
  23              		.thumb_func
  24              		.type	send, %function
  25              	send:
  26              	.LFB589:
  27              		.file 1 "DRF0554.c"
   1:DRF0554.c     **** #include<stdio.h>
   2:DRF0554.c     **** #include<string.h>
   3:DRF0554.c     **** #include "DRF0554.h"
   4:DRF0554.c     **** 
   5:DRF0554.c     **** 
   6:DRF0554.c     **** 
   7:DRF0554.c     **** #define LCD_ADDRESS     (0x7c>>1)
   8:DRF0554.c     **** #define RGB_ADDRESS     (0xc0>>1)
   9:DRF0554.c     **** 
  10:DRF0554.c     **** /*!
  11:DRF0554.c     ****  *  @brief color define
  12:DRF0554.c     ****  */ 
  13:DRF0554.c     **** #define WHITE           0
  14:DRF0554.c     **** #define RED             1
  15:DRF0554.c     **** #define GREEN           2
  16:DRF0554.c     **** #define BLUE            3
  17:DRF0554.c     **** 
  18:DRF0554.c     **** #define REG_RED         0x04        // pwm2
  19:DRF0554.c     **** #define REG_GREEN       0x03        // pwm1
  20:DRF0554.c     **** #define REG_BLUE        0x02        // pwm0
  21:DRF0554.c     **** 
  22:DRF0554.c     **** #define REG_MODE1       0x00
  23:DRF0554.c     **** #define REG_MODE2       0x01
  24:DRF0554.c     **** #define REG_OUTPUT      0x08
  25:DRF0554.c     **** 
  26:DRF0554.c     **** /*!
  27:DRF0554.c     ****  *  @brief commands
  28:DRF0554.c     ****  */
  29:DRF0554.c     **** #define LCD_CLEARDISPLAY 0x01
  30:DRF0554.c     **** #define LCD_RETURNHOME 0x02
ARM GAS  C:\Users\guill\AppData\Local\Temp\cclz5xua.s 			page 2


  31:DRF0554.c     **** #define LCD_ENTRYMODESET 0x04
  32:DRF0554.c     **** #define LCD_DISPLAYCONTROL 0x08
  33:DRF0554.c     **** #define LCD_CURSORSHIFT 0x10
  34:DRF0554.c     **** #define LCD_FUNCTIONSET 0x20
  35:DRF0554.c     **** #define LCD_SETCGRAMADDR 0x40
  36:DRF0554.c     **** #define LCD_SETDDRAMADDR 0x80
  37:DRF0554.c     **** 
  38:DRF0554.c     **** /*!
  39:DRF0554.c     ****  *  @brief flags for display entry mode
  40:DRF0554.c     ****  */
  41:DRF0554.c     **** #define LCD_ENTRYRIGHT 0x00
  42:DRF0554.c     **** #define LCD_ENTRYLEFT 0x02
  43:DRF0554.c     **** #define LCD_ENTRYSHIFTINCREMENT 0x01
  44:DRF0554.c     **** #define LCD_ENTRYSHIFTDECREMENT 0x00
  45:DRF0554.c     **** 
  46:DRF0554.c     **** /*!
  47:DRF0554.c     ****  *  @brief flags for display on/off control
  48:DRF0554.c     ****  */
  49:DRF0554.c     **** #define LCD_DISPLAYON 0x04
  50:DRF0554.c     **** #define LCD_DISPLAYOFF 0x00
  51:DRF0554.c     **** #define LCD_CURSORON 0x02
  52:DRF0554.c     **** #define LCD_CURSOROFF 0x00
  53:DRF0554.c     **** #define LCD_BLINKON 0x01
  54:DRF0554.c     **** #define LCD_BLINKOFF 0x00
  55:DRF0554.c     **** 
  56:DRF0554.c     **** /*!
  57:DRF0554.c     ****  *  @brief flags for display/cursor shift
  58:DRF0554.c     ****  */
  59:DRF0554.c     **** #define LCD_DISPLAYMOVE 0x08
  60:DRF0554.c     **** #define LCD_CURSORMOVE 0x00
  61:DRF0554.c     **** #define LCD_MOVERIGHT 0x04
  62:DRF0554.c     **** #define LCD_MOVELEFT 0x00
  63:DRF0554.c     **** 
  64:DRF0554.c     **** /*!
  65:DRF0554.c     ****  *  @brief flags for function set
  66:DRF0554.c     ****  */
  67:DRF0554.c     **** #define LCD_8BITMODE 0x10
  68:DRF0554.c     **** #define LCD_4BITMODE 0x00
  69:DRF0554.c     **** #define LCD_2LINE 0x08
  70:DRF0554.c     **** #define LCD_1LINE 0x00
  71:DRF0554.c     **** #define LCD_5x10DOTS 0x04
  72:DRF0554.c     **** #define LCD_5x8DOTS 0x00
  73:DRF0554.c     **** 
  74:DRF0554.c     **** uint8_t _showFunction;
  75:DRF0554.c     **** uint8_t _showControl;
  76:DRF0554.c     **** uint8_t _showMode;
  77:DRF0554.c     **** uint8_t _initialized;
  78:DRF0554.c     **** uint8_t _numLines,_currLine;
  79:DRF0554.c     **** uint8_t _lcdAddr = LCD_ADDRESS;
  80:DRF0554.c     **** uint8_t _RGBAddr= RGB_ADDRESS;
  81:DRF0554.c     **** uint8_t _cols = 16;
  82:DRF0554.c     **** uint8_t _rows = 2;
  83:DRF0554.c     **** 
  84:DRF0554.c     **** 
  85:DRF0554.c     **** 
  86:DRF0554.c     **** void send(uint8_t *data, uint8_t len){
  28              		.loc 1 86 0
ARM GAS  C:\Users\guill\AppData\Local\Temp\cclz5xua.s 			page 3


  29              		.cfi_startproc
  30              		@ args = 0, pretend = 0, frame = 0
  31              		@ frame_needed = 0, uses_anonymous_args = 0
  32              	.LVL0:
  33 0000 70B5     		push	{r4, r5, r6, lr}
  34              		.cfi_def_cfa_offset 16
  35              		.cfi_offset 4, -16
  36              		.cfi_offset 5, -12
  37              		.cfi_offset 6, -8
  38              		.cfi_offset 14, -4
  39 0002 82B0     		sub	sp, sp, #8
  40              		.cfi_def_cfa_offset 24
  41 0004 0600     		movs	r6, r0
  42 0006 0D00     		movs	r5, r1
  87:DRF0554.c     ****     Cy_SCB_I2C_MasterSendStart(I2C_HW,_lcdAddr,CY_SCB_I2C_WRITE_XFER,0,&I2C_context);
  43              		.loc 1 87 0
  44 0008 0E4B     		ldr	r3, .L4
  45 000a 1978     		ldrb	r1, [r3]
  46              	.LVL1:
  47 000c 0E4B     		ldr	r3, .L4+4
  48 000e 0093     		str	r3, [sp]
  49 0010 0023     		movs	r3, #0
  50 0012 0022     		movs	r2, #0
  51 0014 0D48     		ldr	r0, .L4+8
  52              	.LVL2:
  53 0016 FFF7FEFF 		bl	Cy_SCB_I2C_MasterSendStart
  54              	.LVL3:
  55              	.LBB4:
  88:DRF0554.c     ****     for (int i = 0; i < len; i++) {
  56              		.loc 1 88 0
  57 001a 0024     		movs	r4, #0
  58 001c 09E0     		b	.L2
  59              	.LVL4:
  60              	.L3:
  89:DRF0554.c     ****         Cy_SCB_I2C_MasterWriteByte(I2C_HW,data[i],0,&I2C_context);
  61              		.loc 1 89 0 discriminator 3
  62 001e 315D     		ldrb	r1, [r6, r4]
  63 0020 094B     		ldr	r3, .L4+4
  64 0022 0022     		movs	r2, #0
  65 0024 0948     		ldr	r0, .L4+8
  66 0026 FFF7FEFF 		bl	Cy_SCB_I2C_MasterWriteByte
  67              	.LVL5:
  90:DRF0554.c     ****         CyDelay(5);
  68              		.loc 1 90 0 discriminator 3
  69 002a 0520     		movs	r0, #5
  70 002c FFF7FEFF 		bl	Cy_SysLib_Delay
  71              	.LVL6:
  88:DRF0554.c     ****     for (int i = 0; i < len; i++) {
  72              		.loc 1 88 0 discriminator 3
  73 0030 0134     		adds	r4, r4, #1
  74              	.LVL7:
  75              	.L2:
  88:DRF0554.c     ****     for (int i = 0; i < len; i++) {
  76              		.loc 1 88 0 is_stmt 0 discriminator 1
  77 0032 AC42     		cmp	r4, r5
  78 0034 F3DB     		blt	.L3
  79              	.LBE4:
ARM GAS  C:\Users\guill\AppData\Local\Temp\cclz5xua.s 			page 4


  91:DRF0554.c     ****     }
  92:DRF0554.c     ****     Cy_SCB_I2C_MasterSendStop(I2C_HW,0,&I2C_context);  
  80              		.loc 1 92 0 is_stmt 1
  81 0036 044A     		ldr	r2, .L4+4
  82 0038 0021     		movs	r1, #0
  83 003a 0448     		ldr	r0, .L4+8
  84 003c FFF7FEFF 		bl	Cy_SCB_I2C_MasterSendStop
  85              	.LVL8:
  93:DRF0554.c     **** }
  86              		.loc 1 93 0
  87 0040 02B0     		add	sp, sp, #8
  88              		@ sp needed
  89              	.LVL9:
  90              	.LVL10:
  91 0042 70BD     		pop	{r4, r5, r6, pc}
  92              	.L5:
  93              		.align	2
  94              	.L4:
  95 0044 00000000 		.word	.LANCHOR0
  96 0048 00000000 		.word	I2C_context
  97 004c 00006740 		.word	1080492032
  98              		.cfi_endproc
  99              	.LFE589:
 100              		.size	send, .-send
 101              		.section	.text.command,"ax",%progbits
 102              		.align	2
 103              		.global	command
 104              		.code	16
 105              		.thumb_func
 106              		.type	command, %function
 107              	command:
 108              	.LFB590:
  94:DRF0554.c     **** 
  95:DRF0554.c     **** void command(uint8_t value){
 109              		.loc 1 95 0
 110              		.cfi_startproc
 111              		@ args = 0, pretend = 0, frame = 8
 112              		@ frame_needed = 0, uses_anonymous_args = 0
 113              	.LVL11:
 114 0000 30B5     		push	{r4, r5, lr}
 115              		.cfi_def_cfa_offset 12
 116              		.cfi_offset 4, -12
 117              		.cfi_offset 5, -8
 118              		.cfi_offset 14, -4
 119 0002 83B0     		sub	sp, sp, #12
 120              		.cfi_def_cfa_offset 24
 121 0004 0500     		movs	r5, r0
  96:DRF0554.c     ****     uint8_t data[3] = {0x80, value};
 122              		.loc 1 96 0
 123 0006 01AC     		add	r4, sp, #4
 124 0008 0322     		movs	r2, #3
 125 000a 0021     		movs	r1, #0
 126 000c 2000     		movs	r0, r4
 127              	.LVL12:
 128 000e FFF7FEFF 		bl	memset
 129              	.LVL13:
 130 0012 8023     		movs	r3, #128
ARM GAS  C:\Users\guill\AppData\Local\Temp\cclz5xua.s 			page 5


 131 0014 2370     		strb	r3, [r4]
 132 0016 6570     		strb	r5, [r4, #1]
  97:DRF0554.c     ****     send(data, 2);
 133              		.loc 1 97 0
 134 0018 0221     		movs	r1, #2
 135 001a 2000     		movs	r0, r4
 136 001c FFF7FEFF 		bl	send
 137              	.LVL14:
  98:DRF0554.c     **** }
 138              		.loc 1 98 0
 139 0020 03B0     		add	sp, sp, #12
 140              		@ sp needed
 141 0022 30BD     		pop	{r4, r5, pc}
 142              		.cfi_endproc
 143              	.LFE590:
 144              		.size	command, .-command
 145              		.section	.text.setReg,"ax",%progbits
 146              		.align	2
 147              		.global	setReg
 148              		.code	16
 149              		.thumb_func
 150              		.type	setReg, %function
 151              	setReg:
 152              	.LFB591:
  99:DRF0554.c     **** 
 100:DRF0554.c     **** void setReg(uint8_t addr, uint8_t data){
 153              		.loc 1 100 0
 154              		.cfi_startproc
 155              		@ args = 0, pretend = 0, frame = 0
 156              		@ frame_needed = 0, uses_anonymous_args = 0
 157              	.LVL15:
 158 0000 F0B5     		push	{r4, r5, r6, r7, lr}
 159              		.cfi_def_cfa_offset 20
 160              		.cfi_offset 4, -20
 161              		.cfi_offset 5, -16
 162              		.cfi_offset 6, -12
 163              		.cfi_offset 7, -8
 164              		.cfi_offset 14, -4
 165 0002 83B0     		sub	sp, sp, #12
 166              		.cfi_def_cfa_offset 32
 167 0004 0700     		movs	r7, r0
 168 0006 0E00     		movs	r6, r1
 101:DRF0554.c     ****     Cy_SCB_I2C_MasterSendStart(I2C_HW,_RGBAddr,CY_SCB_I2C_WRITE_XFER,0,&I2C_context);
 169              		.loc 1 101 0
 170 0008 0E4B     		ldr	r3, .L8
 171 000a 5978     		ldrb	r1, [r3, #1]
 172              	.LVL16:
 173 000c 0E4C     		ldr	r4, .L8+4
 174 000e 0F4D     		ldr	r5, .L8+8
 175 0010 0095     		str	r5, [sp]
 176 0012 0023     		movs	r3, #0
 177 0014 0022     		movs	r2, #0
 178 0016 2000     		movs	r0, r4
 179              	.LVL17:
 180 0018 FFF7FEFF 		bl	Cy_SCB_I2C_MasterSendStart
 181              	.LVL18:
 102:DRF0554.c     ****     Cy_SCB_I2C_MasterWriteByte(I2C_HW,addr,0,&I2C_context);
ARM GAS  C:\Users\guill\AppData\Local\Temp\cclz5xua.s 			page 6


 182              		.loc 1 102 0
 183 001c 2B00     		movs	r3, r5
 184 001e 0022     		movs	r2, #0
 185 0020 3900     		movs	r1, r7
 186 0022 2000     		movs	r0, r4
 187 0024 FFF7FEFF 		bl	Cy_SCB_I2C_MasterWriteByte
 188              	.LVL19:
 103:DRF0554.c     ****     Cy_SCB_I2C_MasterWriteByte(I2C_HW,data,0,&I2C_context);
 189              		.loc 1 103 0
 190 0028 2B00     		movs	r3, r5
 191 002a 0022     		movs	r2, #0
 192 002c 3100     		movs	r1, r6
 193 002e 2000     		movs	r0, r4
 194 0030 FFF7FEFF 		bl	Cy_SCB_I2C_MasterWriteByte
 195              	.LVL20:
 104:DRF0554.c     ****     Cy_SCB_I2C_MasterSendStop(I2C_HW,0,&I2C_context);  
 196              		.loc 1 104 0
 197 0034 2A00     		movs	r2, r5
 198 0036 0021     		movs	r1, #0
 199 0038 2000     		movs	r0, r4
 200 003a FFF7FEFF 		bl	Cy_SCB_I2C_MasterSendStop
 201              	.LVL21:
 105:DRF0554.c     **** }
 202              		.loc 1 105 0
 203 003e 03B0     		add	sp, sp, #12
 204              		@ sp needed
 205 0040 F0BD     		pop	{r4, r5, r6, r7, pc}
 206              	.L9:
 207 0042 C046     		.align	2
 208              	.L8:
 209 0044 00000000 		.word	.LANCHOR0
 210 0048 00006740 		.word	1080492032
 211 004c 00000000 		.word	I2C_context
 212              		.cfi_endproc
 213              	.LFE591:
 214              		.size	setReg, .-setReg
 215              		.section	.text.write,"ax",%progbits
 216              		.align	2
 217              		.global	write
 218              		.code	16
 219              		.thumb_func
 220              		.type	write, %function
 221              	write:
 222              	.LFB592:
 106:DRF0554.c     **** 
 107:DRF0554.c     **** void write(uint8_t value){
 223              		.loc 1 107 0
 224              		.cfi_startproc
 225              		@ args = 0, pretend = 0, frame = 8
 226              		@ frame_needed = 0, uses_anonymous_args = 0
 227              	.LVL22:
 228 0000 30B5     		push	{r4, r5, lr}
 229              		.cfi_def_cfa_offset 12
 230              		.cfi_offset 4, -12
 231              		.cfi_offset 5, -8
 232              		.cfi_offset 14, -4
 233 0002 83B0     		sub	sp, sp, #12
ARM GAS  C:\Users\guill\AppData\Local\Temp\cclz5xua.s 			page 7


 234              		.cfi_def_cfa_offset 24
 235 0004 0500     		movs	r5, r0
 108:DRF0554.c     **** 
 109:DRF0554.c     ****     uint8_t data[3] = {0x40, value};
 236              		.loc 1 109 0
 237 0006 01AC     		add	r4, sp, #4
 238 0008 0322     		movs	r2, #3
 239 000a 0021     		movs	r1, #0
 240 000c 2000     		movs	r0, r4
 241              	.LVL23:
 242 000e FFF7FEFF 		bl	memset
 243              	.LVL24:
 244 0012 4023     		movs	r3, #64
 245 0014 2370     		strb	r3, [r4]
 246 0016 6570     		strb	r5, [r4, #1]
 110:DRF0554.c     ****     send(data, 2);
 247              		.loc 1 110 0
 248 0018 0221     		movs	r1, #2
 249 001a 2000     		movs	r0, r4
 250 001c FFF7FEFF 		bl	send
 251              	.LVL25:
 111:DRF0554.c     **** }
 252              		.loc 1 111 0
 253 0020 03B0     		add	sp, sp, #12
 254              		@ sp needed
 255 0022 30BD     		pop	{r4, r5, pc}
 256              		.cfi_endproc
 257              	.LFE592:
 258              		.size	write, .-write
 259              		.section	.text.LCD_Display,"ax",%progbits
 260              		.align	2
 261              		.global	LCD_Display
 262              		.code	16
 263              		.thumb_func
 264              		.type	LCD_Display, %function
 265              	LCD_Display:
 266              	.LFB594:
 112:DRF0554.c     **** 
 113:DRF0554.c     **** 
 114:DRF0554.c     **** // Connects PSoC 6 I2C MASTER with associated CONTEXT to a connected DRF0554 
 115:DRF0554.c     **** // 16x2 backlight RGB LCD. Text direction will be fixed left-to-right. 
 116:DRF0554.c     **** // Initial settings: 
 117:DRF0554.c     **** //    Display    On 
 118:DRF0554.c     **** //    Color      White 
 119:DRF0554.c     **** //    Blink      Off 
 120:DRF0554.c     **** //    Cursor     Off 
 121:DRF0554.c     **** //    Autoscroll Off 
 122:DRF0554.c     **** // Returns FALSE on error, TRUE otherwise. 
 123:DRF0554.c     **** bool LCD_Start(CySCB_Type *master, cy_stc_scb_i2c_context_t *context){
 124:DRF0554.c     **** 
 125:DRF0554.c     ****    cy_en_scb_i2c_status_t init_status;
 126:DRF0554.c     ****     //cy_en_sysint_status_t sys_status;
 127:DRF0554.c     ****   
 128:DRF0554.c     ****     init_status = Cy_SCB_I2C_Init(master, &I2C_config, context);
 129:DRF0554.c     ****     //sys_status = Cy_SysInt_Init(&I2C_SCB_IRQ_cfg, &I2C_Interrupt);
 130:DRF0554.c     ****     if(init_status!=CY_SCB_I2C_SUCCESS){
 131:DRF0554.c     ****         return false;
ARM GAS  C:\Users\guill\AppData\Local\Temp\cclz5xua.s 			page 8


 132:DRF0554.c     ****     }
 133:DRF0554.c     ****    // if(sys_status!=CY_SCB_I2C_SUCCESS){
 134:DRF0554.c     ****      //   return false;
 135:DRF0554.c     ****     //}
 136:DRF0554.c     **** 
 137:DRF0554.c     ****    // NVIC_EnableIRQ((IRQn_Type) I2C_SCB_IRQ_cfg.intrSrc);
 138:DRF0554.c     ****     Cy_SCB_I2C_Enable(master);
 139:DRF0554.c     **** 
 140:DRF0554.c     ****     _showFunction |= LCD_2LINE;
 141:DRF0554.c     ****     
 142:DRF0554.c     **** 
 143:DRF0554.c     ****     CyDelay(50);
 144:DRF0554.c     **** 
 145:DRF0554.c     ****     ///< this is according to the hitachi HD44780 datasheet
 146:DRF0554.c     ****     ///< page 45 figure 23
 147:DRF0554.c     **** 
 148:DRF0554.c     ****     ///< Send function set command sequence
 149:DRF0554.c     ****     command(LCD_FUNCTIONSET | _showFunction);
 150:DRF0554.c     ****     CyDelay(5);  // wait more than 4.1ms
 151:DRF0554.c     **** 	
 152:DRF0554.c     **** 	///< second try
 153:DRF0554.c     ****     command(LCD_FUNCTIONSET | _showFunction);
 154:DRF0554.c     ****     CyDelay(5);
 155:DRF0554.c     **** 
 156:DRF0554.c     ****     ///< third go
 157:DRF0554.c     ****     command(LCD_FUNCTIONSET | _showFunction);
 158:DRF0554.c     **** 
 159:DRF0554.c     ****     ///< turn the display on with no cursor or blinking default
 160:DRF0554.c     ****     _showControl = LCD_DISPLAYON | LCD_CURSOROFF | LCD_BLINKOFF;
 161:DRF0554.c     ****     LCD_Display(On);
 162:DRF0554.c     **** 
 163:DRF0554.c     ****     ///< clear it off
 164:DRF0554.c     ****     LCD_Clear();
 165:DRF0554.c     **** 
 166:DRF0554.c     ****     ///< Initialize to default text direction (for romance languages)
 167:DRF0554.c     ****     _showMode = LCD_ENTRYLEFT | LCD_ENTRYSHIFTDECREMENT;
 168:DRF0554.c     ****     ///< set the entry mode
 169:DRF0554.c     ****     command(LCD_ENTRYMODESET | _showMode);
 170:DRF0554.c     ****     
 171:DRF0554.c     ****     
 172:DRF0554.c     ****     ///< backlight init
 173:DRF0554.c     ****     setReg(REG_MODE1, 0);
 174:DRF0554.c     ****     ///< set LEDs controllable by both PWM and GRPPWM registers
 175:DRF0554.c     ****     setReg(REG_OUTPUT, 0xFF);
 176:DRF0554.c     ****     ///< set MODE2 values
 177:DRF0554.c     ****     ///< 0010 0000 -> 0x20  (DMBLNK to 1, ie blinky mode)
 178:DRF0554.c     ****     setReg(REG_MODE2, 0x20);
 179:DRF0554.c     ****     
 180:DRF0554.c     ****     LCD_SetColor(White);
 181:DRF0554.c     ****    return true; 
 182:DRF0554.c     ****     
 183:DRF0554.c     **** }
 184:DRF0554.c     **** 
 185:DRF0554.c     **** // Turns the display on if MODE is On, turns display off otherwise. 
 186:DRF0554.c     **** // Returns FALSE on error, TRUE otherwise. 
 187:DRF0554.c     **** bool LCD_Display(enum mode state){
 267              		.loc 1 187 0
ARM GAS  C:\Users\guill\AppData\Local\Temp\cclz5xua.s 			page 9


 268              		.cfi_startproc
 269              		@ args = 0, pretend = 0, frame = 0
 270              		@ frame_needed = 0, uses_anonymous_args = 0
 271              	.LVL26:
 272 0000 10B5     		push	{r4, lr}
 273              		.cfi_def_cfa_offset 8
 274              		.cfi_offset 4, -8
 275              		.cfi_offset 14, -4
 188:DRF0554.c     ****     if(state == On){
 276              		.loc 1 188 0
 277 0002 0128     		cmp	r0, #1
 278 0004 0BD1     		bne	.L12
 189:DRF0554.c     ****     _showControl |= LCD_DISPLAYON;
 279              		.loc 1 189 0
 280 0006 0C4A     		ldr	r2, .L14
 281 0008 1078     		ldrb	r0, [r2]
 282              	.LVL27:
 283 000a 0423     		movs	r3, #4
 284 000c 0343     		orrs	r3, r0
 285 000e DBB2     		uxtb	r3, r3
 286 0010 1370     		strb	r3, [r2]
 190:DRF0554.c     ****     command(LCD_DISPLAYCONTROL | _showControl);
 287              		.loc 1 190 0
 288 0012 0820     		movs	r0, #8
 289 0014 0343     		orrs	r3, r0
 290 0016 D8B2     		uxtb	r0, r3
 291 0018 FFF7FEFF 		bl	command
 292              	.LVL28:
 293 001c 09E0     		b	.L13
 294              	.LVL29:
 295              	.L12:
 191:DRF0554.c     ****     }
 192:DRF0554.c     ****     else{
 193:DRF0554.c     ****         _showControl &= ~LCD_DISPLAYON;
 296              		.loc 1 193 0
 297 001e 064B     		ldr	r3, .L14
 298 0020 1878     		ldrb	r0, [r3]
 299              	.LVL30:
 300 0022 0422     		movs	r2, #4
 301 0024 9043     		bics	r0, r2
 302 0026 1870     		strb	r0, [r3]
 194:DRF0554.c     ****         command(LCD_DISPLAYCONTROL | _showControl);
 303              		.loc 1 194 0
 304 0028 0823     		movs	r3, #8
 305 002a 1843     		orrs	r0, r3
 306 002c C0B2     		uxtb	r0, r0
 307 002e FFF7FEFF 		bl	command
 308              	.LVL31:
 309              	.L13:
 195:DRF0554.c     ****     }
 196:DRF0554.c     ****     return true;
 197:DRF0554.c     **** }
 310              		.loc 1 197 0
 311 0032 0120     		movs	r0, #1
 312              		@ sp needed
 313 0034 10BD     		pop	{r4, pc}
 314              	.L15:
ARM GAS  C:\Users\guill\AppData\Local\Temp\cclz5xua.s 			page 10


 315 0036 C046     		.align	2
 316              	.L14:
 317 0038 00000000 		.word	_showControl
 318              		.cfi_endproc
 319              	.LFE594:
 320              		.size	LCD_Display, .-LCD_Display
 321              		.section	.text.LCD_Blink,"ax",%progbits
 322              		.align	2
 323              		.global	LCD_Blink
 324              		.code	16
 325              		.thumb_func
 326              		.type	LCD_Blink, %function
 327              	LCD_Blink:
 328              	.LFB595:
 198:DRF0554.c     **** 
 199:DRF0554.c     **** // Sets the display to blink if MODE is On, non-blinking otherwise. 
 200:DRF0554.c     **** // Returns FALSE on error, TRUE otherwise. 
 201:DRF0554.c     **** bool LCD_Blink(enum mode x){
 329              		.loc 1 201 0
 330              		.cfi_startproc
 331              		@ args = 0, pretend = 0, frame = 0
 332              		@ frame_needed = 0, uses_anonymous_args = 0
 333              	.LVL32:
 334 0000 10B5     		push	{r4, lr}
 335              		.cfi_def_cfa_offset 8
 336              		.cfi_offset 4, -8
 337              		.cfi_offset 14, -4
 202:DRF0554.c     ****     if(x == On){
 338              		.loc 1 202 0
 339 0002 0128     		cmp	r0, #1
 340 0004 0CD1     		bne	.L17
 203:DRF0554.c     ****         _showControl |= LCD_BLINKON;
 341              		.loc 1 203 0
 342 0006 0C4A     		ldr	r2, .L19
 343 0008 1078     		ldrb	r0, [r2]
 344              	.LVL33:
 345 000a 0123     		movs	r3, #1
 346 000c 0343     		orrs	r3, r0
 347 000e DBB2     		uxtb	r3, r3
 348 0010 1370     		strb	r3, [r2]
 204:DRF0554.c     ****         command(LCD_DISPLAYCONTROL | _showControl);
 349              		.loc 1 204 0
 350 0012 0820     		movs	r0, #8
 351 0014 0343     		orrs	r3, r0
 352 0016 D8B2     		uxtb	r0, r3
 353 0018 FFF7FEFF 		bl	command
 354              	.LVL34:
 205:DRF0554.c     ****         return true;
 355              		.loc 1 205 0
 356 001c 0120     		movs	r0, #1
 357 001e 0AE0     		b	.L18
 358              	.LVL35:
 359              	.L17:
 206:DRF0554.c     ****     }
 207:DRF0554.c     ****     _showControl &= ~LCD_BLINKON;
 360              		.loc 1 207 0
 361 0020 054B     		ldr	r3, .L19
ARM GAS  C:\Users\guill\AppData\Local\Temp\cclz5xua.s 			page 11


 362 0022 1878     		ldrb	r0, [r3]
 363              	.LVL36:
 364 0024 0122     		movs	r2, #1
 365 0026 9043     		bics	r0, r2
 366 0028 1870     		strb	r0, [r3]
 208:DRF0554.c     ****     command(LCD_DISPLAYCONTROL | _showControl);
 367              		.loc 1 208 0
 368 002a 0823     		movs	r3, #8
 369 002c 1843     		orrs	r0, r3
 370 002e C0B2     		uxtb	r0, r0
 371 0030 FFF7FEFF 		bl	command
 372              	.LVL37:
 209:DRF0554.c     ****     return false;
 373              		.loc 1 209 0
 374 0034 0020     		movs	r0, #0
 375              	.L18:
 210:DRF0554.c     **** }
 376              		.loc 1 210 0
 377              		@ sp needed
 378 0036 10BD     		pop	{r4, pc}
 379              	.L20:
 380              		.align	2
 381              	.L19:
 382 0038 00000000 		.word	_showControl
 383              		.cfi_endproc
 384              	.LFE595:
 385              		.size	LCD_Blink, .-LCD_Blink
 386              		.section	.text.LCD_Cursor,"ax",%progbits
 387              		.align	2
 388              		.global	LCD_Cursor
 389              		.code	16
 390              		.thumb_func
 391              		.type	LCD_Cursor, %function
 392              	LCD_Cursor:
 393              	.LFB596:
 211:DRF0554.c     ****  
 212:DRF0554.c     **** // Shows the cursor if MODE is On, hides it otherwise. 
 213:DRF0554.c     **** // Returns FALSE on error, TRUE otherwise. 
 214:DRF0554.c     **** bool LCD_Cursor(enum mode x){
 394              		.loc 1 214 0
 395              		.cfi_startproc
 396              		@ args = 0, pretend = 0, frame = 0
 397              		@ frame_needed = 0, uses_anonymous_args = 0
 398              	.LVL38:
 399 0000 10B5     		push	{r4, lr}
 400              		.cfi_def_cfa_offset 8
 401              		.cfi_offset 4, -8
 402              		.cfi_offset 14, -4
 215:DRF0554.c     ****     if(x == On){
 403              		.loc 1 215 0
 404 0002 0128     		cmp	r0, #1
 405 0004 0CD1     		bne	.L22
 216:DRF0554.c     ****         _showControl |= LCD_CURSORON;
 406              		.loc 1 216 0
 407 0006 0C4A     		ldr	r2, .L24
 408 0008 1078     		ldrb	r0, [r2]
 409              	.LVL39:
ARM GAS  C:\Users\guill\AppData\Local\Temp\cclz5xua.s 			page 12


 410 000a 0223     		movs	r3, #2
 411 000c 0343     		orrs	r3, r0
 412 000e DBB2     		uxtb	r3, r3
 413 0010 1370     		strb	r3, [r2]
 217:DRF0554.c     ****         command(LCD_DISPLAYCONTROL | _showControl);
 414              		.loc 1 217 0
 415 0012 0820     		movs	r0, #8
 416 0014 0343     		orrs	r3, r0
 417 0016 D8B2     		uxtb	r0, r3
 418 0018 FFF7FEFF 		bl	command
 419              	.LVL40:
 218:DRF0554.c     ****         return true;
 420              		.loc 1 218 0
 421 001c 0120     		movs	r0, #1
 422 001e 0AE0     		b	.L23
 423              	.LVL41:
 424              	.L22:
 219:DRF0554.c     ****     }
 220:DRF0554.c     ****     _showControl &= ~LCD_CURSORON;
 425              		.loc 1 220 0
 426 0020 054B     		ldr	r3, .L24
 427 0022 1878     		ldrb	r0, [r3]
 428              	.LVL42:
 429 0024 0222     		movs	r2, #2
 430 0026 9043     		bics	r0, r2
 431 0028 1870     		strb	r0, [r3]
 221:DRF0554.c     ****     command(LCD_DISPLAYCONTROL | _showControl);
 432              		.loc 1 221 0
 433 002a 0823     		movs	r3, #8
 434 002c 1843     		orrs	r0, r3
 435 002e C0B2     		uxtb	r0, r0
 436 0030 FFF7FEFF 		bl	command
 437              	.LVL43:
 222:DRF0554.c     ****     return false;
 438              		.loc 1 222 0
 439 0034 0020     		movs	r0, #0
 440              	.L23:
 223:DRF0554.c     **** }
 441              		.loc 1 223 0
 442              		@ sp needed
 443 0036 10BD     		pop	{r4, pc}
 444              	.L25:
 445              		.align	2
 446              	.L24:
 447 0038 00000000 		.word	_showControl
 448              		.cfi_endproc
 449              	.LFE596:
 450              		.size	LCD_Cursor, .-LCD_Cursor
 451              		.section	.text.LCD_Autoscroll,"ax",%progbits
 452              		.align	2
 453              		.global	LCD_Autoscroll
 454              		.code	16
 455              		.thumb_func
 456              		.type	LCD_Autoscroll, %function
 457              	LCD_Autoscroll:
 458              	.LFB597:
 224:DRF0554.c     ****  
ARM GAS  C:\Users\guill\AppData\Local\Temp\cclz5xua.s 			page 13


 225:DRF0554.c     **** // Sets the display to autoscroll if MODE is On, non-scrolling otherwise. 
 226:DRF0554.c     **** // Returns FALSE on error, TRUE otherwise. 
 227:DRF0554.c     **** bool LCD_Autoscroll(enum mode x){
 459              		.loc 1 227 0
 460              		.cfi_startproc
 461              		@ args = 0, pretend = 0, frame = 0
 462              		@ frame_needed = 0, uses_anonymous_args = 0
 463              	.LVL44:
 464 0000 10B5     		push	{r4, lr}
 465              		.cfi_def_cfa_offset 8
 466              		.cfi_offset 4, -8
 467              		.cfi_offset 14, -4
 228:DRF0554.c     ****     if( x == On){
 468              		.loc 1 228 0
 469 0002 0128     		cmp	r0, #1
 470 0004 0CD1     		bne	.L27
 229:DRF0554.c     ****         _showMode |= LCD_ENTRYSHIFTINCREMENT;
 471              		.loc 1 229 0
 472 0006 0C4A     		ldr	r2, .L29
 473 0008 1078     		ldrb	r0, [r2]
 474              	.LVL45:
 475 000a 0123     		movs	r3, #1
 476 000c 0343     		orrs	r3, r0
 477 000e DBB2     		uxtb	r3, r3
 478 0010 1370     		strb	r3, [r2]
 230:DRF0554.c     ****         command(LCD_ENTRYMODESET | _showMode);
 479              		.loc 1 230 0
 480 0012 0420     		movs	r0, #4
 481 0014 0343     		orrs	r3, r0
 482 0016 D8B2     		uxtb	r0, r3
 483 0018 FFF7FEFF 		bl	command
 484              	.LVL46:
 231:DRF0554.c     **** 
 232:DRF0554.c     ****         return true;
 485              		.loc 1 232 0
 486 001c 0120     		movs	r0, #1
 487 001e 0AE0     		b	.L28
 488              	.LVL47:
 489              	.L27:
 233:DRF0554.c     ****     }
 234:DRF0554.c     ****      _showMode &= ~LCD_ENTRYSHIFTINCREMENT;
 490              		.loc 1 234 0
 491 0020 054B     		ldr	r3, .L29
 492 0022 1878     		ldrb	r0, [r3]
 493              	.LVL48:
 494 0024 0122     		movs	r2, #1
 495 0026 9043     		bics	r0, r2
 496 0028 1870     		strb	r0, [r3]
 235:DRF0554.c     ****      command(LCD_ENTRYMODESET | _showMode);
 497              		.loc 1 235 0
 498 002a 0423     		movs	r3, #4
 499 002c 1843     		orrs	r0, r3
 500 002e C0B2     		uxtb	r0, r0
 501 0030 FFF7FEFF 		bl	command
 502              	.LVL49:
 236:DRF0554.c     ****     return false;
 503              		.loc 1 236 0
ARM GAS  C:\Users\guill\AppData\Local\Temp\cclz5xua.s 			page 14


 504 0034 0020     		movs	r0, #0
 505              	.L28:
 237:DRF0554.c     ****   
 238:DRF0554.c     **** }
 506              		.loc 1 238 0
 507              		@ sp needed
 508 0036 10BD     		pop	{r4, pc}
 509              	.L30:
 510              		.align	2
 511              	.L29:
 512 0038 00000000 		.word	_showMode
 513              		.cfi_endproc
 514              	.LFE597:
 515              		.size	LCD_Autoscroll, .-LCD_Autoscroll
 516              		.section	.text.LCD_Scroll,"ax",%progbits
 517              		.align	2
 518              		.global	LCD_Scroll
 519              		.code	16
 520              		.thumb_func
 521              		.type	LCD_Scroll, %function
 522              	LCD_Scroll:
 523              	.LFB598:
 239:DRF0554.c     ****  
 240:DRF0554.c     **** // Scrolls display on char left if DIRECTION is Left, one char right otherwise. 
 241:DRF0554.c     **** // Returns FALSE on error, TRUE otherwise. 
 242:DRF0554.c     **** bool LCD_Scroll(enum direction x){
 524              		.loc 1 242 0
 525              		.cfi_startproc
 526              		@ args = 0, pretend = 0, frame = 0
 527              		@ frame_needed = 0, uses_anonymous_args = 0
 528              	.LVL50:
 529 0000 10B5     		push	{r4, lr}
 530              		.cfi_def_cfa_offset 8
 531              		.cfi_offset 4, -8
 532              		.cfi_offset 14, -4
 243:DRF0554.c     ****     if(x == Left){
 533              		.loc 1 243 0
 534 0002 0028     		cmp	r0, #0
 535 0004 04D1     		bne	.L32
 244:DRF0554.c     ****         command(LCD_CURSORSHIFT | LCD_DISPLAYMOVE | LCD_MOVELEFT);
 536              		.loc 1 244 0
 537 0006 1830     		adds	r0, r0, #24
 538              	.LVL51:
 539 0008 FFF7FEFF 		bl	command
 540              	.LVL52:
 245:DRF0554.c     ****         return true;
 541              		.loc 1 245 0
 542 000c 0120     		movs	r0, #1
 543 000e 07E0     		b	.L33
 544              	.LVL53:
 545              	.L32:
 246:DRF0554.c     ****     }
 247:DRF0554.c     ****     else if(x == Right){
 546              		.loc 1 247 0
 547 0010 0128     		cmp	r0, #1
 548 0012 04D1     		bne	.L34
 248:DRF0554.c     ****             command(LCD_CURSORSHIFT | LCD_DISPLAYMOVE | LCD_MOVERIGHT);
ARM GAS  C:\Users\guill\AppData\Local\Temp\cclz5xua.s 			page 15


 549              		.loc 1 248 0
 550 0014 1B30     		adds	r0, r0, #27
 551              	.LVL54:
 552 0016 FFF7FEFF 		bl	command
 553              	.LVL55:
 249:DRF0554.c     ****         return true;
 554              		.loc 1 249 0
 555 001a 0120     		movs	r0, #1
 556 001c 00E0     		b	.L33
 557              	.LVL56:
 558              	.L34:
 250:DRF0554.c     ****     }
 251:DRF0554.c     ****     else{
 252:DRF0554.c     ****         return false;
 559              		.loc 1 252 0
 560 001e 0020     		movs	r0, #0
 561              	.LVL57:
 562              	.L33:
 253:DRF0554.c     ****     }
 254:DRF0554.c     **** }
 563              		.loc 1 254 0
 564              		@ sp needed
 565 0020 10BD     		pop	{r4, pc}
 566              		.cfi_endproc
 567              	.LFE598:
 568              		.size	LCD_Scroll, .-LCD_Scroll
 569 0022 C046     		.section	.text.LCD_SetRGB,"ax",%progbits
 570              		.align	2
 571              		.global	LCD_SetRGB
 572              		.code	16
 573              		.thumb_func
 574              		.type	LCD_SetRGB, %function
 575              	LCD_SetRGB:
 576              	.LFB600:
 255:DRF0554.c     ****  
 256:DRF0554.c     **** // Sets display color if COLOR is White, Red, Green, or Blue, no-op otherwise. 
 257:DRF0554.c     **** // Returns FALSE on error, TRUE otherwise. 
 258:DRF0554.c     **** bool LCD_SetColor(enum color x){
 259:DRF0554.c     ****     // RED = 255,0,0
 260:DRF0554.c     ****     //Green = 0,255,0
 261:DRF0554.c     ****     //Blue = 0,0,255
 262:DRF0554.c     ****         if(x == White){
 263:DRF0554.c     ****           LCD_SetRGB(255,255,255);  
 264:DRF0554.c     ****         }
 265:DRF0554.c     ****         if(x==Red){
 266:DRF0554.c     ****             LCD_SetRGB(255,0,0);  
 267:DRF0554.c     ****         }
 268:DRF0554.c     ****         if(x==Green){
 269:DRF0554.c     ****             LCD_SetRGB(0,255,0);  
 270:DRF0554.c     ****         }
 271:DRF0554.c     ****         if(x==Blue){
 272:DRF0554.c     ****             LCD_SetRGB(0,0,255);  
 273:DRF0554.c     ****         }
 274:DRF0554.c     ****     return true;    
 275:DRF0554.c     **** }
 276:DRF0554.c     ****  
 277:DRF0554.c     **** // Sets display color according to RED, GREEN, BLUE. 
ARM GAS  C:\Users\guill\AppData\Local\Temp\cclz5xua.s 			page 16


 278:DRF0554.c     **** // Example: LCD_SetRGB(0, 255, 255) for cyan. 
 279:DRF0554.c     **** // Returns FALSE on error, TRUE otherwise. 
 280:DRF0554.c     **** bool LCD_SetRGB(uint8_t red, uint8_t green, uint8_t blue){
 577              		.loc 1 280 0
 578              		.cfi_startproc
 579              		@ args = 0, pretend = 0, frame = 0
 580              		@ frame_needed = 0, uses_anonymous_args = 0
 581              	.LVL58:
 582 0000 70B5     		push	{r4, r5, r6, lr}
 583              		.cfi_def_cfa_offset 16
 584              		.cfi_offset 4, -16
 585              		.cfi_offset 5, -12
 586              		.cfi_offset 6, -8
 587              		.cfi_offset 14, -4
 588 0002 0D00     		movs	r5, r1
 589 0004 1400     		movs	r4, r2
 281:DRF0554.c     ****     setReg(REG_RED, red);
 590              		.loc 1 281 0
 591 0006 0100     		movs	r1, r0
 592              	.LVL59:
 593 0008 0420     		movs	r0, #4
 594              	.LVL60:
 595 000a FFF7FEFF 		bl	setReg
 596              	.LVL61:
 282:DRF0554.c     ****     setReg(REG_GREEN, green);
 597              		.loc 1 282 0
 598 000e 2900     		movs	r1, r5
 599 0010 0320     		movs	r0, #3
 600 0012 FFF7FEFF 		bl	setReg
 601              	.LVL62:
 283:DRF0554.c     ****     setReg(REG_BLUE, blue);
 602              		.loc 1 283 0
 603 0016 2100     		movs	r1, r4
 604 0018 0220     		movs	r0, #2
 605 001a FFF7FEFF 		bl	setReg
 606              	.LVL63:
 284:DRF0554.c     ****     return true;
 285:DRF0554.c     **** }
 607              		.loc 1 285 0
 608 001e 0120     		movs	r0, #1
 609              		@ sp needed
 610 0020 70BD     		pop	{r4, r5, r6, pc}
 611              		.cfi_endproc
 612              	.LFE600:
 613              		.size	LCD_SetRGB, .-LCD_SetRGB
 614 0022 C046     		.section	.text.LCD_SetColor,"ax",%progbits
 615              		.align	2
 616              		.global	LCD_SetColor
 617              		.code	16
 618              		.thumb_func
 619              		.type	LCD_SetColor, %function
 620              	LCD_SetColor:
 621              	.LFB599:
 258:DRF0554.c     ****     // RED = 255,0,0
 622              		.loc 1 258 0
 623              		.cfi_startproc
 624              		@ args = 0, pretend = 0, frame = 0
ARM GAS  C:\Users\guill\AppData\Local\Temp\cclz5xua.s 			page 17


 625              		@ frame_needed = 0, uses_anonymous_args = 0
 626              	.LVL64:
 627 0000 10B5     		push	{r4, lr}
 628              		.cfi_def_cfa_offset 8
 629              		.cfi_offset 4, -8
 630              		.cfi_offset 14, -4
 631 0002 041E     		subs	r4, r0, #0
 262:DRF0554.c     ****           LCD_SetRGB(255,255,255);  
 632              		.loc 1 262 0
 633 0004 04D1     		bne	.L37
 263:DRF0554.c     ****         }
 634              		.loc 1 263 0
 635 0006 FF22     		movs	r2, #255
 636 0008 FF21     		movs	r1, #255
 637 000a FF20     		movs	r0, #255
 638              	.LVL65:
 639 000c FFF7FEFF 		bl	LCD_SetRGB
 640              	.LVL66:
 641              	.L37:
 265:DRF0554.c     ****             LCD_SetRGB(255,0,0);  
 642              		.loc 1 265 0
 643 0010 012C     		cmp	r4, #1
 644 0012 04D1     		bne	.L38
 266:DRF0554.c     ****         }
 645              		.loc 1 266 0
 646 0014 0022     		movs	r2, #0
 647 0016 0021     		movs	r1, #0
 648 0018 FF20     		movs	r0, #255
 649 001a FFF7FEFF 		bl	LCD_SetRGB
 650              	.LVL67:
 651              	.L38:
 268:DRF0554.c     ****             LCD_SetRGB(0,255,0);  
 652              		.loc 1 268 0
 653 001e 022C     		cmp	r4, #2
 654 0020 04D1     		bne	.L39
 269:DRF0554.c     ****         }
 655              		.loc 1 269 0
 656 0022 0022     		movs	r2, #0
 657 0024 FF21     		movs	r1, #255
 658 0026 0020     		movs	r0, #0
 659 0028 FFF7FEFF 		bl	LCD_SetRGB
 660              	.LVL68:
 661              	.L39:
 271:DRF0554.c     ****             LCD_SetRGB(0,0,255);  
 662              		.loc 1 271 0
 663 002c 032C     		cmp	r4, #3
 664 002e 04D1     		bne	.L40
 272:DRF0554.c     ****         }
 665              		.loc 1 272 0
 666 0030 FF22     		movs	r2, #255
 667 0032 0021     		movs	r1, #0
 668 0034 0020     		movs	r0, #0
 669 0036 FFF7FEFF 		bl	LCD_SetRGB
 670              	.LVL69:
 671              	.L40:
 275:DRF0554.c     ****  
 672              		.loc 1 275 0
ARM GAS  C:\Users\guill\AppData\Local\Temp\cclz5xua.s 			page 18


 673 003a 0120     		movs	r0, #1
 674              		@ sp needed
 675 003c 10BD     		pop	{r4, pc}
 676              		.cfi_endproc
 677              	.LFE599:
 678              		.size	LCD_SetColor, .-LCD_SetColor
 679 003e C046     		.section	.text.LCD_SetCursor,"ax",%progbits
 680              		.align	2
 681              		.global	LCD_SetCursor
 682              		.code	16
 683              		.thumb_func
 684              		.type	LCD_SetCursor, %function
 685              	LCD_SetCursor:
 686              	.LFB601:
 286:DRF0554.c     ****  
 287:DRF0554.c     **** // Positions the cursor at COL and ROW where 0<=COL<=15 and 0<=ROW<=1 
 288:DRF0554.c     **** // Returns FALSE on error, TRUE otherwise. 
 289:DRF0554.c     **** bool LCD_SetCursor(uint8_t col, uint8_t row){
 687              		.loc 1 289 0
 688              		.cfi_startproc
 689              		@ args = 0, pretend = 0, frame = 8
 690              		@ frame_needed = 0, uses_anonymous_args = 0
 691              	.LVL70:
 692 0000 30B5     		push	{r4, r5, lr}
 693              		.cfi_def_cfa_offset 12
 694              		.cfi_offset 4, -12
 695              		.cfi_offset 5, -8
 696              		.cfi_offset 14, -4
 697 0002 83B0     		sub	sp, sp, #12
 698              		.cfi_def_cfa_offset 24
 290:DRF0554.c     ****     if((col>=0 && col <=15)&&(row>=0&&row<=1)){
 699              		.loc 1 290 0
 700 0004 0F28     		cmp	r0, #15
 701 0006 19D8     		bhi	.L42
 702              		.loc 1 290 0 is_stmt 0 discriminator 1
 703 0008 0129     		cmp	r1, #1
 704 000a 17D8     		bhi	.L42
 705              	.LBB5:
 291:DRF0554.c     ****         col = (row == 0 ? col|0x80 : col|0xc0);
 706              		.loc 1 291 0 is_stmt 1
 707 000c 0029     		cmp	r1, #0
 708 000e 04D1     		bne	.L43
 709              		.loc 1 291 0 is_stmt 0 discriminator 1
 710 0010 8024     		movs	r4, #128
 711 0012 6442     		rsbs	r4, r4, #0
 712 0014 2043     		orrs	r0, r4
 713              	.LVL71:
 714 0016 C4B2     		uxtb	r4, r0
 715 0018 03E0     		b	.L44
 716              	.LVL72:
 717              	.L43:
 718              		.loc 1 291 0 discriminator 2
 719 001a 4024     		movs	r4, #64
 720 001c 6442     		rsbs	r4, r4, #0
 721 001e 2043     		orrs	r0, r4
 722              	.LVL73:
 723 0020 C4B2     		uxtb	r4, r0
ARM GAS  C:\Users\guill\AppData\Local\Temp\cclz5xua.s 			page 19


 724              	.L44:
 725              	.LVL74:
 292:DRF0554.c     ****         uint8_t data[3] = {0x80, col};
 726              		.loc 1 292 0 is_stmt 1 discriminator 4
 727 0022 01AD     		add	r5, sp, #4
 728 0024 0322     		movs	r2, #3
 729 0026 0021     		movs	r1, #0
 730              	.LVL75:
 731 0028 2800     		movs	r0, r5
 732 002a FFF7FEFF 		bl	memset
 733              	.LVL76:
 734 002e 8023     		movs	r3, #128
 735 0030 2B70     		strb	r3, [r5]
 736 0032 6C70     		strb	r4, [r5, #1]
 293:DRF0554.c     ****         send(data, 2);
 737              		.loc 1 293 0 discriminator 4
 738 0034 0221     		movs	r1, #2
 739 0036 2800     		movs	r0, r5
 740 0038 FFF7FEFF 		bl	send
 741              	.LVL77:
 742              	.L42:
 743              	.LBE5:
 294:DRF0554.c     ****     }
 295:DRF0554.c     ****     return false;
 296:DRF0554.c     **** }
 744              		.loc 1 296 0
 745 003c 0020     		movs	r0, #0
 746 003e 03B0     		add	sp, sp, #12
 747              		@ sp needed
 748 0040 30BD     		pop	{r4, r5, pc}
 749              		.cfi_endproc
 750              	.LFE601:
 751              		.size	LCD_SetCursor, .-LCD_SetCursor
 752 0042 C046     		.section	.text.LCD_Clear,"ax",%progbits
 753              		.align	2
 754              		.global	LCD_Clear
 755              		.code	16
 756              		.thumb_func
 757              		.type	LCD_Clear, %function
 758              	LCD_Clear:
 759              	.LFB602:
 297:DRF0554.c     **** 
 298:DRF0554.c     ****  
 299:DRF0554.c     **** // Clears the display. 
 300:DRF0554.c     **** // Returns FALSE on error, TRUE otherwise. 
 301:DRF0554.c     **** bool LCD_Clear(){
 760              		.loc 1 301 0
 761              		.cfi_startproc
 762              		@ args = 0, pretend = 0, frame = 0
 763              		@ frame_needed = 0, uses_anonymous_args = 0
 764 0000 10B5     		push	{r4, lr}
 765              		.cfi_def_cfa_offset 8
 766              		.cfi_offset 4, -8
 767              		.cfi_offset 14, -4
 302:DRF0554.c     ****     command(LCD_CLEARDISPLAY);        // clear display, set cursor position to zero
 768              		.loc 1 302 0
 769 0002 0120     		movs	r0, #1
ARM GAS  C:\Users\guill\AppData\Local\Temp\cclz5xua.s 			page 20


 770 0004 FFF7FEFF 		bl	command
 771              	.LVL78:
 303:DRF0554.c     ****     CyDelay(2);  
 772              		.loc 1 303 0
 773 0008 0220     		movs	r0, #2
 774 000a FFF7FEFF 		bl	Cy_SysLib_Delay
 775              	.LVL79:
 304:DRF0554.c     ****     return false;
 305:DRF0554.c     **** }
 776              		.loc 1 305 0
 777 000e 0020     		movs	r0, #0
 778              		@ sp needed
 779 0010 10BD     		pop	{r4, pc}
 780              		.cfi_endproc
 781              	.LFE602:
 782              		.size	LCD_Clear, .-LCD_Clear
 783 0012 C046     		.section	.text.LCD_Start,"ax",%progbits
 784              		.align	2
 785              		.global	LCD_Start
 786              		.code	16
 787              		.thumb_func
 788              		.type	LCD_Start, %function
 789              	LCD_Start:
 790              	.LFB593:
 123:DRF0554.c     **** 
 791              		.loc 1 123 0
 792              		.cfi_startproc
 793              		@ args = 0, pretend = 0, frame = 0
 794              		@ frame_needed = 0, uses_anonymous_args = 0
 795              	.LVL80:
 796 0000 70B5     		push	{r4, r5, r6, lr}
 797              		.cfi_def_cfa_offset 16
 798              		.cfi_offset 4, -16
 799              		.cfi_offset 5, -12
 800              		.cfi_offset 6, -8
 801              		.cfi_offset 14, -4
 802 0002 0400     		movs	r4, r0
 803 0004 0A00     		movs	r2, r1
 128:DRF0554.c     ****     //sys_status = Cy_SysInt_Init(&I2C_SCB_IRQ_cfg, &I2C_Interrupt);
 804              		.loc 1 128 0
 805 0006 2449     		ldr	r1, .L49
 806              	.LVL81:
 807 0008 FFF7FEFF 		bl	Cy_SCB_I2C_Init
 808              	.LVL82:
 130:DRF0554.c     ****         return false;
 809              		.loc 1 130 0
 810 000c 0028     		cmp	r0, #0
 811 000e 41D1     		bne	.L48
 812              	.LVL83:
 813              	.LBB6:
 814              	.LBB7:
 815              		.file 2 "Generated_Source\\PSoC6\\pdl\\drivers/peripheral/scb/cy_scb_i2c.h"
   1:Generated_Source\PSoC6\pdl\drivers/peripheral/scb/cy_scb_i2c.h **** /***************************************************************************//**
   2:Generated_Source\PSoC6\pdl\drivers/peripheral/scb/cy_scb_i2c.h **** * \file cy_scb_i2c.h
   3:Generated_Source\PSoC6\pdl\drivers/peripheral/scb/cy_scb_i2c.h **** * \version 2.20
   4:Generated_Source\PSoC6\pdl\drivers/peripheral/scb/cy_scb_i2c.h **** *
   5:Generated_Source\PSoC6\pdl\drivers/peripheral/scb/cy_scb_i2c.h **** * Provides I2C API declarations of the SCB driver.
ARM GAS  C:\Users\guill\AppData\Local\Temp\cclz5xua.s 			page 21


   6:Generated_Source\PSoC6\pdl\drivers/peripheral/scb/cy_scb_i2c.h **** *
   7:Generated_Source\PSoC6\pdl\drivers/peripheral/scb/cy_scb_i2c.h **** ********************************************************************************
   8:Generated_Source\PSoC6\pdl\drivers/peripheral/scb/cy_scb_i2c.h **** * \copyright
   9:Generated_Source\PSoC6\pdl\drivers/peripheral/scb/cy_scb_i2c.h **** * Copyright 2016-2018, Cypress Semiconductor Corporation.  All rights reserved.
  10:Generated_Source\PSoC6\pdl\drivers/peripheral/scb/cy_scb_i2c.h **** * You may use this file only in accordance with the license, terms, conditions,
  11:Generated_Source\PSoC6\pdl\drivers/peripheral/scb/cy_scb_i2c.h **** * disclaimers, and limitations in the end user license agreement accompanying
  12:Generated_Source\PSoC6\pdl\drivers/peripheral/scb/cy_scb_i2c.h **** * the software package with which this file was provided.
  13:Generated_Source\PSoC6\pdl\drivers/peripheral/scb/cy_scb_i2c.h **** *******************************************************************************/
  14:Generated_Source\PSoC6\pdl\drivers/peripheral/scb/cy_scb_i2c.h **** 
  15:Generated_Source\PSoC6\pdl\drivers/peripheral/scb/cy_scb_i2c.h **** /**
  16:Generated_Source\PSoC6\pdl\drivers/peripheral/scb/cy_scb_i2c.h **** * \addtogroup group_scb_i2c
  17:Generated_Source\PSoC6\pdl\drivers/peripheral/scb/cy_scb_i2c.h **** * \{
  18:Generated_Source\PSoC6\pdl\drivers/peripheral/scb/cy_scb_i2c.h **** * Driver API for I2C Bus Peripheral
  19:Generated_Source\PSoC6\pdl\drivers/peripheral/scb/cy_scb_i2c.h **** *
  20:Generated_Source\PSoC6\pdl\drivers/peripheral/scb/cy_scb_i2c.h **** * I2C - The Inter-Integrated Circuit (I2C) bus is an industry-standard.
  21:Generated_Source\PSoC6\pdl\drivers/peripheral/scb/cy_scb_i2c.h **** *
  22:Generated_Source\PSoC6\pdl\drivers/peripheral/scb/cy_scb_i2c.h **** * The functions and other declarations used in this part of the driver are in 
  23:Generated_Source\PSoC6\pdl\drivers/peripheral/scb/cy_scb_i2c.h **** * cy_scb_i2c.h. You can also include cy_pdl.h (ModusToolbox only) to get access 
  24:Generated_Source\PSoC6\pdl\drivers/peripheral/scb/cy_scb_i2c.h **** * to all functions and declarations in the PDL.
  25:Generated_Source\PSoC6\pdl\drivers/peripheral/scb/cy_scb_i2c.h **** *
  26:Generated_Source\PSoC6\pdl\drivers/peripheral/scb/cy_scb_i2c.h **** * The I2C peripheral driver provides an API to implement I2C slave, master,
  27:Generated_Source\PSoC6\pdl\drivers/peripheral/scb/cy_scb_i2c.h **** * or master-slave devices based on the SCB hardware block.
  28:Generated_Source\PSoC6\pdl\drivers/peripheral/scb/cy_scb_i2c.h **** * I2C devices based on SCB hardware are compatible with I2C
  29:Generated_Source\PSoC6\pdl\drivers/peripheral/scb/cy_scb_i2c.h **** * Standard-mode, Fast-mode, and Fast-mode Plus specifications as defined in
  30:Generated_Source\PSoC6\pdl\drivers/peripheral/scb/cy_scb_i2c.h **** * the I2C-bus specification.
  31:Generated_Source\PSoC6\pdl\drivers/peripheral/scb/cy_scb_i2c.h **** *
  32:Generated_Source\PSoC6\pdl\drivers/peripheral/scb/cy_scb_i2c.h **** * Features:
  33:Generated_Source\PSoC6\pdl\drivers/peripheral/scb/cy_scb_i2c.h **** * * An industry-standard I2C bus interface
  34:Generated_Source\PSoC6\pdl\drivers/peripheral/scb/cy_scb_i2c.h **** * * Supports slave, master, and master-slave operation
  35:Generated_Source\PSoC6\pdl\drivers/peripheral/scb/cy_scb_i2c.h **** * * Supports standard data rates of 100/400/1000 kbps
  36:Generated_Source\PSoC6\pdl\drivers/peripheral/scb/cy_scb_i2c.h **** * * Hardware Address Match, multiple addresses
  37:Generated_Source\PSoC6\pdl\drivers/peripheral/scb/cy_scb_i2c.h **** * * Wake from Deep Sleep on Address Match
  38:Generated_Source\PSoC6\pdl\drivers/peripheral/scb/cy_scb_i2c.h **** *
  39:Generated_Source\PSoC6\pdl\drivers/peripheral/scb/cy_scb_i2c.h **** ********************************************************************************
  40:Generated_Source\PSoC6\pdl\drivers/peripheral/scb/cy_scb_i2c.h **** * \section group_scb_i2c_configuration Configuration Considerations
  41:Generated_Source\PSoC6\pdl\drivers/peripheral/scb/cy_scb_i2c.h **** ********************************************************************************
  42:Generated_Source\PSoC6\pdl\drivers/peripheral/scb/cy_scb_i2c.h **** * The I2C driver configuration can be divided to number of sequential
  43:Generated_Source\PSoC6\pdl\drivers/peripheral/scb/cy_scb_i2c.h **** * steps listed below:
  44:Generated_Source\PSoC6\pdl\drivers/peripheral/scb/cy_scb_i2c.h **** * * \ref group_scb_i2c_config
  45:Generated_Source\PSoC6\pdl\drivers/peripheral/scb/cy_scb_i2c.h **** * * \ref group_scb_i2c_pins
  46:Generated_Source\PSoC6\pdl\drivers/peripheral/scb/cy_scb_i2c.h **** * * \ref group_scb_i2c_clock
  47:Generated_Source\PSoC6\pdl\drivers/peripheral/scb/cy_scb_i2c.h **** * * \ref group_scb_i2c_data_rate
  48:Generated_Source\PSoC6\pdl\drivers/peripheral/scb/cy_scb_i2c.h **** * * \ref group_scb_i2c_intr
  49:Generated_Source\PSoC6\pdl\drivers/peripheral/scb/cy_scb_i2c.h **** * * \ref group_scb_i2c_enable
  50:Generated_Source\PSoC6\pdl\drivers/peripheral/scb/cy_scb_i2c.h **** *
  51:Generated_Source\PSoC6\pdl\drivers/peripheral/scb/cy_scb_i2c.h **** * \note
  52:Generated_Source\PSoC6\pdl\drivers/peripheral/scb/cy_scb_i2c.h **** * I2C driver is built on top of the SCB hardware block. The SCB3 instance is
  53:Generated_Source\PSoC6\pdl\drivers/peripheral/scb/cy_scb_i2c.h **** * used as an example for all code snippets. Modify the code to match your
  54:Generated_Source\PSoC6\pdl\drivers/peripheral/scb/cy_scb_i2c.h **** * design.
  55:Generated_Source\PSoC6\pdl\drivers/peripheral/scb/cy_scb_i2c.h **** *
  56:Generated_Source\PSoC6\pdl\drivers/peripheral/scb/cy_scb_i2c.h **** ********************************************************************************
  57:Generated_Source\PSoC6\pdl\drivers/peripheral/scb/cy_scb_i2c.h **** * \subsection group_scb_i2c_config Configure I2C
  58:Generated_Source\PSoC6\pdl\drivers/peripheral/scb/cy_scb_i2c.h **** ********************************************************************************
  59:Generated_Source\PSoC6\pdl\drivers/peripheral/scb/cy_scb_i2c.h **** * To set up the I2C  driver, provide the configuration parameters in the
  60:Generated_Source\PSoC6\pdl\drivers/peripheral/scb/cy_scb_i2c.h **** * \ref cy_stc_scb_i2c_config_t structure. Provide i2cMode to the select
  61:Generated_Source\PSoC6\pdl\drivers/peripheral/scb/cy_scb_i2c.h **** * operation mode slave, master or master-slave. The useRxFifo and useTxFifo 
  62:Generated_Source\PSoC6\pdl\drivers/peripheral/scb/cy_scb_i2c.h **** * parameters specify if RX and TX FIFO is used during operation. Typically, both
ARM GAS  C:\Users\guill\AppData\Local\Temp\cclz5xua.s 			page 22


  63:Generated_Source\PSoC6\pdl\drivers/peripheral/scb/cy_scb_i2c.h **** * FIFOs should be enabled to reduce possibility of clock stringing. However, 
  64:Generated_Source\PSoC6\pdl\drivers/peripheral/scb/cy_scb_i2c.h **** * using RX FIFO has side effects that needs to be taken into account 
  65:Generated_Source\PSoC6\pdl\drivers/peripheral/scb/cy_scb_i2c.h **** * (see useRxFifo field description in \ref cy_stc_scb_i2c_config_t structure). 
  66:Generated_Source\PSoC6\pdl\drivers/peripheral/scb/cy_scb_i2c.h **** * For master modes, parameters lowPhaseDutyCycle, highPhaseDutyCycle and 
  67:Generated_Source\PSoC6\pdl\drivers/peripheral/scb/cy_scb_i2c.h **** * enableDigitalFilter can be used to define output data rate (refer to section 
  68:Generated_Source\PSoC6\pdl\drivers/peripheral/scb/cy_scb_i2c.h **** * \ref group_scb_i2c_data_rate for more information).
  69:Generated_Source\PSoC6\pdl\drivers/peripheral/scb/cy_scb_i2c.h **** * For slave mode, provide the slaveAddress and slaveAddressMask. The other 
  70:Generated_Source\PSoC6\pdl\drivers/peripheral/scb/cy_scb_i2c.h **** * parameters are optional for operation.\n
  71:Generated_Source\PSoC6\pdl\drivers/peripheral/scb/cy_scb_i2c.h **** * To initialize the driver, call \ref Cy_SCB_I2C_Init
  72:Generated_Source\PSoC6\pdl\drivers/peripheral/scb/cy_scb_i2c.h **** * function providing a pointer to the populated \ref cy_stc_scb_i2c_config_t
  73:Generated_Source\PSoC6\pdl\drivers/peripheral/scb/cy_scb_i2c.h **** * structure and the allocated \ref cy_stc_scb_i2c_context_t structure.
  74:Generated_Source\PSoC6\pdl\drivers/peripheral/scb/cy_scb_i2c.h **** *
  75:Generated_Source\PSoC6\pdl\drivers/peripheral/scb/cy_scb_i2c.h **** * \snippet SCB_CompDatasheet_sut_01_revA.cydsn\i2c_snippets.c I2C_CFG
  76:Generated_Source\PSoC6\pdl\drivers/peripheral/scb/cy_scb_i2c.h **** *
  77:Generated_Source\PSoC6\pdl\drivers/peripheral/scb/cy_scb_i2c.h **** * Set up I2C slave read and write buffer before enabling its
  78:Generated_Source\PSoC6\pdl\drivers/peripheral/scb/cy_scb_i2c.h **** * operation using \ref Cy_SCB_I2C_SlaveConfigReadBuf and \ref
  79:Generated_Source\PSoC6\pdl\drivers/peripheral/scb/cy_scb_i2c.h **** * Cy_SCB_I2C_SlaveConfigWriteBuf appropriately. Note that the master reads
  80:Generated_Source\PSoC6\pdl\drivers/peripheral/scb/cy_scb_i2c.h **** * data from the slave read buffer and writes data into the slave write buffer.
  81:Generated_Source\PSoC6\pdl\drivers/peripheral/scb/cy_scb_i2c.h **** *
  82:Generated_Source\PSoC6\pdl\drivers/peripheral/scb/cy_scb_i2c.h **** * \snippet SCB_CompDatasheet_sut_01_revA.cydsn\i2c_snippets.c I2C_CFG_BUFFER
  83:Generated_Source\PSoC6\pdl\drivers/peripheral/scb/cy_scb_i2c.h **** *
  84:Generated_Source\PSoC6\pdl\drivers/peripheral/scb/cy_scb_i2c.h **** ********************************************************************************
  85:Generated_Source\PSoC6\pdl\drivers/peripheral/scb/cy_scb_i2c.h **** * \subsection group_scb_i2c_pins Assign and Configure Pins
  86:Generated_Source\PSoC6\pdl\drivers/peripheral/scb/cy_scb_i2c.h **** ********************************************************************************
  87:Generated_Source\PSoC6\pdl\drivers/peripheral/scb/cy_scb_i2c.h **** * Only dedicated SCB pins can be used for I2C operation. The HSIOM
  88:Generated_Source\PSoC6\pdl\drivers/peripheral/scb/cy_scb_i2c.h **** * register must be configured to connect dedicated SCB I2C pins to the 
  89:Generated_Source\PSoC6\pdl\drivers/peripheral/scb/cy_scb_i2c.h **** * SCB block. Also the I2C pins must be configured in Open-Drain, Drives Low mode 
  90:Generated_Source\PSoC6\pdl\drivers/peripheral/scb/cy_scb_i2c.h **** * (this pins  configuration implies usage of external pull-up resistors):
  91:Generated_Source\PSoC6\pdl\drivers/peripheral/scb/cy_scb_i2c.h **** *
  92:Generated_Source\PSoC6\pdl\drivers/peripheral/scb/cy_scb_i2c.h **** * \snippet SCB_CompDatasheet_sut_01_revA.cydsn\i2c_snippets.c I2C_CFG_PINS
  93:Generated_Source\PSoC6\pdl\drivers/peripheral/scb/cy_scb_i2c.h **** *
  94:Generated_Source\PSoC6\pdl\drivers/peripheral/scb/cy_scb_i2c.h **** * \note
  95:Generated_Source\PSoC6\pdl\drivers/peripheral/scb/cy_scb_i2c.h **** * The alternative pins configuration is Resistive Pull-ups which implies usage
  96:Generated_Source\PSoC6\pdl\drivers/peripheral/scb/cy_scb_i2c.h **** * internal pull-up resistors. This configuration is not recommended because
  97:Generated_Source\PSoC6\pdl\drivers/peripheral/scb/cy_scb_i2c.h **** * resistor value is fixed and cannot be used for all supported data rates.
  98:Generated_Source\PSoC6\pdl\drivers/peripheral/scb/cy_scb_i2c.h **** * Refer to the device datasheet parameter RPULLUP for resistor value specifications.
  99:Generated_Source\PSoC6\pdl\drivers/peripheral/scb/cy_scb_i2c.h **** *
 100:Generated_Source\PSoC6\pdl\drivers/peripheral/scb/cy_scb_i2c.h **** ********************************************************************************
 101:Generated_Source\PSoC6\pdl\drivers/peripheral/scb/cy_scb_i2c.h **** * \subsection group_scb_i2c_clock Assign Clock Divider
 102:Generated_Source\PSoC6\pdl\drivers/peripheral/scb/cy_scb_i2c.h **** ********************************************************************************
 103:Generated_Source\PSoC6\pdl\drivers/peripheral/scb/cy_scb_i2c.h **** * A clock source must be connected to the SCB block to oversample input and
 104:Generated_Source\PSoC6\pdl\drivers/peripheral/scb/cy_scb_i2c.h **** * output signals, in this document this clock will be referred as clk_scb.
 105:Generated_Source\PSoC6\pdl\drivers/peripheral/scb/cy_scb_i2c.h **** * You must use one of the 8-bit or 16-bit dividers. Use the \ref group_sysclk 
 106:Generated_Source\PSoC6\pdl\drivers/peripheral/scb/cy_scb_i2c.h **** * driver API to do this.
 107:Generated_Source\PSoC6\pdl\drivers/peripheral/scb/cy_scb_i2c.h **** *
 108:Generated_Source\PSoC6\pdl\drivers/peripheral/scb/cy_scb_i2c.h **** * \snippet SCB_CompDatasheet_sut_01_revA.cydsn\i2c_snippets.c I2C_CFG_ASSIGN_CLOCK
 109:Generated_Source\PSoC6\pdl\drivers/peripheral/scb/cy_scb_i2c.h **** *
 110:Generated_Source\PSoC6\pdl\drivers/peripheral/scb/cy_scb_i2c.h **** ********************************************************************************
 111:Generated_Source\PSoC6\pdl\drivers/peripheral/scb/cy_scb_i2c.h **** * \subsection group_scb_i2c_data_rate Configure Data Rate
 112:Generated_Source\PSoC6\pdl\drivers/peripheral/scb/cy_scb_i2c.h **** ********************************************************************************
 113:Generated_Source\PSoC6\pdl\drivers/peripheral/scb/cy_scb_i2c.h **** * To get I2C slave operation with the desired data rate, the clk_scb must be
 114:Generated_Source\PSoC6\pdl\drivers/peripheral/scb/cy_scb_i2c.h **** * fast enough to provide sufficient oversampling. Use the
 115:Generated_Source\PSoC6\pdl\drivers/peripheral/scb/cy_scb_i2c.h **** * \ref group_sysclk driver API to do this.
 116:Generated_Source\PSoC6\pdl\drivers/peripheral/scb/cy_scb_i2c.h **** *
 117:Generated_Source\PSoC6\pdl\drivers/peripheral/scb/cy_scb_i2c.h **** * \snippet SCB_CompDatasheet_sut_01_revA.cydsn\i2c_snippets.c I2C_CFG_DATA_RATE_SLAVE
 118:Generated_Source\PSoC6\pdl\drivers/peripheral/scb/cy_scb_i2c.h **** *
 119:Generated_Source\PSoC6\pdl\drivers/peripheral/scb/cy_scb_i2c.h **** * To get I2C master operation with the desired data rate, the source clock
ARM GAS  C:\Users\guill\AppData\Local\Temp\cclz5xua.s 			page 23


 120:Generated_Source\PSoC6\pdl\drivers/peripheral/scb/cy_scb_i2c.h **** * frequency and SCL low and high phase duration must be configured. Use the
 121:Generated_Source\PSoC6\pdl\drivers/peripheral/scb/cy_scb_i2c.h **** * \ref group_sysclk driver API to configure source clock frequency. Then call
 122:Generated_Source\PSoC6\pdl\drivers/peripheral/scb/cy_scb_i2c.h **** * \ref Cy_SCB_I2C_SetDataRate to set the SCL low, high phase duration and 
 123:Generated_Source\PSoC6\pdl\drivers/peripheral/scb/cy_scb_i2c.h **** * digital filter. This function sets SCL low and high phase settings based on 
 124:Generated_Source\PSoC6\pdl\drivers/peripheral/scb/cy_scb_i2c.h **** * source clock frequency.
 125:Generated_Source\PSoC6\pdl\drivers/peripheral/scb/cy_scb_i2c.h **** *
 126:Generated_Source\PSoC6\pdl\drivers/peripheral/scb/cy_scb_i2c.h **** * \snippet SCB_CompDatasheet_sut_01_revA.cydsn\i2c_snippets.c I2C_CFG_DATA_RATE_MASTER
 127:Generated_Source\PSoC6\pdl\drivers/peripheral/scb/cy_scb_i2c.h **** *
 128:Generated_Source\PSoC6\pdl\drivers/peripheral/scb/cy_scb_i2c.h **** * Alternatively, the low, high phase and digital filter can be set directly 
 129:Generated_Source\PSoC6\pdl\drivers/peripheral/scb/cy_scb_i2c.h **** * using configuration structure \ref cy_stc_scb_i2c_config_t fields 
 130:Generated_Source\PSoC6\pdl\drivers/peripheral/scb/cy_scb_i2c.h **** * lowPhaseDutyCycle, highPhaseDutyCycle and enableDigitalFilter appropriately.\n
 131:Generated_Source\PSoC6\pdl\drivers/peripheral/scb/cy_scb_i2c.h **** * <b>Refer to the technical reference manual (TRM) section I2C sub-section
 132:Generated_Source\PSoC6\pdl\drivers/peripheral/scb/cy_scb_i2c.h **** * Oversampling and Bit Rate to get information how to configure I2C to run with
 133:Generated_Source\PSoC6\pdl\drivers/peripheral/scb/cy_scb_i2c.h **** * the desired data rate.</b>
 134:Generated_Source\PSoC6\pdl\drivers/peripheral/scb/cy_scb_i2c.h **** *
 135:Generated_Source\PSoC6\pdl\drivers/peripheral/scb/cy_scb_i2c.h **** * \note
 136:Generated_Source\PSoC6\pdl\drivers/peripheral/scb/cy_scb_i2c.h **** * For I2C slave, the analog filter is used for all supported data rates. \n
 137:Generated_Source\PSoC6\pdl\drivers/peripheral/scb/cy_scb_i2c.h **** * For I2C master, the analog filter is used for Standard and Fast modes and the
 138:Generated_Source\PSoC6\pdl\drivers/peripheral/scb/cy_scb_i2c.h **** * digital filter for Fast Plus mode.
 139:Generated_Source\PSoC6\pdl\drivers/peripheral/scb/cy_scb_i2c.h **** *
 140:Generated_Source\PSoC6\pdl\drivers/peripheral/scb/cy_scb_i2c.h **** ********************************************************************************
 141:Generated_Source\PSoC6\pdl\drivers/peripheral/scb/cy_scb_i2c.h **** * \subsection group_scb_i2c_intr Configure Interrupt
 142:Generated_Source\PSoC6\pdl\drivers/peripheral/scb/cy_scb_i2c.h **** ********************************************************************************
 143:Generated_Source\PSoC6\pdl\drivers/peripheral/scb/cy_scb_i2c.h **** * The interrupt is mandatory for I2C operation. The exception is the when only  
 144:Generated_Source\PSoC6\pdl\drivers/peripheral/scb/cy_scb_i2c.h **** * the \ref group_scb_i2c_master_low_level_functions functions are used.
 145:Generated_Source\PSoC6\pdl\drivers/peripheral/scb/cy_scb_i2c.h **** * The driver provides three interrupt functions: \ref Cy_SCB_I2C_Interrupt,
 146:Generated_Source\PSoC6\pdl\drivers/peripheral/scb/cy_scb_i2c.h **** * \ref Cy_SCB_I2C_SlaveInterrupt, and \ref Cy_SCB_I2C_MasterInterrupt. One of
 147:Generated_Source\PSoC6\pdl\drivers/peripheral/scb/cy_scb_i2c.h **** * these functions must be called in the interrupt handler for the selected SCB
 148:Generated_Source\PSoC6\pdl\drivers/peripheral/scb/cy_scb_i2c.h **** * instance. Call \ref Cy_SCB_I2C_SlaveInterrupt when I2C is configured to
 149:Generated_Source\PSoC6\pdl\drivers/peripheral/scb/cy_scb_i2c.h **** * operate as a slave, \ref Cy_SCB_I2C_MasterInterrupt when I2C is configured
 150:Generated_Source\PSoC6\pdl\drivers/peripheral/scb/cy_scb_i2c.h **** * to operate as a master and \ref Cy_SCB_I2C_Interrupt when I2C is configured
 151:Generated_Source\PSoC6\pdl\drivers/peripheral/scb/cy_scb_i2c.h **** * to operate as master and slave. Using the slave- or master-specific interrupt
 152:Generated_Source\PSoC6\pdl\drivers/peripheral/scb/cy_scb_i2c.h **** * function allows reducing the flash consumed by the I2C driver. Also this
 153:Generated_Source\PSoC6\pdl\drivers/peripheral/scb/cy_scb_i2c.h **** * interrupt must be enabled in the NVIC otherwise it will not work.
 154:Generated_Source\PSoC6\pdl\drivers/peripheral/scb/cy_scb_i2c.h **** * \note
 155:Generated_Source\PSoC6\pdl\drivers/peripheral/scb/cy_scb_i2c.h **** * The I2C driver documentation refers to the \ref Cy_SCB_I2C_Interrupt function
 156:Generated_Source\PSoC6\pdl\drivers/peripheral/scb/cy_scb_i2c.h **** * when interrupt processing is mandatory for the operation. This is done to
 157:Generated_Source\PSoC6\pdl\drivers/peripheral/scb/cy_scb_i2c.h **** * simplify the readability of the driver's documentation. The application should
 158:Generated_Source\PSoC6\pdl\drivers/peripheral/scb/cy_scb_i2c.h **** *  call the slave- or master-specific interrupt functions \ref Cy_SCB_I2C_SlaveInterrupt
 159:Generated_Source\PSoC6\pdl\drivers/peripheral/scb/cy_scb_i2c.h **** * or \ref Cy_SCB_I2C_MasterInterrupt, when appropriate.
 160:Generated_Source\PSoC6\pdl\drivers/peripheral/scb/cy_scb_i2c.h **** *
 161:Generated_Source\PSoC6\pdl\drivers/peripheral/scb/cy_scb_i2c.h **** * \snippet SCB_CompDatasheet_sut_01_revA.cydsn\i2c_snippets.c I2C_INTR_A
 162:Generated_Source\PSoC6\pdl\drivers/peripheral/scb/cy_scb_i2c.h **** * \snippet SCB_CompDatasheet_sut_01_revA.cydsn\i2c_snippets.c I2C_INTR_B
 163:Generated_Source\PSoC6\pdl\drivers/peripheral/scb/cy_scb_i2c.h **** *
 164:Generated_Source\PSoC6\pdl\drivers/peripheral/scb/cy_scb_i2c.h **** ********************************************************************************
 165:Generated_Source\PSoC6\pdl\drivers/peripheral/scb/cy_scb_i2c.h **** * \subsection group_scb_i2c_enable Enable I2C
 166:Generated_Source\PSoC6\pdl\drivers/peripheral/scb/cy_scb_i2c.h **** ********************************************************************************
 167:Generated_Source\PSoC6\pdl\drivers/peripheral/scb/cy_scb_i2c.h **** * Finally, enable the I2C operation by calling \ref Cy_SCB_I2C_Enable. Then I2C
 168:Generated_Source\PSoC6\pdl\drivers/peripheral/scb/cy_scb_i2c.h **** * slave starts respond to the assigned address and I2C master ready to execute
 169:Generated_Source\PSoC6\pdl\drivers/peripheral/scb/cy_scb_i2c.h **** * transfers.
 170:Generated_Source\PSoC6\pdl\drivers/peripheral/scb/cy_scb_i2c.h **** *
 171:Generated_Source\PSoC6\pdl\drivers/peripheral/scb/cy_scb_i2c.h **** * \snippet SCB_CompDatasheet_sut_01_revA.cydsn\i2c_snippets.c I2C_ENABLE
 172:Generated_Source\PSoC6\pdl\drivers/peripheral/scb/cy_scb_i2c.h **** *
 173:Generated_Source\PSoC6\pdl\drivers/peripheral/scb/cy_scb_i2c.h **** * \section group_scb_i2c_use_cases Common Use Cases
 174:Generated_Source\PSoC6\pdl\drivers/peripheral/scb/cy_scb_i2c.h **** *
 175:Generated_Source\PSoC6\pdl\drivers/peripheral/scb/cy_scb_i2c.h **** ********************************************************************************
 176:Generated_Source\PSoC6\pdl\drivers/peripheral/scb/cy_scb_i2c.h **** * \subsection group_scb_i2c_master_mode Master Operation
ARM GAS  C:\Users\guill\AppData\Local\Temp\cclz5xua.s 			page 24


 177:Generated_Source\PSoC6\pdl\drivers/peripheral/scb/cy_scb_i2c.h **** ********************************************************************************
 178:Generated_Source\PSoC6\pdl\drivers/peripheral/scb/cy_scb_i2c.h **** * The master API is divided into two categories:
 179:Generated_Source\PSoC6\pdl\drivers/peripheral/scb/cy_scb_i2c.h **** * \ref group_scb_i2c_master_high_level_functions and
 180:Generated_Source\PSoC6\pdl\drivers/peripheral/scb/cy_scb_i2c.h **** * \ref group_scb_i2c_master_low_level_functions. Therefore, there are two
 181:Generated_Source\PSoC6\pdl\drivers/peripheral/scb/cy_scb_i2c.h **** * methods for initiating I2C master transactions using either <b>Low-Level or
 182:Generated_Source\PSoC6\pdl\drivers/peripheral/scb/cy_scb_i2c.h **** * High-Level</b> API. These two methods are described below. Only one method
 183:Generated_Source\PSoC6\pdl\drivers/peripheral/scb/cy_scb_i2c.h **** * should be used at a time. <b>They should not be mixed.</b>
 184:Generated_Source\PSoC6\pdl\drivers/peripheral/scb/cy_scb_i2c.h **** *
 185:Generated_Source\PSoC6\pdl\drivers/peripheral/scb/cy_scb_i2c.h **** ********************************************************************************
 186:Generated_Source\PSoC6\pdl\drivers/peripheral/scb/cy_scb_i2c.h **** * \subsubsection  group_scb_i2c_master_hl Use High-Level Functions
 187:Generated_Source\PSoC6\pdl\drivers/peripheral/scb/cy_scb_i2c.h **** ********************************************************************************
 188:Generated_Source\PSoC6\pdl\drivers/peripheral/scb/cy_scb_i2c.h **** *  Call \ref Cy_SCB_I2C_MasterRead or \ref Cy_SCB_I2C_MasterWrite to
 189:Generated_Source\PSoC6\pdl\drivers/peripheral/scb/cy_scb_i2c.h **** * communicate with the slave. These functions do not block and only start a
 190:Generated_Source\PSoC6\pdl\drivers/peripheral/scb/cy_scb_i2c.h **** * transaction. After a transaction starts, the \ref Cy_SCB_I2C_Interrupt
 191:Generated_Source\PSoC6\pdl\drivers/peripheral/scb/cy_scb_i2c.h **** * handles further data transaction until its completion (successfully or 
 192:Generated_Source\PSoC6\pdl\drivers/peripheral/scb/cy_scb_i2c.h **** * with error occurring). To monitor the transaction,
 193:Generated_Source\PSoC6\pdl\drivers/peripheral/scb/cy_scb_i2c.h **** * use \ref Cy_SCB_I2C_MasterGetStatus or register callback function using
 194:Generated_Source\PSoC6\pdl\drivers/peripheral/scb/cy_scb_i2c.h **** * \ref Cy_SCB_I2C_RegisterEventCallback to be notified about
 195:Generated_Source\PSoC6\pdl\drivers/peripheral/scb/cy_scb_i2c.h **** * \ref group_scb_i2c_macros_callback_events.
 196:Generated_Source\PSoC6\pdl\drivers/peripheral/scb/cy_scb_i2c.h **** *
 197:Generated_Source\PSoC6\pdl\drivers/peripheral/scb/cy_scb_i2c.h **** * \snippet SCB_CompDatasheet_sut_01_revA.cydsn\i2c_snippets.c I2C_MASTER_WRITE_READ_INT
 198:Generated_Source\PSoC6\pdl\drivers/peripheral/scb/cy_scb_i2c.h **** *
 199:Generated_Source\PSoC6\pdl\drivers/peripheral/scb/cy_scb_i2c.h **** ********************************************************************************
 200:Generated_Source\PSoC6\pdl\drivers/peripheral/scb/cy_scb_i2c.h **** * \subsubsection group_scb_i2c_master_ll Use Low-Level Functions
 201:Generated_Source\PSoC6\pdl\drivers/peripheral/scb/cy_scb_i2c.h **** ********************************************************************************
 202:Generated_Source\PSoC6\pdl\drivers/peripheral/scb/cy_scb_i2c.h **** * Call \ref Cy_SCB_I2C_MasterSendStart to generate a start, send an address
 203:Generated_Source\PSoC6\pdl\drivers/peripheral/scb/cy_scb_i2c.h **** * with the Read/Write direction bit, and receive acknowledgment. After the
 204:Generated_Source\PSoC6\pdl\drivers/peripheral/scb/cy_scb_i2c.h **** * address is ACKed by the slave, the transaction can be continued by calling
 205:Generated_Source\PSoC6\pdl\drivers/peripheral/scb/cy_scb_i2c.h **** * \ref Cy_SCB_I2C_MasterReadByte or \ref Cy_SCB_I2C_MasterWriteByte depending
 206:Generated_Source\PSoC6\pdl\drivers/peripheral/scb/cy_scb_i2c.h **** * on its direction. These functions handle one byte per call. Therefore,
 207:Generated_Source\PSoC6\pdl\drivers/peripheral/scb/cy_scb_i2c.h **** * they should be called for each byte in the transaction. Note that for the
 208:Generated_Source\PSoC6\pdl\drivers/peripheral/scb/cy_scb_i2c.h **** * Read transaction, the last byte must be NAKed. To complete the current
 209:Generated_Source\PSoC6\pdl\drivers/peripheral/scb/cy_scb_i2c.h **** * transaction, call \ref Cy_SCB_I2C_MasterSendStop or call
 210:Generated_Source\PSoC6\pdl\drivers/peripheral/scb/cy_scb_i2c.h **** * \ref Cy_SCB_I2C_MasterSendReStart to complete the current transaction and
 211:Generated_Source\PSoC6\pdl\drivers/peripheral/scb/cy_scb_i2c.h **** * start a new one. Typically, do a restart to change the transaction
 212:Generated_Source\PSoC6\pdl\drivers/peripheral/scb/cy_scb_i2c.h **** * direction without releasing the bus from the master control.
 213:Generated_Source\PSoC6\pdl\drivers/peripheral/scb/cy_scb_i2c.h **** * The Low-Level functions are blocking and do not require calling
 214:Generated_Source\PSoC6\pdl\drivers/peripheral/scb/cy_scb_i2c.h **** * \ref Cy_SCB_I2C_Interrupt inside the interrupt handler. Using these
 215:Generated_Source\PSoC6\pdl\drivers/peripheral/scb/cy_scb_i2c.h **** * functions requires extensive knowledge of the I2C protocol to execute
 216:Generated_Source\PSoC6\pdl\drivers/peripheral/scb/cy_scb_i2c.h **** * transactions correctly.
 217:Generated_Source\PSoC6\pdl\drivers/peripheral/scb/cy_scb_i2c.h **** *
 218:Generated_Source\PSoC6\pdl\drivers/peripheral/scb/cy_scb_i2c.h **** * <b>Master Write Operation</b>
 219:Generated_Source\PSoC6\pdl\drivers/peripheral/scb/cy_scb_i2c.h **** * \snippet SCB_CompDatasheet_sut_01_revA.cydsn\i2c_snippets.c I2C_MASTER_WRITE_MANUAL
 220:Generated_Source\PSoC6\pdl\drivers/peripheral/scb/cy_scb_i2c.h **** *
 221:Generated_Source\PSoC6\pdl\drivers/peripheral/scb/cy_scb_i2c.h **** * <b>Master Read Operation</b>
 222:Generated_Source\PSoC6\pdl\drivers/peripheral/scb/cy_scb_i2c.h **** * \snippet SCB_CompDatasheet_sut_01_revA.cydsn\i2c_snippets.c I2C_MASTER_READ_MANUAL
 223:Generated_Source\PSoC6\pdl\drivers/peripheral/scb/cy_scb_i2c.h **** *
 224:Generated_Source\PSoC6\pdl\drivers/peripheral/scb/cy_scb_i2c.h **** ********************************************************************************
 225:Generated_Source\PSoC6\pdl\drivers/peripheral/scb/cy_scb_i2c.h **** * \subsection group_scb_i2c_slave Slave Operation
 226:Generated_Source\PSoC6\pdl\drivers/peripheral/scb/cy_scb_i2c.h **** ********************************************************************************
 227:Generated_Source\PSoC6\pdl\drivers/peripheral/scb/cy_scb_i2c.h **** * Slave operation requires the \ref Cy_SCB_I2C_Interrupt be
 228:Generated_Source\PSoC6\pdl\drivers/peripheral/scb/cy_scb_i2c.h **** * called inside the interrupt handler. The read and write buffers must
 229:Generated_Source\PSoC6\pdl\drivers/peripheral/scb/cy_scb_i2c.h **** * be provided for the slave to enable communication with the master. Use
 230:Generated_Source\PSoC6\pdl\drivers/peripheral/scb/cy_scb_i2c.h **** * \ref Cy_SCB_I2C_SlaveConfigReadBuf and \ref Cy_SCB_I2C_SlaveConfigWriteBuf
 231:Generated_Source\PSoC6\pdl\drivers/peripheral/scb/cy_scb_i2c.h **** * for this purpose. Note that after transaction completion the buffer must be
 232:Generated_Source\PSoC6\pdl\drivers/peripheral/scb/cy_scb_i2c.h **** * configured again. Otherwise, the same buffer is used starting from the point
 233:Generated_Source\PSoC6\pdl\drivers/peripheral/scb/cy_scb_i2c.h **** * where the master stopped a previous transaction.
ARM GAS  C:\Users\guill\AppData\Local\Temp\cclz5xua.s 			page 25


 234:Generated_Source\PSoC6\pdl\drivers/peripheral/scb/cy_scb_i2c.h **** * For example: The read buffer is configured to be 10 bytes and the master reads
 235:Generated_Source\PSoC6\pdl\drivers/peripheral/scb/cy_scb_i2c.h **** * 8 bytes. If the read buffer is not configured again, the next master read
 236:Generated_Source\PSoC6\pdl\drivers/peripheral/scb/cy_scb_i2c.h **** * will start from the 9th byte.
 237:Generated_Source\PSoC6\pdl\drivers/peripheral/scb/cy_scb_i2c.h **** * To monitor the transaction status, use \ref Cy_SCB_I2C_SlaveGetStatus or
 238:Generated_Source\PSoC6\pdl\drivers/peripheral/scb/cy_scb_i2c.h **** * use \ref Cy_SCB_I2C_RegisterEventCallback to register a callback function
 239:Generated_Source\PSoC6\pdl\drivers/peripheral/scb/cy_scb_i2c.h **** * to be notified about \ref group_scb_i2c_macros_callback_events.
 240:Generated_Source\PSoC6\pdl\drivers/peripheral/scb/cy_scb_i2c.h **** *
 241:Generated_Source\PSoC6\pdl\drivers/peripheral/scb/cy_scb_i2c.h **** * <b>Get Slave Events Notification</b>
 242:Generated_Source\PSoC6\pdl\drivers/peripheral/scb/cy_scb_i2c.h **** * \snippet SCB_CompDatasheet_sut_01_revA.cydsn\i2c_snippets.c I2C_SLAVE_REG_CALLBACK
 243:Generated_Source\PSoC6\pdl\drivers/peripheral/scb/cy_scb_i2c.h **** * \snippet SCB_CompDatasheet_sut_01_revA.cydsn\i2c_snippets.c I2C_SLAVE_NOTIFICATION
 244:Generated_Source\PSoC6\pdl\drivers/peripheral/scb/cy_scb_i2c.h **** *
 245:Generated_Source\PSoC6\pdl\drivers/peripheral/scb/cy_scb_i2c.h **** * <b>Polling Slave Completion Events</b>
 246:Generated_Source\PSoC6\pdl\drivers/peripheral/scb/cy_scb_i2c.h **** * \snippet SCB_CompDatasheet_sut_01_revA.cydsn\i2c_snippets.c I2C_SLAVE_POLLING
 247:Generated_Source\PSoC6\pdl\drivers/peripheral/scb/cy_scb_i2c.h **** *
 248:Generated_Source\PSoC6\pdl\drivers/peripheral/scb/cy_scb_i2c.h **** * \note
 249:Generated_Source\PSoC6\pdl\drivers/peripheral/scb/cy_scb_i2c.h **** * All slave API (except \ref Cy_SCB_I2C_SlaveAbortRead and
 250:Generated_Source\PSoC6\pdl\drivers/peripheral/scb/cy_scb_i2c.h **** * \ref Cy_SCB_I2C_SlaveAbortWrite) <b>are not interrupt-protected</b> and to
 251:Generated_Source\PSoC6\pdl\drivers/peripheral/scb/cy_scb_i2c.h **** * prevent a race condition, they should be protected from the I2C interruption
 252:Generated_Source\PSoC6\pdl\drivers/peripheral/scb/cy_scb_i2c.h **** * in the place where they are called. The code snippet Polling Slave 
 253:Generated_Source\PSoC6\pdl\drivers/peripheral/scb/cy_scb_i2c.h **** * Completion Events above shows how to prevent a race condition when detect 
 254:Generated_Source\PSoC6\pdl\drivers/peripheral/scb/cy_scb_i2c.h **** * transfer completion and update I2C slave write buffer. 
 255:Generated_Source\PSoC6\pdl\drivers/peripheral/scb/cy_scb_i2c.h **** * The simple example of race condition is: application updates slave read 
 256:Generated_Source\PSoC6\pdl\drivers/peripheral/scb/cy_scb_i2c.h **** * buffer the I2C master starts read transfer. The I2C interrupts read buffer 
 257:Generated_Source\PSoC6\pdl\drivers/peripheral/scb/cy_scb_i2c.h **** * update and I2C interrupt loads current read buffer content in the TX FIFO . 
 258:Generated_Source\PSoC6\pdl\drivers/peripheral/scb/cy_scb_i2c.h **** * After I2C interrupt returns the application updates remaining part of the read 
 259:Generated_Source\PSoC6\pdl\drivers/peripheral/scb/cy_scb_i2c.h **** * buffer. As a result the mater read partly updated buffer.
 260:Generated_Source\PSoC6\pdl\drivers/peripheral/scb/cy_scb_i2c.h **** *
 261:Generated_Source\PSoC6\pdl\drivers/peripheral/scb/cy_scb_i2c.h **** ********************************************************************************
 262:Generated_Source\PSoC6\pdl\drivers/peripheral/scb/cy_scb_i2c.h **** * \section group_scb_i2c_lp Low Power Support
 263:Generated_Source\PSoC6\pdl\drivers/peripheral/scb/cy_scb_i2c.h **** ********************************************************************************
 264:Generated_Source\PSoC6\pdl\drivers/peripheral/scb/cy_scb_i2c.h **** * The I2C driver provides callback functions to handle power mode transition.
 265:Generated_Source\PSoC6\pdl\drivers/peripheral/scb/cy_scb_i2c.h **** * The callback \ref Cy_SCB_I2C_DeepSleepCallback must be called
 266:Generated_Source\PSoC6\pdl\drivers/peripheral/scb/cy_scb_i2c.h **** * during execution of \ref Cy_SysPm_CpuEnterDeepSleep \ref Cy_SCB_I2C_HibernateCallback
 267:Generated_Source\PSoC6\pdl\drivers/peripheral/scb/cy_scb_i2c.h **** * must be called during execution of \ref Cy_SysPm_SystemEnterHibernate. To trigger the
 268:Generated_Source\PSoC6\pdl\drivers/peripheral/scb/cy_scb_i2c.h **** * callback execution, the callback must be registered before calling the
 269:Generated_Source\PSoC6\pdl\drivers/peripheral/scb/cy_scb_i2c.h **** * power mode transition function. Refer to \ref group_syspm driver for more
 270:Generated_Source\PSoC6\pdl\drivers/peripheral/scb/cy_scb_i2c.h **** * information about power mode transitions and callback registration.
 271:Generated_Source\PSoC6\pdl\drivers/peripheral/scb/cy_scb_i2c.h **** *
 272:Generated_Source\PSoC6\pdl\drivers/peripheral/scb/cy_scb_i2c.h **** * \note
 273:Generated_Source\PSoC6\pdl\drivers/peripheral/scb/cy_scb_i2c.h **** * Only applicable for <b>rev-08 of the CY8CKIT-062-BLE</b>.
 274:Generated_Source\PSoC6\pdl\drivers/peripheral/scb/cy_scb_i2c.h **** * For proper operation, when the I2C slave is configured to be a wakeup
 275:Generated_Source\PSoC6\pdl\drivers/peripheral/scb/cy_scb_i2c.h **** * source from Deep Sleep mode, the \ref Cy_SCB_I2C_DeepSleepCallback must be
 276:Generated_Source\PSoC6\pdl\drivers/peripheral/scb/cy_scb_i2c.h **** * copied and modified. Refer to the function description to get the details.
 277:Generated_Source\PSoC6\pdl\drivers/peripheral/scb/cy_scb_i2c.h **** *
 278:Generated_Source\PSoC6\pdl\drivers/peripheral/scb/cy_scb_i2c.h **** ********************************************************************************
 279:Generated_Source\PSoC6\pdl\drivers/peripheral/scb/cy_scb_i2c.h **** * \section group_scb_i2c_more_information More Information
 280:Generated_Source\PSoC6\pdl\drivers/peripheral/scb/cy_scb_i2c.h **** ********************************************************************************
 281:Generated_Source\PSoC6\pdl\drivers/peripheral/scb/cy_scb_i2c.h **** * For more information on the SCB peripheral, refer to the technical reference
 282:Generated_Source\PSoC6\pdl\drivers/peripheral/scb/cy_scb_i2c.h **** * manual (TRM).
 283:Generated_Source\PSoC6\pdl\drivers/peripheral/scb/cy_scb_i2c.h **** *
 284:Generated_Source\PSoC6\pdl\drivers/peripheral/scb/cy_scb_i2c.h **** ********************************************************************************
 285:Generated_Source\PSoC6\pdl\drivers/peripheral/scb/cy_scb_i2c.h **** * \section group_scb_i2c_MISRA MISRA-C Compliance
 286:Generated_Source\PSoC6\pdl\drivers/peripheral/scb/cy_scb_i2c.h **** ********************************************************************************
 287:Generated_Source\PSoC6\pdl\drivers/peripheral/scb/cy_scb_i2c.h **** * <table class="doxtable">
 288:Generated_Source\PSoC6\pdl\drivers/peripheral/scb/cy_scb_i2c.h **** *   <tr>
 289:Generated_Source\PSoC6\pdl\drivers/peripheral/scb/cy_scb_i2c.h **** *     <th>MISRA Rule</th>
 290:Generated_Source\PSoC6\pdl\drivers/peripheral/scb/cy_scb_i2c.h **** *     <th>Rule Class (Required/Advisory)</th>
ARM GAS  C:\Users\guill\AppData\Local\Temp\cclz5xua.s 			page 26


 291:Generated_Source\PSoC6\pdl\drivers/peripheral/scb/cy_scb_i2c.h **** *     <th>Rule Description</th>
 292:Generated_Source\PSoC6\pdl\drivers/peripheral/scb/cy_scb_i2c.h **** *     <th>Description of Deviation(s)</th>
 293:Generated_Source\PSoC6\pdl\drivers/peripheral/scb/cy_scb_i2c.h **** *   </tr>
 294:Generated_Source\PSoC6\pdl\drivers/peripheral/scb/cy_scb_i2c.h **** *   <tr>
 295:Generated_Source\PSoC6\pdl\drivers/peripheral/scb/cy_scb_i2c.h **** *     <td>11.4</td>
 296:Generated_Source\PSoC6\pdl\drivers/peripheral/scb/cy_scb_i2c.h **** *     <td>A</td>
 297:Generated_Source\PSoC6\pdl\drivers/peripheral/scb/cy_scb_i2c.h **** *     <td>A cast should not be performed between a pointer to object type and
 298:Generated_Source\PSoC6\pdl\drivers/peripheral/scb/cy_scb_i2c.h **** *         a different pointer to object type.</td>
 299:Generated_Source\PSoC6\pdl\drivers/peripheral/scb/cy_scb_i2c.h **** *     <td>The functions \ref Cy_SCB_I2C_DeepSleepCallback and
 300:Generated_Source\PSoC6\pdl\drivers/peripheral/scb/cy_scb_i2c.h **** *         \ref Cy_SCB_I2C_HibernateCallback are callback of
 301:Generated_Source\PSoC6\pdl\drivers/peripheral/scb/cy_scb_i2c.h **** *         \ref cy_en_syspm_status_t type. The cast operation safety in these
 302:Generated_Source\PSoC6\pdl\drivers/peripheral/scb/cy_scb_i2c.h **** *         functions becomes the user's responsibility because pointers are
 303:Generated_Source\PSoC6\pdl\drivers/peripheral/scb/cy_scb_i2c.h **** *         initialized when callback is registered in SysPm driver.</td>
 304:Generated_Source\PSoC6\pdl\drivers/peripheral/scb/cy_scb_i2c.h **** *   </tr>
 305:Generated_Source\PSoC6\pdl\drivers/peripheral/scb/cy_scb_i2c.h **** *   <tr>
 306:Generated_Source\PSoC6\pdl\drivers/peripheral/scb/cy_scb_i2c.h **** *     <td>14.1</td>
 307:Generated_Source\PSoC6\pdl\drivers/peripheral/scb/cy_scb_i2c.h **** *     <td>R</td>
 308:Generated_Source\PSoC6\pdl\drivers/peripheral/scb/cy_scb_i2c.h **** *     <td>There shall be no unreachable code.</td>
 309:Generated_Source\PSoC6\pdl\drivers/peripheral/scb/cy_scb_i2c.h **** *     <td>The SCB block parameters can be a constant false or true depends on
 310:Generated_Source\PSoC6\pdl\drivers/peripheral/scb/cy_scb_i2c.h **** *         the selected device and cause code to be unreachable.</td>
 311:Generated_Source\PSoC6\pdl\drivers/peripheral/scb/cy_scb_i2c.h **** *   </tr>
 312:Generated_Source\PSoC6\pdl\drivers/peripheral/scb/cy_scb_i2c.h **** *   <tr>
 313:Generated_Source\PSoC6\pdl\drivers/peripheral/scb/cy_scb_i2c.h **** *     <td>13.7</td>
 314:Generated_Source\PSoC6\pdl\drivers/peripheral/scb/cy_scb_i2c.h **** *     <td>R</td>
 315:Generated_Source\PSoC6\pdl\drivers/peripheral/scb/cy_scb_i2c.h **** *     <td>Boolean operations whose results are invariant shall not be
 316:Generated_Source\PSoC6\pdl\drivers/peripheral/scb/cy_scb_i2c.h **** *         permitted.</td>
 317:Generated_Source\PSoC6\pdl\drivers/peripheral/scb/cy_scb_i2c.h **** *     <td>
 318:Generated_Source\PSoC6\pdl\drivers/peripheral/scb/cy_scb_i2c.h **** *         * The SCB block parameters can be a constant false or true depends on
 319:Generated_Source\PSoC6\pdl\drivers/peripheral/scb/cy_scb_i2c.h **** *         the selected device and cause this violation.
 320:Generated_Source\PSoC6\pdl\drivers/peripheral/scb/cy_scb_i2c.h **** *         * The same condition check is executed before and after callback is
 321:Generated_Source\PSoC6\pdl\drivers/peripheral/scb/cy_scb_i2c.h **** *         called because after the callback returns, the condition might be not
 322:Generated_Source\PSoC6\pdl\drivers/peripheral/scb/cy_scb_i2c.h **** *         true any more.</td>
 323:Generated_Source\PSoC6\pdl\drivers/peripheral/scb/cy_scb_i2c.h **** *   </tr>
 324:Generated_Source\PSoC6\pdl\drivers/peripheral/scb/cy_scb_i2c.h **** *   <tr>
 325:Generated_Source\PSoC6\pdl\drivers/peripheral/scb/cy_scb_i2c.h **** *     <td>14.2</td>
 326:Generated_Source\PSoC6\pdl\drivers/peripheral/scb/cy_scb_i2c.h **** *     <td>R</td>
 327:Generated_Source\PSoC6\pdl\drivers/peripheral/scb/cy_scb_i2c.h **** *     <td>All non-null statements shall either: a) have at least one side-effect
 328:Generated_Source\PSoC6\pdl\drivers/peripheral/scb/cy_scb_i2c.h **** *         however executed, or b) cause control flow to change.</td>
 329:Generated_Source\PSoC6\pdl\drivers/peripheral/scb/cy_scb_i2c.h **** *     <td>The unused function parameters are cast to void. This statement
 330:Generated_Source\PSoC6\pdl\drivers/peripheral/scb/cy_scb_i2c.h **** *         has no side-effect and is used to suppress a compiler warning.</td>
 331:Generated_Source\PSoC6\pdl\drivers/peripheral/scb/cy_scb_i2c.h **** *   </tr>
 332:Generated_Source\PSoC6\pdl\drivers/peripheral/scb/cy_scb_i2c.h **** *   <tr>
 333:Generated_Source\PSoC6\pdl\drivers/peripheral/scb/cy_scb_i2c.h **** *     <td>14.7</td>
 334:Generated_Source\PSoC6\pdl\drivers/peripheral/scb/cy_scb_i2c.h **** *     <td>R</td>
 335:Generated_Source\PSoC6\pdl\drivers/peripheral/scb/cy_scb_i2c.h **** *     <td>A function shall have a single point of exit at the end of the
 336:Generated_Source\PSoC6\pdl\drivers/peripheral/scb/cy_scb_i2c.h **** *         function.</td>
 337:Generated_Source\PSoC6\pdl\drivers/peripheral/scb/cy_scb_i2c.h **** *     <td>The functions can return from several points. This is done to improve
 338:Generated_Source\PSoC6\pdl\drivers/peripheral/scb/cy_scb_i2c.h **** *         code clarity when returning error status code if input parameters
 339:Generated_Source\PSoC6\pdl\drivers/peripheral/scb/cy_scb_i2c.h **** *         validation fails.</td>
 340:Generated_Source\PSoC6\pdl\drivers/peripheral/scb/cy_scb_i2c.h **** *   </tr>
 341:Generated_Source\PSoC6\pdl\drivers/peripheral/scb/cy_scb_i2c.h **** * </table>
 342:Generated_Source\PSoC6\pdl\drivers/peripheral/scb/cy_scb_i2c.h **** *
 343:Generated_Source\PSoC6\pdl\drivers/peripheral/scb/cy_scb_i2c.h **** * \section group_scb_i2c_changelog Changelog
 344:Generated_Source\PSoC6\pdl\drivers/peripheral/scb/cy_scb_i2c.h **** * <table class="doxtable">
 345:Generated_Source\PSoC6\pdl\drivers/peripheral/scb/cy_scb_i2c.h **** *   <tr><th>Version</th><th>Changes</th><th>Reason for Change</th></tr>
 346:Generated_Source\PSoC6\pdl\drivers/peripheral/scb/cy_scb_i2c.h **** *   <tr>
 347:Generated_Source\PSoC6\pdl\drivers/peripheral/scb/cy_scb_i2c.h **** *     <td rowspan="4"> 2.20</td>
ARM GAS  C:\Users\guill\AppData\Local\Temp\cclz5xua.s 			page 27


 348:Generated_Source\PSoC6\pdl\drivers/peripheral/scb/cy_scb_i2c.h **** *     <td>Flattened the organization of the driver source code into the single 
 349:Generated_Source\PSoC6\pdl\drivers/peripheral/scb/cy_scb_i2c.h **** *         source directory and the single include directory.
 350:Generated_Source\PSoC6\pdl\drivers/peripheral/scb/cy_scb_i2c.h **** *     </td>
 351:Generated_Source\PSoC6\pdl\drivers/peripheral/scb/cy_scb_i2c.h **** *     <td>Driver library directory-structure simplification.</td>
 352:Generated_Source\PSoC6\pdl\drivers/peripheral/scb/cy_scb_i2c.h **** *   </tr>
 353:Generated_Source\PSoC6\pdl\drivers/peripheral/scb/cy_scb_i2c.h **** *   <tr>
 354:Generated_Source\PSoC6\pdl\drivers/peripheral/scb/cy_scb_i2c.h **** *     <td>Added the enableDigitalFilter, highPhaseDutyCycle and lowPhaseDutyCycle 
 355:Generated_Source\PSoC6\pdl\drivers/peripheral/scb/cy_scb_i2c.h **** *         fields to the \ref cy_stc_scb_i2c_config_t configuration structure.
 356:Generated_Source\PSoC6\pdl\drivers/peripheral/scb/cy_scb_i2c.h **** *     </td>
 357:Generated_Source\PSoC6\pdl\drivers/peripheral/scb/cy_scb_i2c.h **** *     <td>Added the I2C master data rate configuration using the configuration structure.
 358:Generated_Source\PSoC6\pdl\drivers/peripheral/scb/cy_scb_i2c.h **** *     </td>
 359:Generated_Source\PSoC6\pdl\drivers/peripheral/scb/cy_scb_i2c.h **** *   </tr>
 360:Generated_Source\PSoC6\pdl\drivers/peripheral/scb/cy_scb_i2c.h **** *   <tr>
 361:Generated_Source\PSoC6\pdl\drivers/peripheral/scb/cy_scb_i2c.h **** *     <td>Fixed the \ref Cy_SCB_I2C_SetDataRate function to properly configure data rates 
 362:Generated_Source\PSoC6\pdl\drivers/peripheral/scb/cy_scb_i2c.h **** *         greater than 400 kbps in Master and Master-Slave modes. \n
 363:Generated_Source\PSoC6\pdl\drivers/peripheral/scb/cy_scb_i2c.h **** *         Added verification that clk_scb is within the valid range for the desired data rate.
 364:Generated_Source\PSoC6\pdl\drivers/peripheral/scb/cy_scb_i2c.h **** *     </td>     
 365:Generated_Source\PSoC6\pdl\drivers/peripheral/scb/cy_scb_i2c.h **** *     <td>The analog filter was enabled for all data rates in Master and Master-Slave modes. 
 366:Generated_Source\PSoC6\pdl\drivers/peripheral/scb/cy_scb_i2c.h **** *         This prevents reaching the maximum supported data rate of 1000 kbps which requires a digi
 367:Generated_Source\PSoC6\pdl\drivers/peripheral/scb/cy_scb_i2c.h **** *     </td>
 368:Generated_Source\PSoC6\pdl\drivers/peripheral/scb/cy_scb_i2c.h **** *   </tr>
 369:Generated_Source\PSoC6\pdl\drivers/peripheral/scb/cy_scb_i2c.h **** *   <tr>
 370:Generated_Source\PSoC6\pdl\drivers/peripheral/scb/cy_scb_i2c.h **** *     <td>Added register access layer. Use register access macros instead
 371:Generated_Source\PSoC6\pdl\drivers/peripheral/scb/cy_scb_i2c.h **** *         of direct register access using dereferenced pointers.</td>
 372:Generated_Source\PSoC6\pdl\drivers/peripheral/scb/cy_scb_i2c.h **** *     <td>Makes register access device-independent, so that the PDL does 
 373:Generated_Source\PSoC6\pdl\drivers/peripheral/scb/cy_scb_i2c.h **** *         not need to be recompiled for each supported part number.</td>
 374:Generated_Source\PSoC6\pdl\drivers/peripheral/scb/cy_scb_i2c.h **** *   </tr>
 375:Generated_Source\PSoC6\pdl\drivers/peripheral/scb/cy_scb_i2c.h **** *   <tr>
 376:Generated_Source\PSoC6\pdl\drivers/peripheral/scb/cy_scb_i2c.h **** *     <td rowspan="4"> 2.10</td>
 377:Generated_Source\PSoC6\pdl\drivers/peripheral/scb/cy_scb_i2c.h **** *     <td>Fixed the ReStart condition generation sequence for a write
 378:Generated_Source\PSoC6\pdl\drivers/peripheral/scb/cy_scb_i2c.h **** *         transaction in the \ref Cy_SCB_I2C_MasterWrite function.</td>
 379:Generated_Source\PSoC6\pdl\drivers/peripheral/scb/cy_scb_i2c.h **** *     <td>The driver can notify about a zero length write transaction completion 
 380:Generated_Source\PSoC6\pdl\drivers/peripheral/scb/cy_scb_i2c.h **** *         before the address byte is sent if the \ref Cy_SCB_I2C_MasterWrite 
 381:Generated_Source\PSoC6\pdl\drivers/peripheral/scb/cy_scb_i2c.h **** *         function execution was interrupted between setting the restart 
 382:Generated_Source\PSoC6\pdl\drivers/peripheral/scb/cy_scb_i2c.h **** *         generation command and writing the address byte into the TX FIFO.</td>
 383:Generated_Source\PSoC6\pdl\drivers/peripheral/scb/cy_scb_i2c.h **** *   </tr>
 384:Generated_Source\PSoC6\pdl\drivers/peripheral/scb/cy_scb_i2c.h **** *   <tr>
 385:Generated_Source\PSoC6\pdl\drivers/peripheral/scb/cy_scb_i2c.h **** *     <td>Added the slave- and master-specific interrupt functions:
 386:Generated_Source\PSoC6\pdl\drivers/peripheral/scb/cy_scb_i2c.h **** *         \ref Cy_SCB_I2C_SlaveInterrupt and \ref Cy_SCB_I2C_MasterInterrupt.
 387:Generated_Source\PSoC6\pdl\drivers/peripheral/scb/cy_scb_i2c.h **** *     </td>
 388:Generated_Source\PSoC6\pdl\drivers/peripheral/scb/cy_scb_i2c.h **** *     <td>Improved the interrupt configuration options for the I2C slave and
 389:Generated_Source\PSoC6\pdl\drivers/peripheral/scb/cy_scb_i2c.h **** *         master mode configurations.</td>
 390:Generated_Source\PSoC6\pdl\drivers/peripheral/scb/cy_scb_i2c.h **** *   </tr>
 391:Generated_Source\PSoC6\pdl\drivers/peripheral/scb/cy_scb_i2c.h **** *   <tr>
 392:Generated_Source\PSoC6\pdl\drivers/peripheral/scb/cy_scb_i2c.h **** *     <td>Updated the Start condition generation sequence in the \ref 
 393:Generated_Source\PSoC6\pdl\drivers/peripheral/scb/cy_scb_i2c.h **** *         Cy_SCB_I2C_MasterWrite and \ref Cy_SCB_I2C_MasterRead.</td>
 394:Generated_Source\PSoC6\pdl\drivers/peripheral/scb/cy_scb_i2c.h **** *     <td></td>
 395:Generated_Source\PSoC6\pdl\drivers/peripheral/scb/cy_scb_i2c.h **** *   </tr>
 396:Generated_Source\PSoC6\pdl\drivers/peripheral/scb/cy_scb_i2c.h **** *   <tr>
 397:Generated_Source\PSoC6\pdl\drivers/peripheral/scb/cy_scb_i2c.h **** *     <td>Updated the ReStart condition generation sequence for a write
 398:Generated_Source\PSoC6\pdl\drivers/peripheral/scb/cy_scb_i2c.h **** *         transaction in the \ref Cy_SCB_I2C_MasterSendReStart function.</td>
 399:Generated_Source\PSoC6\pdl\drivers/peripheral/scb/cy_scb_i2c.h **** *     <td></td>
 400:Generated_Source\PSoC6\pdl\drivers/peripheral/scb/cy_scb_i2c.h **** *   </tr>
 401:Generated_Source\PSoC6\pdl\drivers/peripheral/scb/cy_scb_i2c.h **** *   <tr>
 402:Generated_Source\PSoC6\pdl\drivers/peripheral/scb/cy_scb_i2c.h **** *     <td rowspan="5"> 2.0</td>
 403:Generated_Source\PSoC6\pdl\drivers/peripheral/scb/cy_scb_i2c.h **** *     <td>Fixed the \ref Cy_SCB_I2C_MasterSendReStart function to properly 
 404:Generated_Source\PSoC6\pdl\drivers/peripheral/scb/cy_scb_i2c.h **** *         generate the ReStart condition when the previous transaction was 
ARM GAS  C:\Users\guill\AppData\Local\Temp\cclz5xua.s 			page 28


 405:Generated_Source\PSoC6\pdl\drivers/peripheral/scb/cy_scb_i2c.h **** *         a write.</td>
 406:Generated_Source\PSoC6\pdl\drivers/peripheral/scb/cy_scb_i2c.h **** *     <td>The master interpreted the address byte written into the TX FIFO as a
 407:Generated_Source\PSoC6\pdl\drivers/peripheral/scb/cy_scb_i2c.h **** *         data byte and continued a write transaction. The ReStart condition was
 408:Generated_Source\PSoC6\pdl\drivers/peripheral/scb/cy_scb_i2c.h **** *         generated after the master completed transferring the data byte.
 409:Generated_Source\PSoC6\pdl\drivers/peripheral/scb/cy_scb_i2c.h **** *         The SCL line was stretched by the master waiting for the address byte
 410:Generated_Source\PSoC6\pdl\drivers/peripheral/scb/cy_scb_i2c.h **** *         to be written into the TX FIFO after the ReStart condition generation.
 411:Generated_Source\PSoC6\pdl\drivers/peripheral/scb/cy_scb_i2c.h **** *         The following timeout detection released the bus from the master
 412:Generated_Source\PSoC6\pdl\drivers/peripheral/scb/cy_scb_i2c.h **** *         control.</td>
 413:Generated_Source\PSoC6\pdl\drivers/peripheral/scb/cy_scb_i2c.h **** *   </tr>
 414:Generated_Source\PSoC6\pdl\drivers/peripheral/scb/cy_scb_i2c.h **** *   <tr>
 415:Generated_Source\PSoC6\pdl\drivers/peripheral/scb/cy_scb_i2c.h **** *     <td>Fixed the slave operation after the address byte was NACKed by the
 416:Generated_Source\PSoC6\pdl\drivers/peripheral/scb/cy_scb_i2c.h **** *         firmware.</td>
 417:Generated_Source\PSoC6\pdl\drivers/peripheral/scb/cy_scb_i2c.h **** *     <td>The observed slave operation failure depends on whether Level 2 assert
 418:Generated_Source\PSoC6\pdl\drivers/peripheral/scb/cy_scb_i2c.h **** *         is enabled or not. Enabled: the device stuck in the fault handler due
 419:Generated_Source\PSoC6\pdl\drivers/peripheral/scb/cy_scb_i2c.h **** *         to the assert assignment in the \ref Cy_SCB_I2C_Interrupt. Disabled: 
 420:Generated_Source\PSoC6\pdl\drivers/peripheral/scb/cy_scb_i2c.h **** *         the slave sets the transaction completion status and notifies on the 
 421:Generated_Source\PSoC6\pdl\drivers/peripheral/scb/cy_scb_i2c.h **** *         transaction completion event after the address was NACKed. The failure
 422:Generated_Source\PSoC6\pdl\drivers/peripheral/scb/cy_scb_i2c.h **** *         is observed only when the slave is configured to accept an address in 
 423:Generated_Source\PSoC6\pdl\drivers/peripheral/scb/cy_scb_i2c.h **** *         the RX FIFO.</td>
 424:Generated_Source\PSoC6\pdl\drivers/peripheral/scb/cy_scb_i2c.h **** *   </tr>
 425:Generated_Source\PSoC6\pdl\drivers/peripheral/scb/cy_scb_i2c.h **** *   <tr>
 426:Generated_Source\PSoC6\pdl\drivers/peripheral/scb/cy_scb_i2c.h **** *     <td>Added parameters validation for public API.</td>
 427:Generated_Source\PSoC6\pdl\drivers/peripheral/scb/cy_scb_i2c.h **** *     <td></td>
 428:Generated_Source\PSoC6\pdl\drivers/peripheral/scb/cy_scb_i2c.h **** *   </tr>
 429:Generated_Source\PSoC6\pdl\drivers/peripheral/scb/cy_scb_i2c.h **** *   <tr>
 430:Generated_Source\PSoC6\pdl\drivers/peripheral/scb/cy_scb_i2c.h **** *     <td>Replaced variables which have limited range of values with enumerated
 431:Generated_Source\PSoC6\pdl\drivers/peripheral/scb/cy_scb_i2c.h **** *         types.</td>
 432:Generated_Source\PSoC6\pdl\drivers/peripheral/scb/cy_scb_i2c.h **** *     <td></td>
 433:Generated_Source\PSoC6\pdl\drivers/peripheral/scb/cy_scb_i2c.h **** *   </tr>
 434:Generated_Source\PSoC6\pdl\drivers/peripheral/scb/cy_scb_i2c.h **** *   <tr>
 435:Generated_Source\PSoC6\pdl\drivers/peripheral/scb/cy_scb_i2c.h **** *     <td>Added missing "cy_cb_" to the callback function type names.</td>
 436:Generated_Source\PSoC6\pdl\drivers/peripheral/scb/cy_scb_i2c.h **** *     <td></td>
 437:Generated_Source\PSoC6\pdl\drivers/peripheral/scb/cy_scb_i2c.h **** *   </tr>
 438:Generated_Source\PSoC6\pdl\drivers/peripheral/scb/cy_scb_i2c.h **** *   <tr>
 439:Generated_Source\PSoC6\pdl\drivers/peripheral/scb/cy_scb_i2c.h **** *     <td>1.0</td>
 440:Generated_Source\PSoC6\pdl\drivers/peripheral/scb/cy_scb_i2c.h **** *     <td>Initial version.</td>
 441:Generated_Source\PSoC6\pdl\drivers/peripheral/scb/cy_scb_i2c.h **** *     <td></td>
 442:Generated_Source\PSoC6\pdl\drivers/peripheral/scb/cy_scb_i2c.h **** *   </tr>
 443:Generated_Source\PSoC6\pdl\drivers/peripheral/scb/cy_scb_i2c.h **** * </table>
 444:Generated_Source\PSoC6\pdl\drivers/peripheral/scb/cy_scb_i2c.h **** *
 445:Generated_Source\PSoC6\pdl\drivers/peripheral/scb/cy_scb_i2c.h **** * \defgroup group_scb_i2c_macros Macros
 446:Generated_Source\PSoC6\pdl\drivers/peripheral/scb/cy_scb_i2c.h **** * \defgroup group_scb_i2c_functions Functions
 447:Generated_Source\PSoC6\pdl\drivers/peripheral/scb/cy_scb_i2c.h **** * \{
 448:Generated_Source\PSoC6\pdl\drivers/peripheral/scb/cy_scb_i2c.h **** * \defgroup group_scb_i2c_general_functions General
 449:Generated_Source\PSoC6\pdl\drivers/peripheral/scb/cy_scb_i2c.h **** * \defgroup group_scb_i2c_slave_functions Slave
 450:Generated_Source\PSoC6\pdl\drivers/peripheral/scb/cy_scb_i2c.h **** * \defgroup group_scb_i2c_master_high_level_functions Master High-Level
 451:Generated_Source\PSoC6\pdl\drivers/peripheral/scb/cy_scb_i2c.h **** * \defgroup group_scb_i2c_master_low_level_functions Master Low-Level
 452:Generated_Source\PSoC6\pdl\drivers/peripheral/scb/cy_scb_i2c.h **** * \defgroup group_scb_i2c_interrupt_functions Interrupt
 453:Generated_Source\PSoC6\pdl\drivers/peripheral/scb/cy_scb_i2c.h **** * \defgroup group_scb_i2c_low_power_functions Low Power Callbacks
 454:Generated_Source\PSoC6\pdl\drivers/peripheral/scb/cy_scb_i2c.h **** * \}
 455:Generated_Source\PSoC6\pdl\drivers/peripheral/scb/cy_scb_i2c.h **** * \defgroup group_scb_i2c_data_structures Data Structures
 456:Generated_Source\PSoC6\pdl\drivers/peripheral/scb/cy_scb_i2c.h **** * \defgroup group_scb_i2c_enums Enumerated Types
 457:Generated_Source\PSoC6\pdl\drivers/peripheral/scb/cy_scb_i2c.h **** */
 458:Generated_Source\PSoC6\pdl\drivers/peripheral/scb/cy_scb_i2c.h **** 
 459:Generated_Source\PSoC6\pdl\drivers/peripheral/scb/cy_scb_i2c.h **** #if !defined(CY_SCB_I2C_H)
 460:Generated_Source\PSoC6\pdl\drivers/peripheral/scb/cy_scb_i2c.h **** #define CY_SCB_I2C_H
 461:Generated_Source\PSoC6\pdl\drivers/peripheral/scb/cy_scb_i2c.h **** 
ARM GAS  C:\Users\guill\AppData\Local\Temp\cclz5xua.s 			page 29


 462:Generated_Source\PSoC6\pdl\drivers/peripheral/scb/cy_scb_i2c.h **** #include "cy_scb_common.h"
 463:Generated_Source\PSoC6\pdl\drivers/peripheral/scb/cy_scb_i2c.h **** 
 464:Generated_Source\PSoC6\pdl\drivers/peripheral/scb/cy_scb_i2c.h **** #if defined(__cplusplus)
 465:Generated_Source\PSoC6\pdl\drivers/peripheral/scb/cy_scb_i2c.h **** extern "C" {
 466:Generated_Source\PSoC6\pdl\drivers/peripheral/scb/cy_scb_i2c.h **** #endif
 467:Generated_Source\PSoC6\pdl\drivers/peripheral/scb/cy_scb_i2c.h **** 
 468:Generated_Source\PSoC6\pdl\drivers/peripheral/scb/cy_scb_i2c.h **** /*******************************************************************************
 469:Generated_Source\PSoC6\pdl\drivers/peripheral/scb/cy_scb_i2c.h **** *                            Enumerated Types
 470:Generated_Source\PSoC6\pdl\drivers/peripheral/scb/cy_scb_i2c.h **** *******************************************************************************/
 471:Generated_Source\PSoC6\pdl\drivers/peripheral/scb/cy_scb_i2c.h **** 
 472:Generated_Source\PSoC6\pdl\drivers/peripheral/scb/cy_scb_i2c.h **** /**
 473:Generated_Source\PSoC6\pdl\drivers/peripheral/scb/cy_scb_i2c.h **** * \addtogroup group_scb_i2c_enums
 474:Generated_Source\PSoC6\pdl\drivers/peripheral/scb/cy_scb_i2c.h **** * \{
 475:Generated_Source\PSoC6\pdl\drivers/peripheral/scb/cy_scb_i2c.h **** */
 476:Generated_Source\PSoC6\pdl\drivers/peripheral/scb/cy_scb_i2c.h **** 
 477:Generated_Source\PSoC6\pdl\drivers/peripheral/scb/cy_scb_i2c.h **** /** I2C status codes */
 478:Generated_Source\PSoC6\pdl\drivers/peripheral/scb/cy_scb_i2c.h **** typedef enum
 479:Generated_Source\PSoC6\pdl\drivers/peripheral/scb/cy_scb_i2c.h **** {
 480:Generated_Source\PSoC6\pdl\drivers/peripheral/scb/cy_scb_i2c.h ****     /** Operation completed successfully */
 481:Generated_Source\PSoC6\pdl\drivers/peripheral/scb/cy_scb_i2c.h ****     CY_SCB_I2C_SUCCESS = 0U,
 482:Generated_Source\PSoC6\pdl\drivers/peripheral/scb/cy_scb_i2c.h **** 
 483:Generated_Source\PSoC6\pdl\drivers/peripheral/scb/cy_scb_i2c.h ****     /** One or more of input parameters are invalid */
 484:Generated_Source\PSoC6\pdl\drivers/peripheral/scb/cy_scb_i2c.h ****     CY_SCB_I2C_BAD_PARAM = (CY_SCB_ID | CY_PDL_STATUS_ERROR | CY_SCB_I2C_ID | 1U),
 485:Generated_Source\PSoC6\pdl\drivers/peripheral/scb/cy_scb_i2c.h **** 
 486:Generated_Source\PSoC6\pdl\drivers/peripheral/scb/cy_scb_i2c.h ****     /**
 487:Generated_Source\PSoC6\pdl\drivers/peripheral/scb/cy_scb_i2c.h ****     * The master is not ready to start a new transaction.
 488:Generated_Source\PSoC6\pdl\drivers/peripheral/scb/cy_scb_i2c.h ****     * Either the master is still processing a previous transaction or in the
 489:Generated_Source\PSoC6\pdl\drivers/peripheral/scb/cy_scb_i2c.h ****     * master-slave mode, the slave operation is in progress.
 490:Generated_Source\PSoC6\pdl\drivers/peripheral/scb/cy_scb_i2c.h ****     */
 491:Generated_Source\PSoC6\pdl\drivers/peripheral/scb/cy_scb_i2c.h ****     CY_SCB_I2C_MASTER_NOT_READY = (CY_SCB_ID | CY_PDL_STATUS_ERROR | CY_SCB_I2C_ID | 2U),
 492:Generated_Source\PSoC6\pdl\drivers/peripheral/scb/cy_scb_i2c.h **** 
 493:Generated_Source\PSoC6\pdl\drivers/peripheral/scb/cy_scb_i2c.h ****     /**
 494:Generated_Source\PSoC6\pdl\drivers/peripheral/scb/cy_scb_i2c.h ****     * The master operation timed out before completing. Applicable only for
 495:Generated_Source\PSoC6\pdl\drivers/peripheral/scb/cy_scb_i2c.h ****     * the \ref group_scb_i2c_master_low_level_functions functions.
 496:Generated_Source\PSoC6\pdl\drivers/peripheral/scb/cy_scb_i2c.h ****     */
 497:Generated_Source\PSoC6\pdl\drivers/peripheral/scb/cy_scb_i2c.h ****     CY_SCB_I2C_MASTER_MANUAL_TIMEOUT = (CY_SCB_ID | CY_PDL_STATUS_ERROR | CY_SCB_I2C_ID | 3U),
 498:Generated_Source\PSoC6\pdl\drivers/peripheral/scb/cy_scb_i2c.h **** 
 499:Generated_Source\PSoC6\pdl\drivers/peripheral/scb/cy_scb_i2c.h ****     /** The slave NACKed the address. Applicable only for the
 500:Generated_Source\PSoC6\pdl\drivers/peripheral/scb/cy_scb_i2c.h ****     * \ref group_scb_i2c_master_low_level_functions functions.
 501:Generated_Source\PSoC6\pdl\drivers/peripheral/scb/cy_scb_i2c.h ****     */
 502:Generated_Source\PSoC6\pdl\drivers/peripheral/scb/cy_scb_i2c.h ****     CY_SCB_I2C_MASTER_MANUAL_ADDR_NAK = (CY_SCB_ID | CY_PDL_STATUS_ERROR | CY_SCB_I2C_ID | 4U),
 503:Generated_Source\PSoC6\pdl\drivers/peripheral/scb/cy_scb_i2c.h **** 
 504:Generated_Source\PSoC6\pdl\drivers/peripheral/scb/cy_scb_i2c.h ****     /** The slave NACKed the data byte.  Applicable only for the
 505:Generated_Source\PSoC6\pdl\drivers/peripheral/scb/cy_scb_i2c.h ****     * \ref group_scb_i2c_master_low_level_functions.
 506:Generated_Source\PSoC6\pdl\drivers/peripheral/scb/cy_scb_i2c.h ****     */
 507:Generated_Source\PSoC6\pdl\drivers/peripheral/scb/cy_scb_i2c.h ****     CY_SCB_I2C_MASTER_MANUAL_NAK = (CY_SCB_ID | CY_PDL_STATUS_ERROR | CY_SCB_I2C_ID | 5U),
 508:Generated_Source\PSoC6\pdl\drivers/peripheral/scb/cy_scb_i2c.h **** 
 509:Generated_Source\PSoC6\pdl\drivers/peripheral/scb/cy_scb_i2c.h ****     /**
 510:Generated_Source\PSoC6\pdl\drivers/peripheral/scb/cy_scb_i2c.h ****     * The master lost arbitration, the transaction was aborted. Applicable only
 511:Generated_Source\PSoC6\pdl\drivers/peripheral/scb/cy_scb_i2c.h ****     * for the \ref group_scb_i2c_master_low_level_functions functions.
 512:Generated_Source\PSoC6\pdl\drivers/peripheral/scb/cy_scb_i2c.h ****     */
 513:Generated_Source\PSoC6\pdl\drivers/peripheral/scb/cy_scb_i2c.h ****     CY_SCB_I2C_MASTER_MANUAL_ARB_LOST = (CY_SCB_ID | CY_PDL_STATUS_ERROR | CY_SCB_I2C_ID | 6U),
 514:Generated_Source\PSoC6\pdl\drivers/peripheral/scb/cy_scb_i2c.h **** 
 515:Generated_Source\PSoC6\pdl\drivers/peripheral/scb/cy_scb_i2c.h ****     /**
 516:Generated_Source\PSoC6\pdl\drivers/peripheral/scb/cy_scb_i2c.h ****     * The master detected an erroneous start or stop, the transaction was
 517:Generated_Source\PSoC6\pdl\drivers/peripheral/scb/cy_scb_i2c.h ****     * aborted. Applicable only for the
 518:Generated_Source\PSoC6\pdl\drivers/peripheral/scb/cy_scb_i2c.h ****     * \ref group_scb_i2c_master_low_level_functions functions.
ARM GAS  C:\Users\guill\AppData\Local\Temp\cclz5xua.s 			page 30


 519:Generated_Source\PSoC6\pdl\drivers/peripheral/scb/cy_scb_i2c.h ****     */
 520:Generated_Source\PSoC6\pdl\drivers/peripheral/scb/cy_scb_i2c.h ****     CY_SCB_I2C_MASTER_MANUAL_BUS_ERR = (CY_SCB_ID | CY_PDL_STATUS_ERROR | CY_SCB_I2C_ID | 7U),
 521:Generated_Source\PSoC6\pdl\drivers/peripheral/scb/cy_scb_i2c.h **** 
 522:Generated_Source\PSoC6\pdl\drivers/peripheral/scb/cy_scb_i2c.h ****     /**
 523:Generated_Source\PSoC6\pdl\drivers/peripheral/scb/cy_scb_i2c.h ****     * The master transaction was aborted and the slave transaction is on-going
 524:Generated_Source\PSoC6\pdl\drivers/peripheral/scb/cy_scb_i2c.h ****     * because the slave was addressed before the master generated a start.
 525:Generated_Source\PSoC6\pdl\drivers/peripheral/scb/cy_scb_i2c.h ****     * Applicable only for the \ref group_scb_i2c_master_low_level_functions
 526:Generated_Source\PSoC6\pdl\drivers/peripheral/scb/cy_scb_i2c.h ****     * functions.
 527:Generated_Source\PSoC6\pdl\drivers/peripheral/scb/cy_scb_i2c.h ****     */
 528:Generated_Source\PSoC6\pdl\drivers/peripheral/scb/cy_scb_i2c.h ****     CY_SCB_I2C_MASTER_MANUAL_ABORT_START = (CY_SCB_ID | CY_PDL_STATUS_ERROR | CY_SCB_I2C_ID | 8U)
 529:Generated_Source\PSoC6\pdl\drivers/peripheral/scb/cy_scb_i2c.h **** } cy_en_scb_i2c_status_t;
 530:Generated_Source\PSoC6\pdl\drivers/peripheral/scb/cy_scb_i2c.h **** 
 531:Generated_Source\PSoC6\pdl\drivers/peripheral/scb/cy_scb_i2c.h **** /** I2C Operation Modes */
 532:Generated_Source\PSoC6\pdl\drivers/peripheral/scb/cy_scb_i2c.h **** typedef enum
 533:Generated_Source\PSoC6\pdl\drivers/peripheral/scb/cy_scb_i2c.h **** {
 534:Generated_Source\PSoC6\pdl\drivers/peripheral/scb/cy_scb_i2c.h ****     CY_SCB_I2C_SLAVE        = 1U,    /**< Configures SCB for I2C Slave operation */
 535:Generated_Source\PSoC6\pdl\drivers/peripheral/scb/cy_scb_i2c.h ****     CY_SCB_I2C_MASTER       = 2U,    /**< Configures SCB for I2C Master operation */
 536:Generated_Source\PSoC6\pdl\drivers/peripheral/scb/cy_scb_i2c.h ****     CY_SCB_I2C_MASTER_SLAVE = 3U,    /**< Configures SCB for I2C Master-Slave operation */
 537:Generated_Source\PSoC6\pdl\drivers/peripheral/scb/cy_scb_i2c.h **** } cy_en_scb_i2c_mode_t;
 538:Generated_Source\PSoC6\pdl\drivers/peripheral/scb/cy_scb_i2c.h **** 
 539:Generated_Source\PSoC6\pdl\drivers/peripheral/scb/cy_scb_i2c.h **** /** I2C Transaction Direction */
 540:Generated_Source\PSoC6\pdl\drivers/peripheral/scb/cy_scb_i2c.h **** typedef enum
 541:Generated_Source\PSoC6\pdl\drivers/peripheral/scb/cy_scb_i2c.h **** {
 542:Generated_Source\PSoC6\pdl\drivers/peripheral/scb/cy_scb_i2c.h ****     CY_SCB_I2C_WRITE_XFER = 0U,  /**< Current transaction is Write */
 543:Generated_Source\PSoC6\pdl\drivers/peripheral/scb/cy_scb_i2c.h ****     CY_SCB_I2C_READ_XFER  = 1U,  /**< Current transaction is Read */
 544:Generated_Source\PSoC6\pdl\drivers/peripheral/scb/cy_scb_i2c.h **** } cy_en_scb_i2c_direction_t;
 545:Generated_Source\PSoC6\pdl\drivers/peripheral/scb/cy_scb_i2c.h **** 
 546:Generated_Source\PSoC6\pdl\drivers/peripheral/scb/cy_scb_i2c.h **** /** I2C Command ACK / NAK */
 547:Generated_Source\PSoC6\pdl\drivers/peripheral/scb/cy_scb_i2c.h **** typedef enum
 548:Generated_Source\PSoC6\pdl\drivers/peripheral/scb/cy_scb_i2c.h **** {
 549:Generated_Source\PSoC6\pdl\drivers/peripheral/scb/cy_scb_i2c.h ****     CY_SCB_I2C_ACK,     /**< Send ACK to current byte */
 550:Generated_Source\PSoC6\pdl\drivers/peripheral/scb/cy_scb_i2c.h ****     CY_SCB_I2C_NAK,     /**< Send NAK to current byte */
 551:Generated_Source\PSoC6\pdl\drivers/peripheral/scb/cy_scb_i2c.h **** } cy_en_scb_i2c_command_t;
 552:Generated_Source\PSoC6\pdl\drivers/peripheral/scb/cy_scb_i2c.h **** /** \} group_scb_i2c_enums */
 553:Generated_Source\PSoC6\pdl\drivers/peripheral/scb/cy_scb_i2c.h **** 
 554:Generated_Source\PSoC6\pdl\drivers/peripheral/scb/cy_scb_i2c.h **** 
 555:Generated_Source\PSoC6\pdl\drivers/peripheral/scb/cy_scb_i2c.h **** /*******************************************************************************
 556:Generated_Source\PSoC6\pdl\drivers/peripheral/scb/cy_scb_i2c.h **** *                              Type Definitions
 557:Generated_Source\PSoC6\pdl\drivers/peripheral/scb/cy_scb_i2c.h **** *******************************************************************************/
 558:Generated_Source\PSoC6\pdl\drivers/peripheral/scb/cy_scb_i2c.h **** 
 559:Generated_Source\PSoC6\pdl\drivers/peripheral/scb/cy_scb_i2c.h **** /**
 560:Generated_Source\PSoC6\pdl\drivers/peripheral/scb/cy_scb_i2c.h **** * \addtogroup group_scb_i2c_data_structures
 561:Generated_Source\PSoC6\pdl\drivers/peripheral/scb/cy_scb_i2c.h **** * \{
 562:Generated_Source\PSoC6\pdl\drivers/peripheral/scb/cy_scb_i2c.h **** */
 563:Generated_Source\PSoC6\pdl\drivers/peripheral/scb/cy_scb_i2c.h **** 
 564:Generated_Source\PSoC6\pdl\drivers/peripheral/scb/cy_scb_i2c.h **** /**
 565:Generated_Source\PSoC6\pdl\drivers/peripheral/scb/cy_scb_i2c.h **** * Provides the typedef for the callback function called in the
 566:Generated_Source\PSoC6\pdl\drivers/peripheral/scb/cy_scb_i2c.h **** * \ref Cy_SCB_I2C_Interrupt to notify the user about occurrences of
 567:Generated_Source\PSoC6\pdl\drivers/peripheral/scb/cy_scb_i2c.h **** * \ref group_scb_i2c_macros_callback_events.
 568:Generated_Source\PSoC6\pdl\drivers/peripheral/scb/cy_scb_i2c.h **** */
 569:Generated_Source\PSoC6\pdl\drivers/peripheral/scb/cy_scb_i2c.h **** typedef void (* cy_cb_scb_i2c_handle_events_t)(uint32_t event);
 570:Generated_Source\PSoC6\pdl\drivers/peripheral/scb/cy_scb_i2c.h **** 
 571:Generated_Source\PSoC6\pdl\drivers/peripheral/scb/cy_scb_i2c.h **** /**
 572:Generated_Source\PSoC6\pdl\drivers/peripheral/scb/cy_scb_i2c.h **** * Provides the typedef for the callback function called in the
 573:Generated_Source\PSoC6\pdl\drivers/peripheral/scb/cy_scb_i2c.h **** * \ref Cy_SCB_I2C_Interrupt to notify the user about occurrences of
 574:Generated_Source\PSoC6\pdl\drivers/peripheral/scb/cy_scb_i2c.h **** * \ref group_scb_i2c_macros_addr_callback_events.
 575:Generated_Source\PSoC6\pdl\drivers/peripheral/scb/cy_scb_i2c.h **** * This callback must return a decision to ACK (continue transaction) or
ARM GAS  C:\Users\guill\AppData\Local\Temp\cclz5xua.s 			page 31


 576:Generated_Source\PSoC6\pdl\drivers/peripheral/scb/cy_scb_i2c.h **** * NAK (end transaction) the received address.
 577:Generated_Source\PSoC6\pdl\drivers/peripheral/scb/cy_scb_i2c.h **** * Note if the slave is configured to accept an address in RX FIFO, it must read
 578:Generated_Source\PSoC6\pdl\drivers/peripheral/scb/cy_scb_i2c.h **** * from it using the \ref Cy_SCB_ReadRxFifo function.
 579:Generated_Source\PSoC6\pdl\drivers/peripheral/scb/cy_scb_i2c.h **** */
 580:Generated_Source\PSoC6\pdl\drivers/peripheral/scb/cy_scb_i2c.h **** typedef cy_en_scb_i2c_command_t (* cy_cb_scb_i2c_handle_addr_t)(uint32_t event);
 581:Generated_Source\PSoC6\pdl\drivers/peripheral/scb/cy_scb_i2c.h **** 
 582:Generated_Source\PSoC6\pdl\drivers/peripheral/scb/cy_scb_i2c.h **** /** I2C configuration structure */
 583:Generated_Source\PSoC6\pdl\drivers/peripheral/scb/cy_scb_i2c.h **** typedef struct cy_stc_scb_i2c_config
 584:Generated_Source\PSoC6\pdl\drivers/peripheral/scb/cy_scb_i2c.h **** {
 585:Generated_Source\PSoC6\pdl\drivers/peripheral/scb/cy_scb_i2c.h ****     /** Specifies the mode of operation */
 586:Generated_Source\PSoC6\pdl\drivers/peripheral/scb/cy_scb_i2c.h ****     cy_en_scb_i2c_mode_t i2cMode;
 587:Generated_Source\PSoC6\pdl\drivers/peripheral/scb/cy_scb_i2c.h **** 
 588:Generated_Source\PSoC6\pdl\drivers/peripheral/scb/cy_scb_i2c.h ****     /**
 589:Generated_Source\PSoC6\pdl\drivers/peripheral/scb/cy_scb_i2c.h ****     * The SCB provides an RX FIFO in hardware (consult the selected device
 590:Generated_Source\PSoC6\pdl\drivers/peripheral/scb/cy_scb_i2c.h ****     * datasheet to get the actual FIFO size). The useRxFifo field defines
 591:Generated_Source\PSoC6\pdl\drivers/peripheral/scb/cy_scb_i2c.h ****     * how the driver firmware reads data from the RX FIFO:
 592:Generated_Source\PSoC6\pdl\drivers/peripheral/scb/cy_scb_i2c.h ****     * * If this option is enabled, the hardware is configured to automatically
 593:Generated_Source\PSoC6\pdl\drivers/peripheral/scb/cy_scb_i2c.h ****     *   ACK incoming data, and interrupt is enabled to take data out of the RX
 594:Generated_Source\PSoC6\pdl\drivers/peripheral/scb/cy_scb_i2c.h ****     *   FIFO when it has some number of bytes (typically, when it is half full).
 595:Generated_Source\PSoC6\pdl\drivers/peripheral/scb/cy_scb_i2c.h ****     * * If this option is disabled, the interrupt is enabled to take data out of
 596:Generated_Source\PSoC6\pdl\drivers/peripheral/scb/cy_scb_i2c.h ****     *   the RX FIFO when a byte is available. Also, hardware does not
 597:Generated_Source\PSoC6\pdl\drivers/peripheral/scb/cy_scb_i2c.h ****     *   automatically ACK the data. Firmware must tell the hardware to ACK
 598:Generated_Source\PSoC6\pdl\drivers/peripheral/scb/cy_scb_i2c.h ****     *   the byte (so each byte requires interrupt processing).
 599:Generated_Source\PSoC6\pdl\drivers/peripheral/scb/cy_scb_i2c.h ****     * \n <b>Typically, this option should be enabled</b> to configure hardware to
 600:Generated_Source\PSoC6\pdl\drivers/peripheral/scb/cy_scb_i2c.h ****     * automatically ACK incoming data. Otherwise hardware might not get the command
 601:Generated_Source\PSoC6\pdl\drivers/peripheral/scb/cy_scb_i2c.h ****     * to ACK or NACK a byte fast enough, and clock stretching is applied
 602:Generated_Source\PSoC6\pdl\drivers/peripheral/scb/cy_scb_i2c.h ****     * (the transaction is delayed) until the command is set. When this option is
 603:Generated_Source\PSoC6\pdl\drivers/peripheral/scb/cy_scb_i2c.h ****     * enabled, the number of interrupts required to process the transaction
 604:Generated_Source\PSoC6\pdl\drivers/peripheral/scb/cy_scb_i2c.h ****     * is significantly reduced because several bytes are handled at once.
 605:Generated_Source\PSoC6\pdl\drivers/peripheral/scb/cy_scb_i2c.h ****     * \n <b>However, there is a side effect:</b>
 606:Generated_Source\PSoC6\pdl\drivers/peripheral/scb/cy_scb_i2c.h ****     * * For master mode, the drawback is that the master may receive more
 607:Generated_Source\PSoC6\pdl\drivers/peripheral/scb/cy_scb_i2c.h ****     *   data than desired due to the interrupt latency. An interrupt fires
 608:Generated_Source\PSoC6\pdl\drivers/peripheral/scb/cy_scb_i2c.h ****     *   when the second-to-last byte has been received. This interrupt tells
 609:Generated_Source\PSoC6\pdl\drivers/peripheral/scb/cy_scb_i2c.h ****     *   the hardware to stop receiving data. If the latency of this interrupt
 610:Generated_Source\PSoC6\pdl\drivers/peripheral/scb/cy_scb_i2c.h ****     *   is longer than one transaction of the byte on the I2C bus, then the
 611:Generated_Source\PSoC6\pdl\drivers/peripheral/scb/cy_scb_i2c.h ****     *   hardware automatically ACKs the following bytes until the interrupt
 612:Generated_Source\PSoC6\pdl\drivers/peripheral/scb/cy_scb_i2c.h ****     *   is serviced or the RX FIFO becomes full.
 613:Generated_Source\PSoC6\pdl\drivers/peripheral/scb/cy_scb_i2c.h ****     * * For slave mode, the drawback is that the slave only NACKs
 614:Generated_Source\PSoC6\pdl\drivers/peripheral/scb/cy_scb_i2c.h ****     *   the master when the RX FIFO becomes full, NOT when the slave write
 615:Generated_Source\PSoC6\pdl\drivers/peripheral/scb/cy_scb_i2c.h ****     *   firmware buffer becomes full.
 616:Generated_Source\PSoC6\pdl\drivers/peripheral/scb/cy_scb_i2c.h ****     * \n In either master or slave mode, all received extra bytes are dropped.
 617:Generated_Source\PSoC6\pdl\drivers/peripheral/scb/cy_scb_i2c.h ****     * \note The useRxFifo option is not available if acceptAddrInFifo is true.
 618:Generated_Source\PSoC6\pdl\drivers/peripheral/scb/cy_scb_i2c.h ****     */
 619:Generated_Source\PSoC6\pdl\drivers/peripheral/scb/cy_scb_i2c.h ****     bool useRxFifo;
 620:Generated_Source\PSoC6\pdl\drivers/peripheral/scb/cy_scb_i2c.h **** 
 621:Generated_Source\PSoC6\pdl\drivers/peripheral/scb/cy_scb_i2c.h ****     /**
 622:Generated_Source\PSoC6\pdl\drivers/peripheral/scb/cy_scb_i2c.h ****     * The SCB provides a TX FIFO in hardware (consult the selected device
 623:Generated_Source\PSoC6\pdl\drivers/peripheral/scb/cy_scb_i2c.h ****     * datasheet to get the actual FIFO size). The useTxFifo option defines how the
 624:Generated_Source\PSoC6\pdl\drivers/peripheral/scb/cy_scb_i2c.h ****     * driver firmware loads data into the TX FIFO:
 625:Generated_Source\PSoC6\pdl\drivers/peripheral/scb/cy_scb_i2c.h ****     * * If this option is enabled, the TX FIFO is fully loaded with data and the
 626:Generated_Source\PSoC6\pdl\drivers/peripheral/scb/cy_scb_i2c.h ****     *   interrupt is enabled to keep the TX FIFO loaded until the end of the transaction.
 627:Generated_Source\PSoC6\pdl\drivers/peripheral/scb/cy_scb_i2c.h ****     * * If this option is disabled, a single byte is loaded into the TX FIFO and
 628:Generated_Source\PSoC6\pdl\drivers/peripheral/scb/cy_scb_i2c.h ****     *   the interrupt enabled to load the next byte when the TX FIFO becomes empty
 629:Generated_Source\PSoC6\pdl\drivers/peripheral/scb/cy_scb_i2c.h ****     *   (so each byte requires interrupt processing).
 630:Generated_Source\PSoC6\pdl\drivers/peripheral/scb/cy_scb_i2c.h ****     * \n <b>Typically, this option should be enabled</b> to keep the TX FIFO loaded with
 631:Generated_Source\PSoC6\pdl\drivers/peripheral/scb/cy_scb_i2c.h ****     * data and reduce the probability of clock stretching. When there is no data
 632:Generated_Source\PSoC6\pdl\drivers/peripheral/scb/cy_scb_i2c.h ****     * to transfer, clock stretching is applied (the transaction is delayed) until
ARM GAS  C:\Users\guill\AppData\Local\Temp\cclz5xua.s 			page 32


 633:Generated_Source\PSoC6\pdl\drivers/peripheral/scb/cy_scb_i2c.h ****     * the data is loaded. When this option is enabled, the number of interrupts required
 634:Generated_Source\PSoC6\pdl\drivers/peripheral/scb/cy_scb_i2c.h ****     * to process the transaction is significantly reduced because several
 635:Generated_Source\PSoC6\pdl\drivers/peripheral/scb/cy_scb_i2c.h ****     * bytes are handled at once.
 636:Generated_Source\PSoC6\pdl\drivers/peripheral/scb/cy_scb_i2c.h ****     * \n <b>The drawback of enabling useTxFifo</b> is that the abort operation clears
 637:Generated_Source\PSoC6\pdl\drivers/peripheral/scb/cy_scb_i2c.h ****     * the TX FIFO. The TX FIFO clear operation also clears the shift
 638:Generated_Source\PSoC6\pdl\drivers/peripheral/scb/cy_scb_i2c.h ****     * register. As a result the shifter may be cleared in the middle of a byte
 639:Generated_Source\PSoC6\pdl\drivers/peripheral/scb/cy_scb_i2c.h ****     * transaction, corrupting it. The remaining bits to transaction within the
 640:Generated_Source\PSoC6\pdl\drivers/peripheral/scb/cy_scb_i2c.h ****     * corrupted byte are complemented with 1s. If this is an issue,
 641:Generated_Source\PSoC6\pdl\drivers/peripheral/scb/cy_scb_i2c.h ****     * then do not enable this option.
 642:Generated_Source\PSoC6\pdl\drivers/peripheral/scb/cy_scb_i2c.h ****     */
 643:Generated_Source\PSoC6\pdl\drivers/peripheral/scb/cy_scb_i2c.h ****     bool useTxFifo;
 644:Generated_Source\PSoC6\pdl\drivers/peripheral/scb/cy_scb_i2c.h **** 
 645:Generated_Source\PSoC6\pdl\drivers/peripheral/scb/cy_scb_i2c.h ****     /**
 646:Generated_Source\PSoC6\pdl\drivers/peripheral/scb/cy_scb_i2c.h ****     * The 7-bit right justified slave address, used only for the slave mode
 647:Generated_Source\PSoC6\pdl\drivers/peripheral/scb/cy_scb_i2c.h ****     */
 648:Generated_Source\PSoC6\pdl\drivers/peripheral/scb/cy_scb_i2c.h ****     uint8_t slaveAddress;
 649:Generated_Source\PSoC6\pdl\drivers/peripheral/scb/cy_scb_i2c.h **** 
 650:Generated_Source\PSoC6\pdl\drivers/peripheral/scb/cy_scb_i2c.h ****     /**
 651:Generated_Source\PSoC6\pdl\drivers/peripheral/scb/cy_scb_i2c.h ****     * The slave address mask is used to mask bits of the slave address during 
 652:Generated_Source\PSoC6\pdl\drivers/peripheral/scb/cy_scb_i2c.h ****     * the address match procedure (it is used only for the slave mode). 
 653:Generated_Source\PSoC6\pdl\drivers/peripheral/scb/cy_scb_i2c.h ****     * Bit 0 of the address mask corresponds to the 
 654:Generated_Source\PSoC6\pdl\drivers/peripheral/scb/cy_scb_i2c.h ****     * read/write direction bit and is always a do not care in the address match 
 655:Generated_Source\PSoC6\pdl\drivers/peripheral/scb/cy_scb_i2c.h ****     * therefore must be set 0. Bit value 0 - excludes bit from address 
 656:Generated_Source\PSoC6\pdl\drivers/peripheral/scb/cy_scb_i2c.h ****     * comparison. Bit value 1 - the bit needs to match with the corresponding 
 657:Generated_Source\PSoC6\pdl\drivers/peripheral/scb/cy_scb_i2c.h ****     * bit of the I2C slave address.
 658:Generated_Source\PSoC6\pdl\drivers/peripheral/scb/cy_scb_i2c.h ****     */
 659:Generated_Source\PSoC6\pdl\drivers/peripheral/scb/cy_scb_i2c.h ****     uint8_t slaveAddressMask;
 660:Generated_Source\PSoC6\pdl\drivers/peripheral/scb/cy_scb_i2c.h **** 
 661:Generated_Source\PSoC6\pdl\drivers/peripheral/scb/cy_scb_i2c.h ****     /**
 662:Generated_Source\PSoC6\pdl\drivers/peripheral/scb/cy_scb_i2c.h ****     * True - the slave address is accepted in the RX FIFO, false - the slave
 663:Generated_Source\PSoC6\pdl\drivers/peripheral/scb/cy_scb_i2c.h ****     * addresses are not accepted in the RX FIFO
 664:Generated_Source\PSoC6\pdl\drivers/peripheral/scb/cy_scb_i2c.h ****     */
 665:Generated_Source\PSoC6\pdl\drivers/peripheral/scb/cy_scb_i2c.h ****     bool acceptAddrInFifo;
 666:Generated_Source\PSoC6\pdl\drivers/peripheral/scb/cy_scb_i2c.h **** 
 667:Generated_Source\PSoC6\pdl\drivers/peripheral/scb/cy_scb_i2c.h ****     /**
 668:Generated_Source\PSoC6\pdl\drivers/peripheral/scb/cy_scb_i2c.h ****     * True - accept the general call address; false - ignore the general
 669:Generated_Source\PSoC6\pdl\drivers/peripheral/scb/cy_scb_i2c.h ****     * call address.
 670:Generated_Source\PSoC6\pdl\drivers/peripheral/scb/cy_scb_i2c.h ****     */
 671:Generated_Source\PSoC6\pdl\drivers/peripheral/scb/cy_scb_i2c.h ****     bool ackGeneralAddr;
 672:Generated_Source\PSoC6\pdl\drivers/peripheral/scb/cy_scb_i2c.h **** 
 673:Generated_Source\PSoC6\pdl\drivers/peripheral/scb/cy_scb_i2c.h ****     /**
 674:Generated_Source\PSoC6\pdl\drivers/peripheral/scb/cy_scb_i2c.h ****     * When set, the slave will wake the device from Deep Sleep on an address
 675:Generated_Source\PSoC6\pdl\drivers/peripheral/scb/cy_scb_i2c.h ****     * match (the device datasheet must be consulted to determine which SCBs
 676:Generated_Source\PSoC6\pdl\drivers/peripheral/scb/cy_scb_i2c.h ****     * support this mode)
 677:Generated_Source\PSoC6\pdl\drivers/peripheral/scb/cy_scb_i2c.h ****     */
 678:Generated_Source\PSoC6\pdl\drivers/peripheral/scb/cy_scb_i2c.h ****     bool enableWakeFromSleep;
 679:Generated_Source\PSoC6\pdl\drivers/peripheral/scb/cy_scb_i2c.h **** 
 680:Generated_Source\PSoC6\pdl\drivers/peripheral/scb/cy_scb_i2c.h ****     /**
 681:Generated_Source\PSoC6\pdl\drivers/peripheral/scb/cy_scb_i2c.h ****     * Enables a digital 3-tap median filter to be applied to the inputs
 682:Generated_Source\PSoC6\pdl\drivers/peripheral/scb/cy_scb_i2c.h ****     * of filter glitches on the lines.
 683:Generated_Source\PSoC6\pdl\drivers/peripheral/scb/cy_scb_i2c.h ****     */
 684:Generated_Source\PSoC6\pdl\drivers/peripheral/scb/cy_scb_i2c.h ****     bool enableDigitalFilter;
 685:Generated_Source\PSoC6\pdl\drivers/peripheral/scb/cy_scb_i2c.h **** 
 686:Generated_Source\PSoC6\pdl\drivers/peripheral/scb/cy_scb_i2c.h ****     /**
 687:Generated_Source\PSoC6\pdl\drivers/peripheral/scb/cy_scb_i2c.h ****     * The number of SCB clock cycles in the low phase of SCL. Only applicable 
 688:Generated_Source\PSoC6\pdl\drivers/peripheral/scb/cy_scb_i2c.h ****     * in master modes. The valid range is 7 to 16.
 689:Generated_Source\PSoC6\pdl\drivers/peripheral/scb/cy_scb_i2c.h ****     */
ARM GAS  C:\Users\guill\AppData\Local\Temp\cclz5xua.s 			page 33


 690:Generated_Source\PSoC6\pdl\drivers/peripheral/scb/cy_scb_i2c.h ****     uint32_t lowPhaseDutyCycle;
 691:Generated_Source\PSoC6\pdl\drivers/peripheral/scb/cy_scb_i2c.h **** 
 692:Generated_Source\PSoC6\pdl\drivers/peripheral/scb/cy_scb_i2c.h ****     /**
 693:Generated_Source\PSoC6\pdl\drivers/peripheral/scb/cy_scb_i2c.h ****     * The number of SCB clock cycles in the high phase of SCL. Only applicable 
 694:Generated_Source\PSoC6\pdl\drivers/peripheral/scb/cy_scb_i2c.h ****     * in master modes. The valid range is 5 to 16.
 695:Generated_Source\PSoC6\pdl\drivers/peripheral/scb/cy_scb_i2c.h ****     */
 696:Generated_Source\PSoC6\pdl\drivers/peripheral/scb/cy_scb_i2c.h ****     uint32_t highPhaseDutyCycle;
 697:Generated_Source\PSoC6\pdl\drivers/peripheral/scb/cy_scb_i2c.h **** 
 698:Generated_Source\PSoC6\pdl\drivers/peripheral/scb/cy_scb_i2c.h **** } cy_stc_scb_i2c_config_t;
 699:Generated_Source\PSoC6\pdl\drivers/peripheral/scb/cy_scb_i2c.h **** 
 700:Generated_Source\PSoC6\pdl\drivers/peripheral/scb/cy_scb_i2c.h **** /** I2C context structure.
 701:Generated_Source\PSoC6\pdl\drivers/peripheral/scb/cy_scb_i2c.h **** * All fields for the context structure are internal. Firmware never reads or
 702:Generated_Source\PSoC6\pdl\drivers/peripheral/scb/cy_scb_i2c.h **** * writes these values. Firmware allocates the structure and provides the
 703:Generated_Source\PSoC6\pdl\drivers/peripheral/scb/cy_scb_i2c.h **** * address of the structure to the driver in function calls. Firmware must
 704:Generated_Source\PSoC6\pdl\drivers/peripheral/scb/cy_scb_i2c.h **** * ensure that the defined instance of this structure remains in scope
 705:Generated_Source\PSoC6\pdl\drivers/peripheral/scb/cy_scb_i2c.h **** * while the drive is in use.
 706:Generated_Source\PSoC6\pdl\drivers/peripheral/scb/cy_scb_i2c.h **** */
 707:Generated_Source\PSoC6\pdl\drivers/peripheral/scb/cy_scb_i2c.h **** typedef struct cy_stc_scb_i2c_context
 708:Generated_Source\PSoC6\pdl\drivers/peripheral/scb/cy_scb_i2c.h **** {
 709:Generated_Source\PSoC6\pdl\drivers/peripheral/scb/cy_scb_i2c.h ****     /** \cond INTERNAL */
 710:Generated_Source\PSoC6\pdl\drivers/peripheral/scb/cy_scb_i2c.h ****     bool useRxFifo;             /**< Stores RX FIFO configuration */
 711:Generated_Source\PSoC6\pdl\drivers/peripheral/scb/cy_scb_i2c.h ****     bool useTxFifo;             /**< Stores TX FIFO configuration */
 712:Generated_Source\PSoC6\pdl\drivers/peripheral/scb/cy_scb_i2c.h **** 
 713:Generated_Source\PSoC6\pdl\drivers/peripheral/scb/cy_scb_i2c.h ****     volatile uint32_t state;    /**< The driver state */
 714:Generated_Source\PSoC6\pdl\drivers/peripheral/scb/cy_scb_i2c.h **** 
 715:Generated_Source\PSoC6\pdl\drivers/peripheral/scb/cy_scb_i2c.h ****     volatile uint32_t masterStatus; /**< The master status */
 716:Generated_Source\PSoC6\pdl\drivers/peripheral/scb/cy_scb_i2c.h ****     bool     masterPause;           /**< Stores how the master ends the transaction */
 717:Generated_Source\PSoC6\pdl\drivers/peripheral/scb/cy_scb_i2c.h ****     bool     masterRdDir;           /**< The direction of the master transaction */
 718:Generated_Source\PSoC6\pdl\drivers/peripheral/scb/cy_scb_i2c.h **** 
 719:Generated_Source\PSoC6\pdl\drivers/peripheral/scb/cy_scb_i2c.h ****     uint8_t  *masterBuffer;     /**< The pointer to the master buffer (either for a transmit or a r
 720:Generated_Source\PSoC6\pdl\drivers/peripheral/scb/cy_scb_i2c.h ****     uint32_t  masterBufferSize;         /**< The current master buffer size */
 721:Generated_Source\PSoC6\pdl\drivers/peripheral/scb/cy_scb_i2c.h ****     volatile uint32_t masterBufferIdx;  /**< The current location in the master buffer */
 722:Generated_Source\PSoC6\pdl\drivers/peripheral/scb/cy_scb_i2c.h ****     volatile uint32_t masterNumBytes;   /**< The number of bytes to send or receive */
 723:Generated_Source\PSoC6\pdl\drivers/peripheral/scb/cy_scb_i2c.h **** 
 724:Generated_Source\PSoC6\pdl\drivers/peripheral/scb/cy_scb_i2c.h ****     volatile uint32_t slaveStatus;       /**< The slave status */
 725:Generated_Source\PSoC6\pdl\drivers/peripheral/scb/cy_scb_i2c.h ****     volatile bool     slaveRdBufEmpty;   /**< Tracks slave Read buffer empty event */
 726:Generated_Source\PSoC6\pdl\drivers/peripheral/scb/cy_scb_i2c.h **** 
 727:Generated_Source\PSoC6\pdl\drivers/peripheral/scb/cy_scb_i2c.h ****     uint8_t  *slaveTxBuffer;             /**< The pointer to the slave transmit buffer (a master re
 728:Generated_Source\PSoC6\pdl\drivers/peripheral/scb/cy_scb_i2c.h ****     uint32_t  slaveTxBufferSize;         /**< The current slave transmit buffer size */
 729:Generated_Source\PSoC6\pdl\drivers/peripheral/scb/cy_scb_i2c.h ****     volatile uint32_t slaveTxBufferIdx;  /**< The current location in the slave buffer */
 730:Generated_Source\PSoC6\pdl\drivers/peripheral/scb/cy_scb_i2c.h ****     volatile uint32_t slaveTxBufferCnt;  /**< The number of transferred bytes */
 731:Generated_Source\PSoC6\pdl\drivers/peripheral/scb/cy_scb_i2c.h **** 
 732:Generated_Source\PSoC6\pdl\drivers/peripheral/scb/cy_scb_i2c.h ****     uint8_t  *slaveRxBuffer;             /**< The pointer to the slave receive buffer (a master wri
 733:Generated_Source\PSoC6\pdl\drivers/peripheral/scb/cy_scb_i2c.h ****     uint32_t  slaveRxBufferSize;         /**< The current slave receive buffer size */
 734:Generated_Source\PSoC6\pdl\drivers/peripheral/scb/cy_scb_i2c.h ****     volatile uint32_t slaveRxBufferIdx;  /**< The current location in the slave buffer */
 735:Generated_Source\PSoC6\pdl\drivers/peripheral/scb/cy_scb_i2c.h **** 
 736:Generated_Source\PSoC6\pdl\drivers/peripheral/scb/cy_scb_i2c.h ****     /**
 737:Generated_Source\PSoC6\pdl\drivers/peripheral/scb/cy_scb_i2c.h ****     * The pointer to an event callback that is called when any of
 738:Generated_Source\PSoC6\pdl\drivers/peripheral/scb/cy_scb_i2c.h ****     * \ref group_scb_i2c_macros_callback_events occurs
 739:Generated_Source\PSoC6\pdl\drivers/peripheral/scb/cy_scb_i2c.h ****     */
 740:Generated_Source\PSoC6\pdl\drivers/peripheral/scb/cy_scb_i2c.h ****     cy_cb_scb_i2c_handle_events_t cbEvents;
 741:Generated_Source\PSoC6\pdl\drivers/peripheral/scb/cy_scb_i2c.h **** 
 742:Generated_Source\PSoC6\pdl\drivers/peripheral/scb/cy_scb_i2c.h ****     /**
 743:Generated_Source\PSoC6\pdl\drivers/peripheral/scb/cy_scb_i2c.h ****     * The pointer to an address callback that is called when any of
 744:Generated_Source\PSoC6\pdl\drivers/peripheral/scb/cy_scb_i2c.h ****     * \ref group_scb_i2c_macros_addr_callback_events occurs (applicable only
 745:Generated_Source\PSoC6\pdl\drivers/peripheral/scb/cy_scb_i2c.h ****     * for the slave)
 746:Generated_Source\PSoC6\pdl\drivers/peripheral/scb/cy_scb_i2c.h ****     */
ARM GAS  C:\Users\guill\AppData\Local\Temp\cclz5xua.s 			page 34


 747:Generated_Source\PSoC6\pdl\drivers/peripheral/scb/cy_scb_i2c.h ****     cy_cb_scb_i2c_handle_addr_t   cbAddr;
 748:Generated_Source\PSoC6\pdl\drivers/peripheral/scb/cy_scb_i2c.h **** 
 749:Generated_Source\PSoC6\pdl\drivers/peripheral/scb/cy_scb_i2c.h ****     /** \endcond */
 750:Generated_Source\PSoC6\pdl\drivers/peripheral/scb/cy_scb_i2c.h **** } cy_stc_scb_i2c_context_t;
 751:Generated_Source\PSoC6\pdl\drivers/peripheral/scb/cy_scb_i2c.h **** 
 752:Generated_Source\PSoC6\pdl\drivers/peripheral/scb/cy_scb_i2c.h **** /** The I2C Master transfer structure */
 753:Generated_Source\PSoC6\pdl\drivers/peripheral/scb/cy_scb_i2c.h **** typedef struct cy_stc_scb_i2c_master_xfer_config
 754:Generated_Source\PSoC6\pdl\drivers/peripheral/scb/cy_scb_i2c.h **** {
 755:Generated_Source\PSoC6\pdl\drivers/peripheral/scb/cy_scb_i2c.h ****     /** The 7-bit right justified slave address to communicate with */
 756:Generated_Source\PSoC6\pdl\drivers/peripheral/scb/cy_scb_i2c.h ****     uint8_t  slaveAddress;
 757:Generated_Source\PSoC6\pdl\drivers/peripheral/scb/cy_scb_i2c.h **** 
 758:Generated_Source\PSoC6\pdl\drivers/peripheral/scb/cy_scb_i2c.h ****     /**
 759:Generated_Source\PSoC6\pdl\drivers/peripheral/scb/cy_scb_i2c.h ****     * The pointer to the buffer for data to read from the slave or 
 760:Generated_Source\PSoC6\pdl\drivers/peripheral/scb/cy_scb_i2c.h ****     * data to write into the slave
 761:Generated_Source\PSoC6\pdl\drivers/peripheral/scb/cy_scb_i2c.h ****     */
 762:Generated_Source\PSoC6\pdl\drivers/peripheral/scb/cy_scb_i2c.h ****     uint8_t  *buffer;
 763:Generated_Source\PSoC6\pdl\drivers/peripheral/scb/cy_scb_i2c.h **** 
 764:Generated_Source\PSoC6\pdl\drivers/peripheral/scb/cy_scb_i2c.h ****     /** The size of the buffer */
 765:Generated_Source\PSoC6\pdl\drivers/peripheral/scb/cy_scb_i2c.h ****     uint32_t bufferSize;
 766:Generated_Source\PSoC6\pdl\drivers/peripheral/scb/cy_scb_i2c.h **** 
 767:Generated_Source\PSoC6\pdl\drivers/peripheral/scb/cy_scb_i2c.h ****     /**
 768:Generated_Source\PSoC6\pdl\drivers/peripheral/scb/cy_scb_i2c.h ****     * The transfer operation is pending - the stop condition will not
 769:Generated_Source\PSoC6\pdl\drivers/peripheral/scb/cy_scb_i2c.h ****     * be generated. 
 770:Generated_Source\PSoC6\pdl\drivers/peripheral/scb/cy_scb_i2c.h ****     * A new transfer starts from start condition and ends 
 771:Generated_Source\PSoC6\pdl\drivers/peripheral/scb/cy_scb_i2c.h ****     * with or without stop condition. The stop condition releases I2C 
 772:Generated_Source\PSoC6\pdl\drivers/peripheral/scb/cy_scb_i2c.h ****     * bus from master control. When stop is not generated master keeps 
 773:Generated_Source\PSoC6\pdl\drivers/peripheral/scb/cy_scb_i2c.h ****     * bus control (transfer is pending) and can issue the next transfer 
 774:Generated_Source\PSoC6\pdl\drivers/peripheral/scb/cy_scb_i2c.h ****     * using restart condition instead of start. The I2C driver 
 775:Generated_Source\PSoC6\pdl\drivers/peripheral/scb/cy_scb_i2c.h ****     * automatically generates start or restart condition depends on 
 776:Generated_Source\PSoC6\pdl\drivers/peripheral/scb/cy_scb_i2c.h ****     * current state.
 777:Generated_Source\PSoC6\pdl\drivers/peripheral/scb/cy_scb_i2c.h ****     * Note if master lost arbitration during transfer it stops control 
 778:Generated_Source\PSoC6\pdl\drivers/peripheral/scb/cy_scb_i2c.h ****     * the bus and does not send/receive data or generate stop condition - the 
 779:Generated_Source\PSoC6\pdl\drivers/peripheral/scb/cy_scb_i2c.h ****     * transfer ends.
 780:Generated_Source\PSoC6\pdl\drivers/peripheral/scb/cy_scb_i2c.h ****     */
 781:Generated_Source\PSoC6\pdl\drivers/peripheral/scb/cy_scb_i2c.h ****     bool     xferPending;
 782:Generated_Source\PSoC6\pdl\drivers/peripheral/scb/cy_scb_i2c.h **** } cy_stc_scb_i2c_master_xfer_config_t;
 783:Generated_Source\PSoC6\pdl\drivers/peripheral/scb/cy_scb_i2c.h **** /** \} group_scb_i2c_data_structures */
 784:Generated_Source\PSoC6\pdl\drivers/peripheral/scb/cy_scb_i2c.h **** 
 785:Generated_Source\PSoC6\pdl\drivers/peripheral/scb/cy_scb_i2c.h **** 
 786:Generated_Source\PSoC6\pdl\drivers/peripheral/scb/cy_scb_i2c.h **** /*******************************************************************************
 787:Generated_Source\PSoC6\pdl\drivers/peripheral/scb/cy_scb_i2c.h **** *                            Function Prototypes
 788:Generated_Source\PSoC6\pdl\drivers/peripheral/scb/cy_scb_i2c.h **** *******************************************************************************/
 789:Generated_Source\PSoC6\pdl\drivers/peripheral/scb/cy_scb_i2c.h **** 
 790:Generated_Source\PSoC6\pdl\drivers/peripheral/scb/cy_scb_i2c.h **** /**
 791:Generated_Source\PSoC6\pdl\drivers/peripheral/scb/cy_scb_i2c.h **** * \addtogroup group_scb_i2c_general_functions
 792:Generated_Source\PSoC6\pdl\drivers/peripheral/scb/cy_scb_i2c.h **** * \{
 793:Generated_Source\PSoC6\pdl\drivers/peripheral/scb/cy_scb_i2c.h **** */
 794:Generated_Source\PSoC6\pdl\drivers/peripheral/scb/cy_scb_i2c.h **** cy_en_scb_i2c_status_t Cy_SCB_I2C_Init(CySCB_Type *base, cy_stc_scb_i2c_config_t const *config,
 795:Generated_Source\PSoC6\pdl\drivers/peripheral/scb/cy_scb_i2c.h ****                                        cy_stc_scb_i2c_context_t *context);
 796:Generated_Source\PSoC6\pdl\drivers/peripheral/scb/cy_scb_i2c.h **** void Cy_SCB_I2C_DeInit(CySCB_Type *base);
 797:Generated_Source\PSoC6\pdl\drivers/peripheral/scb/cy_scb_i2c.h **** __STATIC_INLINE void Cy_SCB_I2C_Enable(CySCB_Type *base);
 798:Generated_Source\PSoC6\pdl\drivers/peripheral/scb/cy_scb_i2c.h **** void Cy_SCB_I2C_Disable(CySCB_Type *base, cy_stc_scb_i2c_context_t *context);
 799:Generated_Source\PSoC6\pdl\drivers/peripheral/scb/cy_scb_i2c.h **** 
 800:Generated_Source\PSoC6\pdl\drivers/peripheral/scb/cy_scb_i2c.h **** uint32_t Cy_SCB_I2C_SetDataRate(CySCB_Type *base, uint32_t dataRateHz, uint32_t scbClockHz);
 801:Generated_Source\PSoC6\pdl\drivers/peripheral/scb/cy_scb_i2c.h **** uint32_t Cy_SCB_I2C_GetDataRate(CySCB_Type const *base, uint32_t scbClockHz);
 802:Generated_Source\PSoC6\pdl\drivers/peripheral/scb/cy_scb_i2c.h **** 
 803:Generated_Source\PSoC6\pdl\drivers/peripheral/scb/cy_scb_i2c.h **** __STATIC_INLINE void     Cy_SCB_I2C_SlaveSetAddress(CySCB_Type *base, uint8_t addr);
ARM GAS  C:\Users\guill\AppData\Local\Temp\cclz5xua.s 			page 35


 804:Generated_Source\PSoC6\pdl\drivers/peripheral/scb/cy_scb_i2c.h **** __STATIC_INLINE uint32_t Cy_SCB_I2C_SlaveGetAddress(CySCB_Type const *base);
 805:Generated_Source\PSoC6\pdl\drivers/peripheral/scb/cy_scb_i2c.h **** __STATIC_INLINE void     Cy_SCB_I2C_SlaveSetAddressMask(CySCB_Type *base, uint8_t addrMask);
 806:Generated_Source\PSoC6\pdl\drivers/peripheral/scb/cy_scb_i2c.h **** __STATIC_INLINE uint32_t Cy_SCB_I2C_SlaveGetAddressMask(CySCB_Type const *base);
 807:Generated_Source\PSoC6\pdl\drivers/peripheral/scb/cy_scb_i2c.h **** 
 808:Generated_Source\PSoC6\pdl\drivers/peripheral/scb/cy_scb_i2c.h **** __STATIC_INLINE bool Cy_SCB_I2C_IsBusBusy(CySCB_Type const *base);
 809:Generated_Source\PSoC6\pdl\drivers/peripheral/scb/cy_scb_i2c.h **** 
 810:Generated_Source\PSoC6\pdl\drivers/peripheral/scb/cy_scb_i2c.h **** __STATIC_INLINE void Cy_SCB_I2C_MasterSetLowPhaseDutyCycle (CySCB_Type *base, uint32_t clockCycles)
 811:Generated_Source\PSoC6\pdl\drivers/peripheral/scb/cy_scb_i2c.h **** __STATIC_INLINE void Cy_SCB_I2C_MasterSetHighPhaseDutyCycle(CySCB_Type *base, uint32_t clockCycles)
 812:Generated_Source\PSoC6\pdl\drivers/peripheral/scb/cy_scb_i2c.h **** /** \} group_scb_i2c_general_functions */
 813:Generated_Source\PSoC6\pdl\drivers/peripheral/scb/cy_scb_i2c.h **** 
 814:Generated_Source\PSoC6\pdl\drivers/peripheral/scb/cy_scb_i2c.h **** /**
 815:Generated_Source\PSoC6\pdl\drivers/peripheral/scb/cy_scb_i2c.h **** * \addtogroup group_scb_i2c_slave_functions
 816:Generated_Source\PSoC6\pdl\drivers/peripheral/scb/cy_scb_i2c.h **** * \{
 817:Generated_Source\PSoC6\pdl\drivers/peripheral/scb/cy_scb_i2c.h **** */
 818:Generated_Source\PSoC6\pdl\drivers/peripheral/scb/cy_scb_i2c.h **** void Cy_SCB_I2C_SlaveConfigReadBuf (CySCB_Type const *base, uint8_t *buffer, uint32_t size,
 819:Generated_Source\PSoC6\pdl\drivers/peripheral/scb/cy_scb_i2c.h ****                                     cy_stc_scb_i2c_context_t *context);
 820:Generated_Source\PSoC6\pdl\drivers/peripheral/scb/cy_scb_i2c.h **** void Cy_SCB_I2C_SlaveAbortRead     (CySCB_Type *base, cy_stc_scb_i2c_context_t *context);
 821:Generated_Source\PSoC6\pdl\drivers/peripheral/scb/cy_scb_i2c.h **** void Cy_SCB_I2C_SlaveConfigWriteBuf(CySCB_Type const *base, uint8_t *buffer, uint32_t size,
 822:Generated_Source\PSoC6\pdl\drivers/peripheral/scb/cy_scb_i2c.h ****                                     cy_stc_scb_i2c_context_t *context);
 823:Generated_Source\PSoC6\pdl\drivers/peripheral/scb/cy_scb_i2c.h **** void Cy_SCB_I2C_SlaveAbortWrite    (CySCB_Type *base, cy_stc_scb_i2c_context_t *context);
 824:Generated_Source\PSoC6\pdl\drivers/peripheral/scb/cy_scb_i2c.h **** 
 825:Generated_Source\PSoC6\pdl\drivers/peripheral/scb/cy_scb_i2c.h **** uint32_t Cy_SCB_I2C_SlaveGetStatus       (CySCB_Type const *base, cy_stc_scb_i2c_context_t const *c
 826:Generated_Source\PSoC6\pdl\drivers/peripheral/scb/cy_scb_i2c.h **** uint32_t Cy_SCB_I2C_SlaveClearReadStatus (CySCB_Type const *base, cy_stc_scb_i2c_context_t *context
 827:Generated_Source\PSoC6\pdl\drivers/peripheral/scb/cy_scb_i2c.h **** uint32_t Cy_SCB_I2C_SlaveClearWriteStatus(CySCB_Type const *base, cy_stc_scb_i2c_context_t *context
 828:Generated_Source\PSoC6\pdl\drivers/peripheral/scb/cy_scb_i2c.h **** 
 829:Generated_Source\PSoC6\pdl\drivers/peripheral/scb/cy_scb_i2c.h **** uint32_t Cy_SCB_I2C_SlaveGetReadTransferCount (CySCB_Type const *base, cy_stc_scb_i2c_context_t con
 830:Generated_Source\PSoC6\pdl\drivers/peripheral/scb/cy_scb_i2c.h **** uint32_t Cy_SCB_I2C_SlaveGetWriteTransferCount(CySCB_Type const *base, cy_stc_scb_i2c_context_t con
 831:Generated_Source\PSoC6\pdl\drivers/peripheral/scb/cy_scb_i2c.h **** /** \} group_scb_i2c_slave_functions */
 832:Generated_Source\PSoC6\pdl\drivers/peripheral/scb/cy_scb_i2c.h **** 
 833:Generated_Source\PSoC6\pdl\drivers/peripheral/scb/cy_scb_i2c.h **** /**
 834:Generated_Source\PSoC6\pdl\drivers/peripheral/scb/cy_scb_i2c.h **** * \addtogroup group_scb_i2c_master_high_level_functions
 835:Generated_Source\PSoC6\pdl\drivers/peripheral/scb/cy_scb_i2c.h **** * \{
 836:Generated_Source\PSoC6\pdl\drivers/peripheral/scb/cy_scb_i2c.h **** */
 837:Generated_Source\PSoC6\pdl\drivers/peripheral/scb/cy_scb_i2c.h **** cy_en_scb_i2c_status_t Cy_SCB_I2C_MasterWrite(CySCB_Type *base, cy_stc_scb_i2c_master_xfer_config_t
 838:Generated_Source\PSoC6\pdl\drivers/peripheral/scb/cy_scb_i2c.h ****                                               cy_stc_scb_i2c_context_t *context);
 839:Generated_Source\PSoC6\pdl\drivers/peripheral/scb/cy_scb_i2c.h **** void     Cy_SCB_I2C_MasterAbortWrite         (CySCB_Type *base, cy_stc_scb_i2c_context_t *context);
 840:Generated_Source\PSoC6\pdl\drivers/peripheral/scb/cy_scb_i2c.h **** cy_en_scb_i2c_status_t Cy_SCB_I2C_MasterRead (CySCB_Type *base, cy_stc_scb_i2c_master_xfer_config_t
 841:Generated_Source\PSoC6\pdl\drivers/peripheral/scb/cy_scb_i2c.h ****                                               cy_stc_scb_i2c_context_t *context);
 842:Generated_Source\PSoC6\pdl\drivers/peripheral/scb/cy_scb_i2c.h **** void     Cy_SCB_I2C_MasterAbortRead          (CySCB_Type *base, cy_stc_scb_i2c_context_t *context);
 843:Generated_Source\PSoC6\pdl\drivers/peripheral/scb/cy_scb_i2c.h **** uint32_t Cy_SCB_I2C_MasterGetStatus          (CySCB_Type const *base, cy_stc_scb_i2c_context_t cons
 844:Generated_Source\PSoC6\pdl\drivers/peripheral/scb/cy_scb_i2c.h **** uint32_t Cy_SCB_I2C_MasterGetTransferCount   (CySCB_Type const *base, cy_stc_scb_i2c_context_t cons
 845:Generated_Source\PSoC6\pdl\drivers/peripheral/scb/cy_scb_i2c.h **** /** \} group_scb_i2c_master_low_high_functions */
 846:Generated_Source\PSoC6\pdl\drivers/peripheral/scb/cy_scb_i2c.h **** 
 847:Generated_Source\PSoC6\pdl\drivers/peripheral/scb/cy_scb_i2c.h **** /**
 848:Generated_Source\PSoC6\pdl\drivers/peripheral/scb/cy_scb_i2c.h **** * \addtogroup group_scb_i2c_master_low_level_functions
 849:Generated_Source\PSoC6\pdl\drivers/peripheral/scb/cy_scb_i2c.h **** * \{
 850:Generated_Source\PSoC6\pdl\drivers/peripheral/scb/cy_scb_i2c.h **** */
 851:Generated_Source\PSoC6\pdl\drivers/peripheral/scb/cy_scb_i2c.h **** cy_en_scb_i2c_status_t Cy_SCB_I2C_MasterSendStart  (CySCB_Type *base, uint32_t address, cy_en_scb_i
 852:Generated_Source\PSoC6\pdl\drivers/peripheral/scb/cy_scb_i2c.h ****                                                     uint32_t timeoutMs, cy_stc_scb_i2c_context_t *c
 853:Generated_Source\PSoC6\pdl\drivers/peripheral/scb/cy_scb_i2c.h **** cy_en_scb_i2c_status_t Cy_SCB_I2C_MasterSendReStart(CySCB_Type *base, uint32_t address, cy_en_scb_i
 854:Generated_Source\PSoC6\pdl\drivers/peripheral/scb/cy_scb_i2c.h ****                                                     uint32_t timeoutMs, cy_stc_scb_i2c_context_t *c
 855:Generated_Source\PSoC6\pdl\drivers/peripheral/scb/cy_scb_i2c.h **** cy_en_scb_i2c_status_t Cy_SCB_I2C_MasterSendStop   (CySCB_Type *base,uint32_t timeoutMs, cy_stc_scb
 856:Generated_Source\PSoC6\pdl\drivers/peripheral/scb/cy_scb_i2c.h **** cy_en_scb_i2c_status_t Cy_SCB_I2C_MasterReadByte   (CySCB_Type *base, cy_en_scb_i2c_command_t ackNa
 857:Generated_Source\PSoC6\pdl\drivers/peripheral/scb/cy_scb_i2c.h ****                                                     uint32_t timeoutMs, cy_stc_scb_i2c_context_t *c
 858:Generated_Source\PSoC6\pdl\drivers/peripheral/scb/cy_scb_i2c.h **** cy_en_scb_i2c_status_t Cy_SCB_I2C_MasterWriteByte  (CySCB_Type *base, uint8_t byte, uint32_t timeou
 859:Generated_Source\PSoC6\pdl\drivers/peripheral/scb/cy_scb_i2c.h ****                                                     cy_stc_scb_i2c_context_t *context);
 860:Generated_Source\PSoC6\pdl\drivers/peripheral/scb/cy_scb_i2c.h **** /** \} group_scb_i2c_master_low_level_functions */
ARM GAS  C:\Users\guill\AppData\Local\Temp\cclz5xua.s 			page 36


 861:Generated_Source\PSoC6\pdl\drivers/peripheral/scb/cy_scb_i2c.h **** 
 862:Generated_Source\PSoC6\pdl\drivers/peripheral/scb/cy_scb_i2c.h **** /**
 863:Generated_Source\PSoC6\pdl\drivers/peripheral/scb/cy_scb_i2c.h **** * \addtogroup group_scb_i2c_interrupt_functions
 864:Generated_Source\PSoC6\pdl\drivers/peripheral/scb/cy_scb_i2c.h **** * \{
 865:Generated_Source\PSoC6\pdl\drivers/peripheral/scb/cy_scb_i2c.h **** */
 866:Generated_Source\PSoC6\pdl\drivers/peripheral/scb/cy_scb_i2c.h **** void Cy_SCB_I2C_Interrupt      (CySCB_Type *base, cy_stc_scb_i2c_context_t *context);
 867:Generated_Source\PSoC6\pdl\drivers/peripheral/scb/cy_scb_i2c.h **** void Cy_SCB_I2C_SlaveInterrupt (CySCB_Type *base, cy_stc_scb_i2c_context_t *context);
 868:Generated_Source\PSoC6\pdl\drivers/peripheral/scb/cy_scb_i2c.h **** void Cy_SCB_I2C_MasterInterrupt (CySCB_Type *base, cy_stc_scb_i2c_context_t *context);
 869:Generated_Source\PSoC6\pdl\drivers/peripheral/scb/cy_scb_i2c.h **** 
 870:Generated_Source\PSoC6\pdl\drivers/peripheral/scb/cy_scb_i2c.h **** __STATIC_INLINE void Cy_SCB_I2C_RegisterEventCallback(CySCB_Type const *base, cy_cb_scb_i2c_handle_
 871:Generated_Source\PSoC6\pdl\drivers/peripheral/scb/cy_scb_i2c.h ****                                                       cy_stc_scb_i2c_context_t *context);
 872:Generated_Source\PSoC6\pdl\drivers/peripheral/scb/cy_scb_i2c.h **** __STATIC_INLINE void Cy_SCB_I2C_RegisterAddrCallback (CySCB_Type const *base, cy_cb_scb_i2c_handle_
 873:Generated_Source\PSoC6\pdl\drivers/peripheral/scb/cy_scb_i2c.h ****                                                       cy_stc_scb_i2c_context_t *context);
 874:Generated_Source\PSoC6\pdl\drivers/peripheral/scb/cy_scb_i2c.h **** /** \} group_scb_i2c_interrupt_functions */
 875:Generated_Source\PSoC6\pdl\drivers/peripheral/scb/cy_scb_i2c.h **** 
 876:Generated_Source\PSoC6\pdl\drivers/peripheral/scb/cy_scb_i2c.h **** /**
 877:Generated_Source\PSoC6\pdl\drivers/peripheral/scb/cy_scb_i2c.h **** * \addtogroup group_scb_i2c_low_power_functions
 878:Generated_Source\PSoC6\pdl\drivers/peripheral/scb/cy_scb_i2c.h **** * \{
 879:Generated_Source\PSoC6\pdl\drivers/peripheral/scb/cy_scb_i2c.h **** */
 880:Generated_Source\PSoC6\pdl\drivers/peripheral/scb/cy_scb_i2c.h **** cy_en_syspm_status_t Cy_SCB_I2C_DeepSleepCallback(cy_stc_syspm_callback_params_t *callbackParams, c
 881:Generated_Source\PSoC6\pdl\drivers/peripheral/scb/cy_scb_i2c.h **** cy_en_syspm_status_t Cy_SCB_I2C_HibernateCallback(cy_stc_syspm_callback_params_t *callbackParams, c
 882:Generated_Source\PSoC6\pdl\drivers/peripheral/scb/cy_scb_i2c.h **** /** \} group_scb_i2c_low_power_functions */
 883:Generated_Source\PSoC6\pdl\drivers/peripheral/scb/cy_scb_i2c.h **** 
 884:Generated_Source\PSoC6\pdl\drivers/peripheral/scb/cy_scb_i2c.h **** 
 885:Generated_Source\PSoC6\pdl\drivers/peripheral/scb/cy_scb_i2c.h **** /*******************************************************************************
 886:Generated_Source\PSoC6\pdl\drivers/peripheral/scb/cy_scb_i2c.h **** *                               API Constants
 887:Generated_Source\PSoC6\pdl\drivers/peripheral/scb/cy_scb_i2c.h **** *******************************************************************************/
 888:Generated_Source\PSoC6\pdl\drivers/peripheral/scb/cy_scb_i2c.h **** 
 889:Generated_Source\PSoC6\pdl\drivers/peripheral/scb/cy_scb_i2c.h **** /**
 890:Generated_Source\PSoC6\pdl\drivers/peripheral/scb/cy_scb_i2c.h **** * \addtogroup group_scb_i2c_macros
 891:Generated_Source\PSoC6\pdl\drivers/peripheral/scb/cy_scb_i2c.h **** * \{
 892:Generated_Source\PSoC6\pdl\drivers/peripheral/scb/cy_scb_i2c.h **** */
 893:Generated_Source\PSoC6\pdl\drivers/peripheral/scb/cy_scb_i2c.h **** 
 894:Generated_Source\PSoC6\pdl\drivers/peripheral/scb/cy_scb_i2c.h **** /**
 895:Generated_Source\PSoC6\pdl\drivers/peripheral/scb/cy_scb_i2c.h **** * \defgroup group_scb_i2c_macros_slave_status I2C Slave Status
 896:Generated_Source\PSoC6\pdl\drivers/peripheral/scb/cy_scb_i2c.h **** * Macros to check current I2C slave status returned by 
 897:Generated_Source\PSoC6\pdl\drivers/peripheral/scb/cy_scb_i2c.h **** * \ref Cy_SCB_I2C_SlaveGetStatus function. Each I2C slave status is encoded 
 898:Generated_Source\PSoC6\pdl\drivers/peripheral/scb/cy_scb_i2c.h **** * in a separate bit, therefore multiple bits may be set to indicate the 
 899:Generated_Source\PSoC6\pdl\drivers/peripheral/scb/cy_scb_i2c.h **** * current status.
 900:Generated_Source\PSoC6\pdl\drivers/peripheral/scb/cy_scb_i2c.h **** * \{
 901:Generated_Source\PSoC6\pdl\drivers/peripheral/scb/cy_scb_i2c.h **** */
 902:Generated_Source\PSoC6\pdl\drivers/peripheral/scb/cy_scb_i2c.h **** /** There is a read transaction in progress */
 903:Generated_Source\PSoC6\pdl\drivers/peripheral/scb/cy_scb_i2c.h **** #define CY_SCB_I2C_SLAVE_RD_BUSY       (0x00000001UL)
 904:Generated_Source\PSoC6\pdl\drivers/peripheral/scb/cy_scb_i2c.h **** 
 905:Generated_Source\PSoC6\pdl\drivers/peripheral/scb/cy_scb_i2c.h **** /**
 906:Generated_Source\PSoC6\pdl\drivers/peripheral/scb/cy_scb_i2c.h **** * All read data has been loaded into the TX FIFO, applicable only if
 907:Generated_Source\PSoC6\pdl\drivers/peripheral/scb/cy_scb_i2c.h **** * the TX FIFO is used
 908:Generated_Source\PSoC6\pdl\drivers/peripheral/scb/cy_scb_i2c.h **** */
 909:Generated_Source\PSoC6\pdl\drivers/peripheral/scb/cy_scb_i2c.h **** #define CY_SCB_I2C_SLAVE_RD_IN_FIFO    (0x00000002UL)
 910:Generated_Source\PSoC6\pdl\drivers/peripheral/scb/cy_scb_i2c.h **** 
 911:Generated_Source\PSoC6\pdl\drivers/peripheral/scb/cy_scb_i2c.h **** /**
 912:Generated_Source\PSoC6\pdl\drivers/peripheral/scb/cy_scb_i2c.h **** * The master has finished reading data from the slave
 913:Generated_Source\PSoC6\pdl\drivers/peripheral/scb/cy_scb_i2c.h **** */
 914:Generated_Source\PSoC6\pdl\drivers/peripheral/scb/cy_scb_i2c.h **** #define CY_SCB_I2C_SLAVE_RD_CMPLT      (0x00000004UL)
 915:Generated_Source\PSoC6\pdl\drivers/peripheral/scb/cy_scb_i2c.h **** 
 916:Generated_Source\PSoC6\pdl\drivers/peripheral/scb/cy_scb_i2c.h **** /**
 917:Generated_Source\PSoC6\pdl\drivers/peripheral/scb/cy_scb_i2c.h **** * Set when the master tried to read more bytes than available in the configured
ARM GAS  C:\Users\guill\AppData\Local\Temp\cclz5xua.s 			page 37


 918:Generated_Source\PSoC6\pdl\drivers/peripheral/scb/cy_scb_i2c.h **** * read buffer. The slave is not able to finish the transaction and sends
 919:Generated_Source\PSoC6\pdl\drivers/peripheral/scb/cy_scb_i2c.h **** * \ref CY_SCB_I2C_DEFAULT_TX.
 920:Generated_Source\PSoC6\pdl\drivers/peripheral/scb/cy_scb_i2c.h **** */
 921:Generated_Source\PSoC6\pdl\drivers/peripheral/scb/cy_scb_i2c.h **** #define CY_SCB_I2C_SLAVE_RD_UNDRFL     (0x00000008UL)
 922:Generated_Source\PSoC6\pdl\drivers/peripheral/scb/cy_scb_i2c.h **** 
 923:Generated_Source\PSoC6\pdl\drivers/peripheral/scb/cy_scb_i2c.h **** /** There is a write transaction in progress */
 924:Generated_Source\PSoC6\pdl\drivers/peripheral/scb/cy_scb_i2c.h **** #define CY_SCB_I2C_SLAVE_WR_BUSY       (0x00000010UL)
 925:Generated_Source\PSoC6\pdl\drivers/peripheral/scb/cy_scb_i2c.h **** 
 926:Generated_Source\PSoC6\pdl\drivers/peripheral/scb/cy_scb_i2c.h **** /**
 927:Generated_Source\PSoC6\pdl\drivers/peripheral/scb/cy_scb_i2c.h **** * The master has finished writing data into the slave
 928:Generated_Source\PSoC6\pdl\drivers/peripheral/scb/cy_scb_i2c.h **** */
 929:Generated_Source\PSoC6\pdl\drivers/peripheral/scb/cy_scb_i2c.h **** #define CY_SCB_I2C_SLAVE_WR_CMPLT      (0x00000020UL)
 930:Generated_Source\PSoC6\pdl\drivers/peripheral/scb/cy_scb_i2c.h **** 
 931:Generated_Source\PSoC6\pdl\drivers/peripheral/scb/cy_scb_i2c.h **** /**
 932:Generated_Source\PSoC6\pdl\drivers/peripheral/scb/cy_scb_i2c.h **** * The master attempted to write more bytes than space available in the
 933:Generated_Source\PSoC6\pdl\drivers/peripheral/scb/cy_scb_i2c.h **** * configured Write buffer. Note that all subsequent bytes are dropped.
 934:Generated_Source\PSoC6\pdl\drivers/peripheral/scb/cy_scb_i2c.h **** */
 935:Generated_Source\PSoC6\pdl\drivers/peripheral/scb/cy_scb_i2c.h **** #define CY_SCB_I2C_SLAVE_WR_OVRFL      (0x00000040UL)
 936:Generated_Source\PSoC6\pdl\drivers/peripheral/scb/cy_scb_i2c.h **** 
 937:Generated_Source\PSoC6\pdl\drivers/peripheral/scb/cy_scb_i2c.h **** /** The slave lost arbitration, and the transaction was aborted */
 938:Generated_Source\PSoC6\pdl\drivers/peripheral/scb/cy_scb_i2c.h **** #define CY_SCB_I2C_SLAVE_ARB_LOST      (0x00000080UL)
 939:Generated_Source\PSoC6\pdl\drivers/peripheral/scb/cy_scb_i2c.h **** 
 940:Generated_Source\PSoC6\pdl\drivers/peripheral/scb/cy_scb_i2c.h **** /**
 941:Generated_Source\PSoC6\pdl\drivers/peripheral/scb/cy_scb_i2c.h **** * The slave captured an error on the bus during a master transaction (source
 942:Generated_Source\PSoC6\pdl\drivers/peripheral/scb/cy_scb_i2c.h **** * of error is misplaced Start or Stop).
 943:Generated_Source\PSoC6\pdl\drivers/peripheral/scb/cy_scb_i2c.h **** */
 944:Generated_Source\PSoC6\pdl\drivers/peripheral/scb/cy_scb_i2c.h **** #define CY_SCB_I2C_SLAVE_BUS_ERR       (0x00000100UL)
 945:Generated_Source\PSoC6\pdl\drivers/peripheral/scb/cy_scb_i2c.h **** /** \} group_scb_i2c_macros_slave_status */
 946:Generated_Source\PSoC6\pdl\drivers/peripheral/scb/cy_scb_i2c.h **** 
 947:Generated_Source\PSoC6\pdl\drivers/peripheral/scb/cy_scb_i2c.h **** /**
 948:Generated_Source\PSoC6\pdl\drivers/peripheral/scb/cy_scb_i2c.h **** * \defgroup group_scb_i2c_macros_master_status I2C Master Status
 949:Generated_Source\PSoC6\pdl\drivers/peripheral/scb/cy_scb_i2c.h **** * Macros to check current I2C master status returned by 
 950:Generated_Source\PSoC6\pdl\drivers/peripheral/scb/cy_scb_i2c.h **** * \ref Cy_SCB_I2C_MasterGetStatus function. Each I2C master status is encoded 
 951:Generated_Source\PSoC6\pdl\drivers/peripheral/scb/cy_scb_i2c.h **** * in a separate bit, therefore multiple bits may be set to indicate the 
 952:Generated_Source\PSoC6\pdl\drivers/peripheral/scb/cy_scb_i2c.h **** * current status.
 953:Generated_Source\PSoC6\pdl\drivers/peripheral/scb/cy_scb_i2c.h **** * \{
 954:Generated_Source\PSoC6\pdl\drivers/peripheral/scb/cy_scb_i2c.h **** */
 955:Generated_Source\PSoC6\pdl\drivers/peripheral/scb/cy_scb_i2c.h **** 
 956:Generated_Source\PSoC6\pdl\drivers/peripheral/scb/cy_scb_i2c.h **** /**
 957:Generated_Source\PSoC6\pdl\drivers/peripheral/scb/cy_scb_i2c.h **** * The master is busy executing operation started by \ref Cy_SCB_I2C_MasterRead
 958:Generated_Source\PSoC6\pdl\drivers/peripheral/scb/cy_scb_i2c.h **** * or \ref Cy_SCB_I2C_MasterWrite
 959:Generated_Source\PSoC6\pdl\drivers/peripheral/scb/cy_scb_i2c.h **** */
 960:Generated_Source\PSoC6\pdl\drivers/peripheral/scb/cy_scb_i2c.h **** #define CY_SCB_I2C_MASTER_BUSY         (0x00010000UL)
 961:Generated_Source\PSoC6\pdl\drivers/peripheral/scb/cy_scb_i2c.h **** 
 962:Generated_Source\PSoC6\pdl\drivers/peripheral/scb/cy_scb_i2c.h **** /**
 963:Generated_Source\PSoC6\pdl\drivers/peripheral/scb/cy_scb_i2c.h **** * All Write data has been loaded into the TX FIFO
 964:Generated_Source\PSoC6\pdl\drivers/peripheral/scb/cy_scb_i2c.h **** */
 965:Generated_Source\PSoC6\pdl\drivers/peripheral/scb/cy_scb_i2c.h **** #define CY_SCB_I2C_MASTER_WR_IN_FIFO   (0x00020000UL)
 966:Generated_Source\PSoC6\pdl\drivers/peripheral/scb/cy_scb_i2c.h **** 
 967:Generated_Source\PSoC6\pdl\drivers/peripheral/scb/cy_scb_i2c.h **** /** The slave NACKed the address. */
 968:Generated_Source\PSoC6\pdl\drivers/peripheral/scb/cy_scb_i2c.h **** #define CY_SCB_I2C_MASTER_ADDR_NAK     (0x00100000UL)
 969:Generated_Source\PSoC6\pdl\drivers/peripheral/scb/cy_scb_i2c.h **** 
 970:Generated_Source\PSoC6\pdl\drivers/peripheral/scb/cy_scb_i2c.h **** /** Write completed before all bytes were sent (last byte was NAKed)
 971:Generated_Source\PSoC6\pdl\drivers/peripheral/scb/cy_scb_i2c.h **** */
 972:Generated_Source\PSoC6\pdl\drivers/peripheral/scb/cy_scb_i2c.h **** #define CY_SCB_I2C_MASTER_DATA_NAK     (0x00200000UL)
 973:Generated_Source\PSoC6\pdl\drivers/peripheral/scb/cy_scb_i2c.h **** 
 974:Generated_Source\PSoC6\pdl\drivers/peripheral/scb/cy_scb_i2c.h **** /** The master lost arbitration, the transaction was aborted */
ARM GAS  C:\Users\guill\AppData\Local\Temp\cclz5xua.s 			page 38


 975:Generated_Source\PSoC6\pdl\drivers/peripheral/scb/cy_scb_i2c.h **** #define CY_SCB_I2C_MASTER_ARB_LOST     (0x00400000UL)
 976:Generated_Source\PSoC6\pdl\drivers/peripheral/scb/cy_scb_i2c.h **** 
 977:Generated_Source\PSoC6\pdl\drivers/peripheral/scb/cy_scb_i2c.h **** /**
 978:Generated_Source\PSoC6\pdl\drivers/peripheral/scb/cy_scb_i2c.h **** * The master detected an erroneous start or stop, the transaction was aborted
 979:Generated_Source\PSoC6\pdl\drivers/peripheral/scb/cy_scb_i2c.h **** */
 980:Generated_Source\PSoC6\pdl\drivers/peripheral/scb/cy_scb_i2c.h **** #define CY_SCB_I2C_MASTER_BUS_ERR      (0x00800000UL)
 981:Generated_Source\PSoC6\pdl\drivers/peripheral/scb/cy_scb_i2c.h **** 
 982:Generated_Source\PSoC6\pdl\drivers/peripheral/scb/cy_scb_i2c.h **** /**
 983:Generated_Source\PSoC6\pdl\drivers/peripheral/scb/cy_scb_i2c.h **** * The master transaction was aborted and the slave transaction is on-going
 984:Generated_Source\PSoC6\pdl\drivers/peripheral/scb/cy_scb_i2c.h **** * because the slave was addressed before the master generated a start
 985:Generated_Source\PSoC6\pdl\drivers/peripheral/scb/cy_scb_i2c.h **** */
 986:Generated_Source\PSoC6\pdl\drivers/peripheral/scb/cy_scb_i2c.h **** #define CY_SCB_I2C_MASTER_ABORT_START  (0x01000000UL)
 987:Generated_Source\PSoC6\pdl\drivers/peripheral/scb/cy_scb_i2c.h **** /** \} group_scb_i2c_macros_master_status */
 988:Generated_Source\PSoC6\pdl\drivers/peripheral/scb/cy_scb_i2c.h **** 
 989:Generated_Source\PSoC6\pdl\drivers/peripheral/scb/cy_scb_i2c.h **** /**
 990:Generated_Source\PSoC6\pdl\drivers/peripheral/scb/cy_scb_i2c.h **** * \defgroup group_scb_i2c_macros_callback_events I2C Callback Events
 991:Generated_Source\PSoC6\pdl\drivers/peripheral/scb/cy_scb_i2c.h **** * \{
 992:Generated_Source\PSoC6\pdl\drivers/peripheral/scb/cy_scb_i2c.h **** * Macros to check I2C events passed by \ref cy_cb_scb_i2c_handle_events_t callback.
 993:Generated_Source\PSoC6\pdl\drivers/peripheral/scb/cy_scb_i2c.h **** * Each event is encoded in a separate bit, and therefore it is possible to
 994:Generated_Source\PSoC6\pdl\drivers/peripheral/scb/cy_scb_i2c.h **** * notify about multiple events.
 995:Generated_Source\PSoC6\pdl\drivers/peripheral/scb/cy_scb_i2c.h **** */
 996:Generated_Source\PSoC6\pdl\drivers/peripheral/scb/cy_scb_i2c.h **** /**
 997:Generated_Source\PSoC6\pdl\drivers/peripheral/scb/cy_scb_i2c.h **** * Indicates that the slave was addressed and the master wants to read data.
 998:Generated_Source\PSoC6\pdl\drivers/peripheral/scb/cy_scb_i2c.h **** * This event can be used to configure the slave Read buffer.
 999:Generated_Source\PSoC6\pdl\drivers/peripheral/scb/cy_scb_i2c.h **** */
1000:Generated_Source\PSoC6\pdl\drivers/peripheral/scb/cy_scb_i2c.h **** #define CY_SCB_I2C_SLAVE_READ_EVENT            (0x00000001UL)
1001:Generated_Source\PSoC6\pdl\drivers/peripheral/scb/cy_scb_i2c.h **** 
1002:Generated_Source\PSoC6\pdl\drivers/peripheral/scb/cy_scb_i2c.h **** /**
1003:Generated_Source\PSoC6\pdl\drivers/peripheral/scb/cy_scb_i2c.h **** * Indicates that the slave was addressed and the master wants to write data.
1004:Generated_Source\PSoC6\pdl\drivers/peripheral/scb/cy_scb_i2c.h **** * This event can be used to configure the slave Write buffer.
1005:Generated_Source\PSoC6\pdl\drivers/peripheral/scb/cy_scb_i2c.h **** */
1006:Generated_Source\PSoC6\pdl\drivers/peripheral/scb/cy_scb_i2c.h **** #define CY_SCB_I2C_SLAVE_WRITE_EVENT           (0x00000002UL)
1007:Generated_Source\PSoC6\pdl\drivers/peripheral/scb/cy_scb_i2c.h **** 
1008:Generated_Source\PSoC6\pdl\drivers/peripheral/scb/cy_scb_i2c.h **** /**
1009:Generated_Source\PSoC6\pdl\drivers/peripheral/scb/cy_scb_i2c.h **** * All slave data from the configured Read buffer has been loaded into the
1010:Generated_Source\PSoC6\pdl\drivers/peripheral/scb/cy_scb_i2c.h **** * TX FIFO. The content of the Read buffer can be modified. Applicable only
1011:Generated_Source\PSoC6\pdl\drivers/peripheral/scb/cy_scb_i2c.h **** * if the TX FIFO is used.
1012:Generated_Source\PSoC6\pdl\drivers/peripheral/scb/cy_scb_i2c.h **** */
1013:Generated_Source\PSoC6\pdl\drivers/peripheral/scb/cy_scb_i2c.h **** #define CY_SCB_I2C_SLAVE_RD_IN_FIFO_EVENT      (0x00000004UL)
1014:Generated_Source\PSoC6\pdl\drivers/peripheral/scb/cy_scb_i2c.h **** 
1015:Generated_Source\PSoC6\pdl\drivers/peripheral/scb/cy_scb_i2c.h **** /**
1016:Generated_Source\PSoC6\pdl\drivers/peripheral/scb/cy_scb_i2c.h **** * The master has read all data out of the configured Read buffer.
1017:Generated_Source\PSoC6\pdl\drivers/peripheral/scb/cy_scb_i2c.h **** * This event can be used to configure the next Read buffer. If the buffer
1018:Generated_Source\PSoC6\pdl\drivers/peripheral/scb/cy_scb_i2c.h **** * remains empty, the \ref CY_SCB_I2C_DEFAULT_TX bytes are returned to the master.
1019:Generated_Source\PSoC6\pdl\drivers/peripheral/scb/cy_scb_i2c.h **** */
1020:Generated_Source\PSoC6\pdl\drivers/peripheral/scb/cy_scb_i2c.h **** #define CY_SCB_I2C_SLAVE_RD_BUF_EMPTY_EVENT    (0x00000008UL)
1021:Generated_Source\PSoC6\pdl\drivers/peripheral/scb/cy_scb_i2c.h **** 
1022:Generated_Source\PSoC6\pdl\drivers/peripheral/scb/cy_scb_i2c.h **** /**
1023:Generated_Source\PSoC6\pdl\drivers/peripheral/scb/cy_scb_i2c.h **** * Indicates the master completed reading from the slave (set by the master NAK
1024:Generated_Source\PSoC6\pdl\drivers/peripheral/scb/cy_scb_i2c.h **** * or Stop)
1025:Generated_Source\PSoC6\pdl\drivers/peripheral/scb/cy_scb_i2c.h **** */
1026:Generated_Source\PSoC6\pdl\drivers/peripheral/scb/cy_scb_i2c.h **** #define CY_SCB_I2C_SLAVE_RD_CMPLT_EVENT        (0x00000010UL)
1027:Generated_Source\PSoC6\pdl\drivers/peripheral/scb/cy_scb_i2c.h **** 
1028:Generated_Source\PSoC6\pdl\drivers/peripheral/scb/cy_scb_i2c.h **** /**
1029:Generated_Source\PSoC6\pdl\drivers/peripheral/scb/cy_scb_i2c.h **** * Indicates the master completed writing to the slave (set by the master Stop
1030:Generated_Source\PSoC6\pdl\drivers/peripheral/scb/cy_scb_i2c.h **** * or Restart)
1031:Generated_Source\PSoC6\pdl\drivers/peripheral/scb/cy_scb_i2c.h **** */
ARM GAS  C:\Users\guill\AppData\Local\Temp\cclz5xua.s 			page 39


1032:Generated_Source\PSoC6\pdl\drivers/peripheral/scb/cy_scb_i2c.h **** #define CY_SCB_I2C_SLAVE_WR_CMPLT_EVENT        (0x00000020UL)
1033:Generated_Source\PSoC6\pdl\drivers/peripheral/scb/cy_scb_i2c.h **** 
1034:Generated_Source\PSoC6\pdl\drivers/peripheral/scb/cy_scb_i2c.h **** /**
1035:Generated_Source\PSoC6\pdl\drivers/peripheral/scb/cy_scb_i2c.h **** * Indicates the I2C hardware detected an error.
1036:Generated_Source\PSoC6\pdl\drivers/peripheral/scb/cy_scb_i2c.h **** * Check \ref Cy_SCB_I2C_SlaveGetStatus to determine the source of the error.
1037:Generated_Source\PSoC6\pdl\drivers/peripheral/scb/cy_scb_i2c.h **** */
1038:Generated_Source\PSoC6\pdl\drivers/peripheral/scb/cy_scb_i2c.h **** #define CY_SCB_I2C_SLAVE_ERR_EVENT             (0x00000040UL)
1039:Generated_Source\PSoC6\pdl\drivers/peripheral/scb/cy_scb_i2c.h **** 
1040:Generated_Source\PSoC6\pdl\drivers/peripheral/scb/cy_scb_i2c.h **** /**
1041:Generated_Source\PSoC6\pdl\drivers/peripheral/scb/cy_scb_i2c.h **** * All data specified by \ref Cy_SCB_I2C_MasterWrite has been loaded
1042:Generated_Source\PSoC6\pdl\drivers/peripheral/scb/cy_scb_i2c.h **** * into the TX FIFO. The content of the master write buffer can be modified.
1043:Generated_Source\PSoC6\pdl\drivers/peripheral/scb/cy_scb_i2c.h **** * Applicable only if the TX FIFO is used.
1044:Generated_Source\PSoC6\pdl\drivers/peripheral/scb/cy_scb_i2c.h **** */
1045:Generated_Source\PSoC6\pdl\drivers/peripheral/scb/cy_scb_i2c.h **** #define CY_SCB_I2C_MASTER_WR_IN_FIFO_EVENT     (0x00010000UL)
1046:Generated_Source\PSoC6\pdl\drivers/peripheral/scb/cy_scb_i2c.h **** 
1047:Generated_Source\PSoC6\pdl\drivers/peripheral/scb/cy_scb_i2c.h **** /** The master write started by \ref Cy_SCB_I2C_MasterWrite is complete */
1048:Generated_Source\PSoC6\pdl\drivers/peripheral/scb/cy_scb_i2c.h **** #define CY_SCB_I2C_MASTER_WR_CMPLT_EVENT       (0x00020000UL)
1049:Generated_Source\PSoC6\pdl\drivers/peripheral/scb/cy_scb_i2c.h **** 
1050:Generated_Source\PSoC6\pdl\drivers/peripheral/scb/cy_scb_i2c.h **** /** The master read started by \ref Cy_SCB_I2C_MasterRead is complete */
1051:Generated_Source\PSoC6\pdl\drivers/peripheral/scb/cy_scb_i2c.h **** #define CY_SCB_I2C_MASTER_RD_CMPLT_EVENT       (0x00040000UL)
1052:Generated_Source\PSoC6\pdl\drivers/peripheral/scb/cy_scb_i2c.h **** 
1053:Generated_Source\PSoC6\pdl\drivers/peripheral/scb/cy_scb_i2c.h **** /**
1054:Generated_Source\PSoC6\pdl\drivers/peripheral/scb/cy_scb_i2c.h **** * Indicates the I2C hardware has detected an error. It occurs together with
1055:Generated_Source\PSoC6\pdl\drivers/peripheral/scb/cy_scb_i2c.h **** * \ref CY_SCB_I2C_MASTER_RD_CMPLT_EVENT or \ref CY_SCB_I2C_MASTER_WR_CMPLT_EVENT
1056:Generated_Source\PSoC6\pdl\drivers/peripheral/scb/cy_scb_i2c.h **** * depends on the direction of the transfer.
1057:Generated_Source\PSoC6\pdl\drivers/peripheral/scb/cy_scb_i2c.h **** * Check \ref Cy_SCB_I2C_MasterGetStatus to determine the source of the error.
1058:Generated_Source\PSoC6\pdl\drivers/peripheral/scb/cy_scb_i2c.h **** */
1059:Generated_Source\PSoC6\pdl\drivers/peripheral/scb/cy_scb_i2c.h **** #define CY_SCB_I2C_MASTER_ERR_EVENT            (0x00080000UL)
1060:Generated_Source\PSoC6\pdl\drivers/peripheral/scb/cy_scb_i2c.h **** /** \} group_scb_i2c_macros_callback_events */
1061:Generated_Source\PSoC6\pdl\drivers/peripheral/scb/cy_scb_i2c.h **** 
1062:Generated_Source\PSoC6\pdl\drivers/peripheral/scb/cy_scb_i2c.h **** /**
1063:Generated_Source\PSoC6\pdl\drivers/peripheral/scb/cy_scb_i2c.h **** * \defgroup group_scb_i2c_macros_addr_callback_events I2C Address Callback Events
1064:Generated_Source\PSoC6\pdl\drivers/peripheral/scb/cy_scb_i2c.h **** * Macros to check I2C address events passed by \ref cy_cb_scb_i2c_handle_addr_t callback.
1065:Generated_Source\PSoC6\pdl\drivers/peripheral/scb/cy_scb_i2c.h **** * Each event is encoded in a separate bit and therefore it is possible to
1066:Generated_Source\PSoC6\pdl\drivers/peripheral/scb/cy_scb_i2c.h **** * notify about multiple events.
1067:Generated_Source\PSoC6\pdl\drivers/peripheral/scb/cy_scb_i2c.h **** * \{
1068:Generated_Source\PSoC6\pdl\drivers/peripheral/scb/cy_scb_i2c.h **** */
1069:Generated_Source\PSoC6\pdl\drivers/peripheral/scb/cy_scb_i2c.h **** /**
1070:Generated_Source\PSoC6\pdl\drivers/peripheral/scb/cy_scb_i2c.h **** * Indicates the slave was addressed by the general call address
1071:Generated_Source\PSoC6\pdl\drivers/peripheral/scb/cy_scb_i2c.h **** */
1072:Generated_Source\PSoC6\pdl\drivers/peripheral/scb/cy_scb_i2c.h **** #define CY_SCB_I2C_GENERAL_CALL_EVENT      (0x01UL)
1073:Generated_Source\PSoC6\pdl\drivers/peripheral/scb/cy_scb_i2c.h **** 
1074:Generated_Source\PSoC6\pdl\drivers/peripheral/scb/cy_scb_i2c.h **** /**
1075:Generated_Source\PSoC6\pdl\drivers/peripheral/scb/cy_scb_i2c.h **** * The slave address is in the RX FIFO.
1076:Generated_Source\PSoC6\pdl\drivers/peripheral/scb/cy_scb_i2c.h **** * Note that the address must be read from the RX FIFO using the
1077:Generated_Source\PSoC6\pdl\drivers/peripheral/scb/cy_scb_i2c.h **** * \ref Cy_SCB_ReadRxFifo function.
1078:Generated_Source\PSoC6\pdl\drivers/peripheral/scb/cy_scb_i2c.h **** */
1079:Generated_Source\PSoC6\pdl\drivers/peripheral/scb/cy_scb_i2c.h **** #define CY_SCB_I2C_ADDR_IN_FIFO_EVENT      (0x02UL)
1080:Generated_Source\PSoC6\pdl\drivers/peripheral/scb/cy_scb_i2c.h **** /** \} group_scb_i2c_macros_addr_callback_events */
1081:Generated_Source\PSoC6\pdl\drivers/peripheral/scb/cy_scb_i2c.h **** 
1082:Generated_Source\PSoC6\pdl\drivers/peripheral/scb/cy_scb_i2c.h **** /**
1083:Generated_Source\PSoC6\pdl\drivers/peripheral/scb/cy_scb_i2c.h **** * This value is returned by the slave when there is no data in the
1084:Generated_Source\PSoC6\pdl\drivers/peripheral/scb/cy_scb_i2c.h **** * Read buffer
1085:Generated_Source\PSoC6\pdl\drivers/peripheral/scb/cy_scb_i2c.h **** */
1086:Generated_Source\PSoC6\pdl\drivers/peripheral/scb/cy_scb_i2c.h **** #define CY_SCB_I2C_DEFAULT_TX  (0xFFUL)
1087:Generated_Source\PSoC6\pdl\drivers/peripheral/scb/cy_scb_i2c.h **** 
1088:Generated_Source\PSoC6\pdl\drivers/peripheral/scb/cy_scb_i2c.h **** 
ARM GAS  C:\Users\guill\AppData\Local\Temp\cclz5xua.s 			page 40


1089:Generated_Source\PSoC6\pdl\drivers/peripheral/scb/cy_scb_i2c.h **** /*******************************************************************************
1090:Generated_Source\PSoC6\pdl\drivers/peripheral/scb/cy_scb_i2c.h **** *                          Internal Constants
1091:Generated_Source\PSoC6\pdl\drivers/peripheral/scb/cy_scb_i2c.h **** *******************************************************************************/
1092:Generated_Source\PSoC6\pdl\drivers/peripheral/scb/cy_scb_i2c.h **** 
1093:Generated_Source\PSoC6\pdl\drivers/peripheral/scb/cy_scb_i2c.h **** /** \cond INTERNAL */
1094:Generated_Source\PSoC6\pdl\drivers/peripheral/scb/cy_scb_i2c.h **** 
1095:Generated_Source\PSoC6\pdl\drivers/peripheral/scb/cy_scb_i2c.h **** /* Slave statuses */
1096:Generated_Source\PSoC6\pdl\drivers/peripheral/scb/cy_scb_i2c.h **** #define CY_SCB_I2C_SLAVE_RD_CLEAR  (CY_SCB_I2C_SLAVE_RD_CMPLT  | CY_SCB_I2C_SLAVE_RD_IN_FIFO | \
1097:Generated_Source\PSoC6\pdl\drivers/peripheral/scb/cy_scb_i2c.h ****                                     CY_SCB_I2C_SLAVE_RD_UNDRFL | CY_SCB_I2C_SLAVE_ARB_LOST   | \
1098:Generated_Source\PSoC6\pdl\drivers/peripheral/scb/cy_scb_i2c.h ****                                     CY_SCB_I2C_SLAVE_BUS_ERR)
1099:Generated_Source\PSoC6\pdl\drivers/peripheral/scb/cy_scb_i2c.h **** 
1100:Generated_Source\PSoC6\pdl\drivers/peripheral/scb/cy_scb_i2c.h **** #define CY_SCB_I2C_SLAVE_WR_CLEAR  (CY_SCB_I2C_SLAVE_WR_CMPLT | CY_SCB_I2C_SLAVE_WR_OVRFL | \
1101:Generated_Source\PSoC6\pdl\drivers/peripheral/scb/cy_scb_i2c.h ****                                     CY_SCB_I2C_SLAVE_ARB_LOST | CY_SCB_I2C_SLAVE_BUS_ERR)
1102:Generated_Source\PSoC6\pdl\drivers/peripheral/scb/cy_scb_i2c.h **** 
1103:Generated_Source\PSoC6\pdl\drivers/peripheral/scb/cy_scb_i2c.h **** /* Master error statuses */
1104:Generated_Source\PSoC6\pdl\drivers/peripheral/scb/cy_scb_i2c.h **** #define CY_SCB_I2C_MASTER_ERR (CY_SCB_I2C_MASTER_ABORT_START | CY_SCB_I2C_MASTER_ADDR_NAK | \
1105:Generated_Source\PSoC6\pdl\drivers/peripheral/scb/cy_scb_i2c.h ****                                CY_SCB_I2C_MASTER_DATA_NAK    | CY_SCB_I2C_MASTER_BUS_ERR  | \
1106:Generated_Source\PSoC6\pdl\drivers/peripheral/scb/cy_scb_i2c.h ****                                CY_SCB_I2C_MASTER_ARB_LOST)
1107:Generated_Source\PSoC6\pdl\drivers/peripheral/scb/cy_scb_i2c.h **** 
1108:Generated_Source\PSoC6\pdl\drivers/peripheral/scb/cy_scb_i2c.h **** /* Master interrupt masks */
1109:Generated_Source\PSoC6\pdl\drivers/peripheral/scb/cy_scb_i2c.h **** #define CY_SCB_I2C_MASTER_INTR     (CY_SCB_MASTER_INTR_I2C_ARB_LOST | CY_SCB_MASTER_INTR_I2C_BUS_ER
1110:Generated_Source\PSoC6\pdl\drivers/peripheral/scb/cy_scb_i2c.h ****                                     CY_SCB_MASTER_INTR_I2C_NACK     | CY_SCB_MASTER_INTR_I2C_STOP)
1111:Generated_Source\PSoC6\pdl\drivers/peripheral/scb/cy_scb_i2c.h **** 
1112:Generated_Source\PSoC6\pdl\drivers/peripheral/scb/cy_scb_i2c.h **** #define CY_SCB_I2C_MASTER_INTR_ALL   (CY_SCB_I2C_MASTER_INTR | CY_SCB_MASTER_INTR_I2C_ACK)
1113:Generated_Source\PSoC6\pdl\drivers/peripheral/scb/cy_scb_i2c.h **** 
1114:Generated_Source\PSoC6\pdl\drivers/peripheral/scb/cy_scb_i2c.h **** #define CY_SCB_I2C_MASTER_INTR_ERR   (CY_SCB_MASTER_INTR_I2C_BUS_ERROR | CY_SCB_MASTER_INTR_I2C_ARB
1115:Generated_Source\PSoC6\pdl\drivers/peripheral/scb/cy_scb_i2c.h **** 
1116:Generated_Source\PSoC6\pdl\drivers/peripheral/scb/cy_scb_i2c.h **** #define CY_SCB_I2C_MASTER_INTR_CMPLT (CY_SCB_I2C_MASTER_INTR_ERR | CY_SCB_MASTER_INTR_I2C_STOP)
1117:Generated_Source\PSoC6\pdl\drivers/peripheral/scb/cy_scb_i2c.h **** 
1118:Generated_Source\PSoC6\pdl\drivers/peripheral/scb/cy_scb_i2c.h **** /* Master statuses. */
1119:Generated_Source\PSoC6\pdl\drivers/peripheral/scb/cy_scb_i2c.h **** #define CY_SCB_I2C_MASTER_TX_BYTE_DONE (CY_SCB_MASTER_INTR_I2C_ACK       | CY_SCB_MASTER_INTR_I2C_N
1120:Generated_Source\PSoC6\pdl\drivers/peripheral/scb/cy_scb_i2c.h ****                                         CY_SCB_MASTER_INTR_I2C_BUS_ERROR | CY_SCB_MASTER_INTR_I2C_A
1121:Generated_Source\PSoC6\pdl\drivers/peripheral/scb/cy_scb_i2c.h **** 
1122:Generated_Source\PSoC6\pdl\drivers/peripheral/scb/cy_scb_i2c.h **** #define CY_SCB_I2C_MASTER_RX_BYTE_DONE (CY_SCB_MASTER_INTR_I2C_BUS_ERROR | CY_SCB_MASTER_INTR_I2C_A
1123:Generated_Source\PSoC6\pdl\drivers/peripheral/scb/cy_scb_i2c.h **** 
1124:Generated_Source\PSoC6\pdl\drivers/peripheral/scb/cy_scb_i2c.h **** #define CY_SCB_I2C_MASTER_STOP_DONE    (CY_SCB_MASTER_INTR_I2C_STOP      | \
1125:Generated_Source\PSoC6\pdl\drivers/peripheral/scb/cy_scb_i2c.h ****                                         CY_SCB_MASTER_INTR_I2C_BUS_ERROR | CY_SCB_MASTER_INTR_I2C_A
1126:Generated_Source\PSoC6\pdl\drivers/peripheral/scb/cy_scb_i2c.h **** 
1127:Generated_Source\PSoC6\pdl\drivers/peripheral/scb/cy_scb_i2c.h **** #define CY_SCB_I2C_MASTER_TIMEOUT_DONE (0x80000000UL)
1128:Generated_Source\PSoC6\pdl\drivers/peripheral/scb/cy_scb_i2c.h **** 
1129:Generated_Source\PSoC6\pdl\drivers/peripheral/scb/cy_scb_i2c.h **** /* The slave interrupt mask */
1130:Generated_Source\PSoC6\pdl\drivers/peripheral/scb/cy_scb_i2c.h **** #define CY_SCB_I2C_SLAVE_INTR      (CY_SCB_SLAVE_INTR_I2C_ADDR_MATCH | CY_SCB_SLAVE_INTR_I2C_GENERA
1131:Generated_Source\PSoC6\pdl\drivers/peripheral/scb/cy_scb_i2c.h ****                                     CY_SCB_SLAVE_INTR_I2C_STOP       | CY_SCB_SLAVE_INTR_I2C_BUS_ER
1132:Generated_Source\PSoC6\pdl\drivers/peripheral/scb/cy_scb_i2c.h ****                                     CY_SCB_SLAVE_INTR_I2C_ARB_LOST)
1133:Generated_Source\PSoC6\pdl\drivers/peripheral/scb/cy_scb_i2c.h **** 
1134:Generated_Source\PSoC6\pdl\drivers/peripheral/scb/cy_scb_i2c.h **** #define CY_SCB_I2C_SLAVE_INTR_NO_STOP   (CY_SCB_I2C_SLAVE_INTR & (uint32_t) ~CY_SCB_SLAVE_INTR_I2C_
1135:Generated_Source\PSoC6\pdl\drivers/peripheral/scb/cy_scb_i2c.h **** 
1136:Generated_Source\PSoC6\pdl\drivers/peripheral/scb/cy_scb_i2c.h **** #define CY_SCB_I2C_SLAVE_INTR_ADDR      (CY_SCB_SLAVE_INTR_I2C_ADDR_MATCH | CY_SCB_SLAVE_INTR_I2C_G
1137:Generated_Source\PSoC6\pdl\drivers/peripheral/scb/cy_scb_i2c.h **** 
1138:Generated_Source\PSoC6\pdl\drivers/peripheral/scb/cy_scb_i2c.h **** #define CY_SCB_I2C_SLAVE_ADDR_DONE      (CY_SCB_I2C_SLAVE_INTR_ADDR)
1139:Generated_Source\PSoC6\pdl\drivers/peripheral/scb/cy_scb_i2c.h **** 
1140:Generated_Source\PSoC6\pdl\drivers/peripheral/scb/cy_scb_i2c.h **** #define CY_SCB_I2C_SLAVE_INTR_NO_ADDR   (CY_SCB_I2C_SLAVE_INTR & (uint32_t) ~CY_SCB_I2C_SLAVE_INTR_
1141:Generated_Source\PSoC6\pdl\drivers/peripheral/scb/cy_scb_i2c.h **** 
1142:Generated_Source\PSoC6\pdl\drivers/peripheral/scb/cy_scb_i2c.h **** #define CY_SCB_I2C_SLAVE_INTR_TX        (CY_SCB_TX_INTR_LEVEL | CY_SCB_TX_INTR_UNDERFLOW)
1143:Generated_Source\PSoC6\pdl\drivers/peripheral/scb/cy_scb_i2c.h **** 
1144:Generated_Source\PSoC6\pdl\drivers/peripheral/scb/cy_scb_i2c.h **** #define CY_SCB_I2C_SLAVE_INTR_ERROR     (CY_SCB_SLAVE_INTR_I2C_BUS_ERROR | CY_SCB_SLAVE_INTR_I2C_AR
1145:Generated_Source\PSoC6\pdl\drivers/peripheral/scb/cy_scb_i2c.h **** 
ARM GAS  C:\Users\guill\AppData\Local\Temp\cclz5xua.s 			page 41


1146:Generated_Source\PSoC6\pdl\drivers/peripheral/scb/cy_scb_i2c.h **** /* I2C states */
1147:Generated_Source\PSoC6\pdl\drivers/peripheral/scb/cy_scb_i2c.h **** #define CY_SCB_I2C_IDLE              (0x10000000UL)
1148:Generated_Source\PSoC6\pdl\drivers/peripheral/scb/cy_scb_i2c.h **** #define CY_SCB_I2C_IDLE_MASK         (0x10000000UL)
1149:Generated_Source\PSoC6\pdl\drivers/peripheral/scb/cy_scb_i2c.h **** 
1150:Generated_Source\PSoC6\pdl\drivers/peripheral/scb/cy_scb_i2c.h **** /* Master states */
1151:Generated_Source\PSoC6\pdl\drivers/peripheral/scb/cy_scb_i2c.h **** #define CY_SCB_I2C_MASTER_ACTIVE     (0x00100000UL)
1152:Generated_Source\PSoC6\pdl\drivers/peripheral/scb/cy_scb_i2c.h **** #define CY_SCB_I2C_MASTER_WAIT       (0x10100000UL)
1153:Generated_Source\PSoC6\pdl\drivers/peripheral/scb/cy_scb_i2c.h **** #define CY_SCB_I2C_MASTER_RX0        (0x00110000UL)
1154:Generated_Source\PSoC6\pdl\drivers/peripheral/scb/cy_scb_i2c.h **** #define CY_SCB_I2C_MASTER_RX1        (0x00120000UL)
1155:Generated_Source\PSoC6\pdl\drivers/peripheral/scb/cy_scb_i2c.h **** #define CY_SCB_I2C_MASTER_ADDR       (0x10130000UL)
1156:Generated_Source\PSoC6\pdl\drivers/peripheral/scb/cy_scb_i2c.h **** #define CY_SCB_I2C_MASTER_TX         (0x00140000UL)
1157:Generated_Source\PSoC6\pdl\drivers/peripheral/scb/cy_scb_i2c.h **** #define CY_SCB_I2C_MASTER_TX_DONE    (0x00150000UL)
1158:Generated_Source\PSoC6\pdl\drivers/peripheral/scb/cy_scb_i2c.h **** #define CY_SCB_I2C_MASTER_STOP       (0x00160000UL)
1159:Generated_Source\PSoC6\pdl\drivers/peripheral/scb/cy_scb_i2c.h **** #define CY_SCB_I2C_MASTER_WAIT_STOP  (0x00170000UL)
1160:Generated_Source\PSoC6\pdl\drivers/peripheral/scb/cy_scb_i2c.h **** #define CY_SCB_I2C_MASTER_CMPLT      (0x00180000UL)
1161:Generated_Source\PSoC6\pdl\drivers/peripheral/scb/cy_scb_i2c.h **** 
1162:Generated_Source\PSoC6\pdl\drivers/peripheral/scb/cy_scb_i2c.h **** /* Slave states */
1163:Generated_Source\PSoC6\pdl\drivers/peripheral/scb/cy_scb_i2c.h **** #define CY_SCB_I2C_SLAVE_ACTIVE      (0x00001000UL)
1164:Generated_Source\PSoC6\pdl\drivers/peripheral/scb/cy_scb_i2c.h **** #define CY_SCB_I2C_SLAVE_RX_MASK     (0x00001001UL)
1165:Generated_Source\PSoC6\pdl\drivers/peripheral/scb/cy_scb_i2c.h **** #define CY_SCB_I2C_SLAVE_RX          (0x00001001UL)
1166:Generated_Source\PSoC6\pdl\drivers/peripheral/scb/cy_scb_i2c.h **** #define CY_SCB_I2C_SLAVE_TX          (0x00001002UL)
1167:Generated_Source\PSoC6\pdl\drivers/peripheral/scb/cy_scb_i2c.h **** 
1168:Generated_Source\PSoC6\pdl\drivers/peripheral/scb/cy_scb_i2c.h **** /* FIFO size */
1169:Generated_Source\PSoC6\pdl\drivers/peripheral/scb/cy_scb_i2c.h **** #define CY_SCB_I2C_FIFO_SIZE          CY_SCB_FIFO_SIZE
1170:Generated_Source\PSoC6\pdl\drivers/peripheral/scb/cy_scb_i2c.h **** #define CY_SCB_I2C_HALF_FIFO_SIZE     (CY_SCB_FIFO_SIZE / 2UL)
1171:Generated_Source\PSoC6\pdl\drivers/peripheral/scb/cy_scb_i2c.h **** 
1172:Generated_Source\PSoC6\pdl\drivers/peripheral/scb/cy_scb_i2c.h **** #define CY_SCB_I2C_DEFAULT_RETURN    (0xFFUL)
1173:Generated_Source\PSoC6\pdl\drivers/peripheral/scb/cy_scb_i2c.h **** 
1174:Generated_Source\PSoC6\pdl\drivers/peripheral/scb/cy_scb_i2c.h **** /* Convert the timeout in milliseconds to microseconds */
1175:Generated_Source\PSoC6\pdl\drivers/peripheral/scb/cy_scb_i2c.h **** #define CY_SCB_I2C_CONVERT_TIMEOUT_TO_US(timeoutMs)     ((timeoutMs) * 1000UL)
1176:Generated_Source\PSoC6\pdl\drivers/peripheral/scb/cy_scb_i2c.h **** 
1177:Generated_Source\PSoC6\pdl\drivers/peripheral/scb/cy_scb_i2c.h **** /* I2C data rates max (Hz): standard, fast and fast plus modes */
1178:Generated_Source\PSoC6\pdl\drivers/peripheral/scb/cy_scb_i2c.h **** #define CY_SCB_I2C_STD_DATA_RATE    (100000U)
1179:Generated_Source\PSoC6\pdl\drivers/peripheral/scb/cy_scb_i2c.h **** #define CY_SCB_I2C_FST_DATA_RATE    (400000U)
1180:Generated_Source\PSoC6\pdl\drivers/peripheral/scb/cy_scb_i2c.h **** #define CY_SCB_I2C_FSTP_DATA_RATE  (1000000U)
1181:Generated_Source\PSoC6\pdl\drivers/peripheral/scb/cy_scb_i2c.h **** 
1182:Generated_Source\PSoC6\pdl\drivers/peripheral/scb/cy_scb_i2c.h **** /* Slave clock limits */
1183:Generated_Source\PSoC6\pdl\drivers/peripheral/scb/cy_scb_i2c.h **** #define CY_SCB_I2C_SLAVE_STD_CLK_MIN    (1550000U)
1184:Generated_Source\PSoC6\pdl\drivers/peripheral/scb/cy_scb_i2c.h **** #define CY_SCB_I2C_SLAVE_STD_CLK_MAX   (12800000U)
1185:Generated_Source\PSoC6\pdl\drivers/peripheral/scb/cy_scb_i2c.h **** #define CY_SCB_I2C_SLAVE_FST_CLK_MIN    (7820000U)
1186:Generated_Source\PSoC6\pdl\drivers/peripheral/scb/cy_scb_i2c.h **** #define CY_SCB_I2C_SLAVE_FST_CLK_MAX   (15380000U)
1187:Generated_Source\PSoC6\pdl\drivers/peripheral/scb/cy_scb_i2c.h **** #define CY_SCB_I2C_SLAVE_FSTP_CLK_MIN  (15840000U)
1188:Generated_Source\PSoC6\pdl\drivers/peripheral/scb/cy_scb_i2c.h **** #define CY_SCB_I2C_SLAVE_FSTP_CLK_MAX  (89000000U)
1189:Generated_Source\PSoC6\pdl\drivers/peripheral/scb/cy_scb_i2c.h **** 
1190:Generated_Source\PSoC6\pdl\drivers/peripheral/scb/cy_scb_i2c.h **** /* Master clock (Hz) and duty cycle limits for standard mode */
1191:Generated_Source\PSoC6\pdl\drivers/peripheral/scb/cy_scb_i2c.h **** #define CY_SCB_I2C_MASTER_STD_CLK_MIN           (1550000U)
1192:Generated_Source\PSoC6\pdl\drivers/peripheral/scb/cy_scb_i2c.h **** #define CY_SCB_I2C_MASTER_STD_CLK_MAX           (3200000U)
1193:Generated_Source\PSoC6\pdl\drivers/peripheral/scb/cy_scb_i2c.h **** #define CY_SCB_I2C_MASTER_STD_LOW_PHASE_MIN     (8U)
1194:Generated_Source\PSoC6\pdl\drivers/peripheral/scb/cy_scb_i2c.h **** #define CY_SCB_I2C_MASTER_STD_HIGH_PHASE_MIN    (8U)
1195:Generated_Source\PSoC6\pdl\drivers/peripheral/scb/cy_scb_i2c.h **** 
1196:Generated_Source\PSoC6\pdl\drivers/peripheral/scb/cy_scb_i2c.h **** /* Master clock (Hz) and duty cycle limits for fast mode */
1197:Generated_Source\PSoC6\pdl\drivers/peripheral/scb/cy_scb_i2c.h **** #define CY_SCB_I2C_MASTER_FST_CLK_MIN           (7820000U)
1198:Generated_Source\PSoC6\pdl\drivers/peripheral/scb/cy_scb_i2c.h **** #define CY_SCB_I2C_MASTER_FST_CLK_MAX           (10000000U)
1199:Generated_Source\PSoC6\pdl\drivers/peripheral/scb/cy_scb_i2c.h **** #define CY_SCB_I2C_MASTER_FST_LOW_PHASE_MIN     (13U)
1200:Generated_Source\PSoC6\pdl\drivers/peripheral/scb/cy_scb_i2c.h **** #define CY_SCB_I2C_MASTER_FST_HIGH_PHASE_MIN    (8U)
1201:Generated_Source\PSoC6\pdl\drivers/peripheral/scb/cy_scb_i2c.h **** 
1202:Generated_Source\PSoC6\pdl\drivers/peripheral/scb/cy_scb_i2c.h **** /* Master clock (Hz) and duty cycle limits for fast plus mode */
ARM GAS  C:\Users\guill\AppData\Local\Temp\cclz5xua.s 			page 42


1203:Generated_Source\PSoC6\pdl\drivers/peripheral/scb/cy_scb_i2c.h **** #define CY_SCB_I2C_MASTER_FSTP_CLK_MIN          (14320000U)
1204:Generated_Source\PSoC6\pdl\drivers/peripheral/scb/cy_scb_i2c.h **** #define CY_SCB_I2C_MASTER_FSTP_CLK_MAX          (25800000U)
1205:Generated_Source\PSoC6\pdl\drivers/peripheral/scb/cy_scb_i2c.h **** #define CY_SCB_I2C_MASTER_FSTP_LOW_PHASE_MIN    (9U)
1206:Generated_Source\PSoC6\pdl\drivers/peripheral/scb/cy_scb_i2c.h **** #define CY_SCB_I2C_MASTER_FSTP_HIGH_PHASE_MIN   (6U)
1207:Generated_Source\PSoC6\pdl\drivers/peripheral/scb/cy_scb_i2c.h **** 
1208:Generated_Source\PSoC6\pdl\drivers/peripheral/scb/cy_scb_i2c.h **** /* SCL low and high time in ns. Takes into account tF and tR */
1209:Generated_Source\PSoC6\pdl\drivers/peripheral/scb/cy_scb_i2c.h **** #define CY_SCB_I2C_MASTER_STD_SCL_LOW   (5000U) /* tLOW  + tF = 4700 + 300  */
1210:Generated_Source\PSoC6\pdl\drivers/peripheral/scb/cy_scb_i2c.h **** #define CY_SCB_I2C_MASTER_STD_SCL_HIGH  (5000U) /* tHIGH + tR = 4000 + 1000 */
1211:Generated_Source\PSoC6\pdl\drivers/peripheral/scb/cy_scb_i2c.h **** #define CY_SCB_I2C_MASTER_FST_SCL_LOW   (1600U) /* tLOW  + tF = 1300 + 300  */
1212:Generated_Source\PSoC6\pdl\drivers/peripheral/scb/cy_scb_i2c.h **** #define CY_SCB_I2C_MASTER_FST_SCL_HIGH   (900U) /* tHIGH + tR = 600 + 300   */
1213:Generated_Source\PSoC6\pdl\drivers/peripheral/scb/cy_scb_i2c.h **** #define CY_SCB_I2C_MASTER_FSTP_SCL_LOW   (620U) /* tLOW  + tF = 500 + 120   */
1214:Generated_Source\PSoC6\pdl\drivers/peripheral/scb/cy_scb_i2c.h **** #define CY_SCB_I2C_MASTER_FSTP_SCL_HIGH  (380U) /* tHIGH + tR = 260 + 120   */
1215:Generated_Source\PSoC6\pdl\drivers/peripheral/scb/cy_scb_i2c.h **** 
1216:Generated_Source\PSoC6\pdl\drivers/peripheral/scb/cy_scb_i2c.h **** /* Master duty cycle limits */
1217:Generated_Source\PSoC6\pdl\drivers/peripheral/scb/cy_scb_i2c.h **** #define CY_SCB_I2C_LOW_PHASE_MAX    (16U)
1218:Generated_Source\PSoC6\pdl\drivers/peripheral/scb/cy_scb_i2c.h **** #define CY_SCB_I2C_HIGH_PHASE_MAX   (16U)
1219:Generated_Source\PSoC6\pdl\drivers/peripheral/scb/cy_scb_i2c.h **** #define CY_SCB_I2C_DUTY_CYCLE_MAX   (CY_SCB_I2C_LOW_PHASE_MAX + CY_SCB_I2C_HIGH_PHASE_MAX)
1220:Generated_Source\PSoC6\pdl\drivers/peripheral/scb/cy_scb_i2c.h **** 
1221:Generated_Source\PSoC6\pdl\drivers/peripheral/scb/cy_scb_i2c.h **** /* Analog filter settings. */
1222:Generated_Source\PSoC6\pdl\drivers/peripheral/scb/cy_scb_i2c.h **** #define CY_SCB_I2C_ENABLE_ANALOG_FITLER    (CY_SCB_I2C_CFG_DEF_VAL)
1223:Generated_Source\PSoC6\pdl\drivers/peripheral/scb/cy_scb_i2c.h **** #define CY_SCB_I2C_DISABLE_ANALOG_FITLER   (CY_SCB_I2C_CFG_DEF_VAL & \
1224:Generated_Source\PSoC6\pdl\drivers/peripheral/scb/cy_scb_i2c.h ****                                             (uint32_t) ~(SCB_I2C_CFG_SDA_IN_FILT_SEL_Msk | \
1225:Generated_Source\PSoC6\pdl\drivers/peripheral/scb/cy_scb_i2c.h ****                                                          SCB_I2C_CFG_SCL_IN_FILT_SEL_Msk))
1226:Generated_Source\PSoC6\pdl\drivers/peripheral/scb/cy_scb_i2c.h **** 
1227:Generated_Source\PSoC6\pdl\drivers/peripheral/scb/cy_scb_i2c.h **** #define CY_SCB_I2C_IS_MODE_VALID(mode)      ( (CY_SCB_I2C_SLAVE  == (mode)) || \
1228:Generated_Source\PSoC6\pdl\drivers/peripheral/scb/cy_scb_i2c.h ****                                               (CY_SCB_I2C_MASTER == (mode)) || \
1229:Generated_Source\PSoC6\pdl\drivers/peripheral/scb/cy_scb_i2c.h ****                                               (CY_SCB_I2C_MASTER_SLAVE == (mode)) )
1230:Generated_Source\PSoC6\pdl\drivers/peripheral/scb/cy_scb_i2c.h **** 
1231:Generated_Source\PSoC6\pdl\drivers/peripheral/scb/cy_scb_i2c.h **** #define CY_SCB_I2C_IS_RW_BIT_VALID(dir)     ( (CY_SCB_I2C_WRITE_XFER == (dir)) || \
1232:Generated_Source\PSoC6\pdl\drivers/peripheral/scb/cy_scb_i2c.h ****                                               (CY_SCB_I2C_READ_XFER  == (dir)) )
1233:Generated_Source\PSoC6\pdl\drivers/peripheral/scb/cy_scb_i2c.h **** 
1234:Generated_Source\PSoC6\pdl\drivers/peripheral/scb/cy_scb_i2c.h **** #define CY_SCB_I2C_IS_RESPONSE_VALID(cmd)   ( (CY_SCB_I2C_ACK == (cmd))  || \
1235:Generated_Source\PSoC6\pdl\drivers/peripheral/scb/cy_scb_i2c.h ****                                               (CY_SCB_I2C_NAK == (cmd)) )
1236:Generated_Source\PSoC6\pdl\drivers/peripheral/scb/cy_scb_i2c.h **** 
1237:Generated_Source\PSoC6\pdl\drivers/peripheral/scb/cy_scb_i2c.h **** #define CY_SCB_I2C_IS_ADDR_MASK_VALID(mask)         ( (0U == ((mask) & 0x01U)) )
1238:Generated_Source\PSoC6\pdl\drivers/peripheral/scb/cy_scb_i2c.h **** 
1239:Generated_Source\PSoC6\pdl\drivers/peripheral/scb/cy_scb_i2c.h **** #define CY_SCB_I2C_IS_PHASE_OVERSAMPLE_VALID(phaseOvs)  ((phaseOvs) <= 16U)
1240:Generated_Source\PSoC6\pdl\drivers/peripheral/scb/cy_scb_i2c.h **** 
1241:Generated_Source\PSoC6\pdl\drivers/peripheral/scb/cy_scb_i2c.h **** #define CY_SCB_I2C_IS_DATA_RATE_VALID(dataRateHz)   ( ((dataRateHz) > 0UL) && \
1242:Generated_Source\PSoC6\pdl\drivers/peripheral/scb/cy_scb_i2c.h ****                                                       ((dataRateHz) <= CY_SCB_I2C_FSTP_DATA_RATE) )
1243:Generated_Source\PSoC6\pdl\drivers/peripheral/scb/cy_scb_i2c.h **** 
1244:Generated_Source\PSoC6\pdl\drivers/peripheral/scb/cy_scb_i2c.h **** #define CY_SCB_I2C_IS_TIMEOUT_VALID(timeoutMs)              ( (timeoutMs) <= (0xFFFFFFFFUL / 1000UL
1245:Generated_Source\PSoC6\pdl\drivers/peripheral/scb/cy_scb_i2c.h **** #define CY_SCB_I2C_IS_LOW_PHASE_CYCLES_VALID(clockCycles)   ( ((clockCycles) >= 7UL) && ((clockCycl
1246:Generated_Source\PSoC6\pdl\drivers/peripheral/scb/cy_scb_i2c.h **** #define CY_SCB_I2C_IS_HIGH_PHASE_CYCLES_VALID(clockCycles)  ( ((clockCycles) >= 5UL) && ((clockCycl
1247:Generated_Source\PSoC6\pdl\drivers/peripheral/scb/cy_scb_i2c.h **** 
1248:Generated_Source\PSoC6\pdl\drivers/peripheral/scb/cy_scb_i2c.h **** /** \endcond */
1249:Generated_Source\PSoC6\pdl\drivers/peripheral/scb/cy_scb_i2c.h **** 
1250:Generated_Source\PSoC6\pdl\drivers/peripheral/scb/cy_scb_i2c.h **** /** \} group_scb_i2c_macros */
1251:Generated_Source\PSoC6\pdl\drivers/peripheral/scb/cy_scb_i2c.h **** 
1252:Generated_Source\PSoC6\pdl\drivers/peripheral/scb/cy_scb_i2c.h **** 
1253:Generated_Source\PSoC6\pdl\drivers/peripheral/scb/cy_scb_i2c.h **** /*******************************************************************************
1254:Generated_Source\PSoC6\pdl\drivers/peripheral/scb/cy_scb_i2c.h **** *                     In-line Function Implementation
1255:Generated_Source\PSoC6\pdl\drivers/peripheral/scb/cy_scb_i2c.h **** *******************************************************************************/
1256:Generated_Source\PSoC6\pdl\drivers/peripheral/scb/cy_scb_i2c.h **** 
1257:Generated_Source\PSoC6\pdl\drivers/peripheral/scb/cy_scb_i2c.h **** /**
1258:Generated_Source\PSoC6\pdl\drivers/peripheral/scb/cy_scb_i2c.h **** * \addtogroup group_scb_i2c_general_functions
1259:Generated_Source\PSoC6\pdl\drivers/peripheral/scb/cy_scb_i2c.h **** * \{
ARM GAS  C:\Users\guill\AppData\Local\Temp\cclz5xua.s 			page 43


1260:Generated_Source\PSoC6\pdl\drivers/peripheral/scb/cy_scb_i2c.h **** */
1261:Generated_Source\PSoC6\pdl\drivers/peripheral/scb/cy_scb_i2c.h **** 
1262:Generated_Source\PSoC6\pdl\drivers/peripheral/scb/cy_scb_i2c.h **** /*******************************************************************************
1263:Generated_Source\PSoC6\pdl\drivers/peripheral/scb/cy_scb_i2c.h **** * Function Name: Cy_SCB_I2C_Enable
1264:Generated_Source\PSoC6\pdl\drivers/peripheral/scb/cy_scb_i2c.h **** ****************************************************************************//**
1265:Generated_Source\PSoC6\pdl\drivers/peripheral/scb/cy_scb_i2c.h **** *
1266:Generated_Source\PSoC6\pdl\drivers/peripheral/scb/cy_scb_i2c.h **** * Enables the SCB block for the I2C operation
1267:Generated_Source\PSoC6\pdl\drivers/peripheral/scb/cy_scb_i2c.h **** *
1268:Generated_Source\PSoC6\pdl\drivers/peripheral/scb/cy_scb_i2c.h **** * \param base
1269:Generated_Source\PSoC6\pdl\drivers/peripheral/scb/cy_scb_i2c.h **** * The pointer to the I2C SCB instance.
1270:Generated_Source\PSoC6\pdl\drivers/peripheral/scb/cy_scb_i2c.h **** *
1271:Generated_Source\PSoC6\pdl\drivers/peripheral/scb/cy_scb_i2c.h **** *******************************************************************************/
1272:Generated_Source\PSoC6\pdl\drivers/peripheral/scb/cy_scb_i2c.h **** __STATIC_INLINE void Cy_SCB_I2C_Enable(CySCB_Type *base)
1273:Generated_Source\PSoC6\pdl\drivers/peripheral/scb/cy_scb_i2c.h **** {
1274:Generated_Source\PSoC6\pdl\drivers/peripheral/scb/cy_scb_i2c.h ****     SCB_CTRL(base) |= SCB_CTRL_ENABLED_Msk;
 816              		.loc 2 1274 0
 817 0010 2368     		ldr	r3, [r4]
 818 0012 8022     		movs	r2, #128
 819 0014 1206     		lsls	r2, r2, #24
 820 0016 1343     		orrs	r3, r2
 821 0018 2360     		str	r3, [r4]
 822              	.LVL84:
 823              	.LBE7:
 824              	.LBE6:
 140:DRF0554.c     ****     
 825              		.loc 1 140 0
 826 001a 204D     		ldr	r5, .L49+4
 827 001c 2A78     		ldrb	r2, [r5]
 828 001e 0823     		movs	r3, #8
 829 0020 1343     		orrs	r3, r2
 830 0022 2B70     		strb	r3, [r5]
 143:DRF0554.c     **** 
 831              		.loc 1 143 0
 832 0024 3230     		adds	r0, r0, #50
 833              	.LVL85:
 834 0026 FFF7FEFF 		bl	Cy_SysLib_Delay
 835              	.LVL86:
 149:DRF0554.c     ****     CyDelay(5);  // wait more than 4.1ms
 836              		.loc 1 149 0
 837 002a 2024     		movs	r4, #32
 838              	.LVL87:
 839 002c 2878     		ldrb	r0, [r5]
 840 002e 2043     		orrs	r0, r4
 841 0030 C0B2     		uxtb	r0, r0
 842 0032 FFF7FEFF 		bl	command
 843              	.LVL88:
 150:DRF0554.c     **** 	
 844              		.loc 1 150 0
 845 0036 0520     		movs	r0, #5
 846 0038 FFF7FEFF 		bl	Cy_SysLib_Delay
 847              	.LVL89:
 153:DRF0554.c     ****     CyDelay(5);
 848              		.loc 1 153 0
 849 003c 2878     		ldrb	r0, [r5]
 850 003e 2043     		orrs	r0, r4
 851 0040 C0B2     		uxtb	r0, r0
 852 0042 FFF7FEFF 		bl	command
ARM GAS  C:\Users\guill\AppData\Local\Temp\cclz5xua.s 			page 44


 853              	.LVL90:
 154:DRF0554.c     **** 
 854              		.loc 1 154 0
 855 0046 0520     		movs	r0, #5
 856 0048 FFF7FEFF 		bl	Cy_SysLib_Delay
 857              	.LVL91:
 157:DRF0554.c     **** 
 858              		.loc 1 157 0
 859 004c 2878     		ldrb	r0, [r5]
 860 004e 0443     		orrs	r4, r0
 861 0050 E0B2     		uxtb	r0, r4
 862 0052 FFF7FEFF 		bl	command
 863              	.LVL92:
 160:DRF0554.c     ****     LCD_Display(On);
 864              		.loc 1 160 0
 865 0056 0422     		movs	r2, #4
 866 0058 114B     		ldr	r3, .L49+8
 867 005a 1A70     		strb	r2, [r3]
 161:DRF0554.c     **** 
 868              		.loc 1 161 0
 869 005c 0120     		movs	r0, #1
 870 005e FFF7FEFF 		bl	LCD_Display
 871              	.LVL93:
 164:DRF0554.c     **** 
 872              		.loc 1 164 0
 873 0062 FFF7FEFF 		bl	LCD_Clear
 874              	.LVL94:
 167:DRF0554.c     ****     ///< set the entry mode
 875              		.loc 1 167 0
 876 0066 0222     		movs	r2, #2
 877 0068 0E4B     		ldr	r3, .L49+12
 878 006a 1A70     		strb	r2, [r3]
 169:DRF0554.c     ****     
 879              		.loc 1 169 0
 880 006c 0620     		movs	r0, #6
 881 006e FFF7FEFF 		bl	command
 882              	.LVL95:
 173:DRF0554.c     ****     ///< set LEDs controllable by both PWM and GRPPWM registers
 883              		.loc 1 173 0
 884 0072 0021     		movs	r1, #0
 885 0074 0020     		movs	r0, #0
 886 0076 FFF7FEFF 		bl	setReg
 887              	.LVL96:
 175:DRF0554.c     ****     ///< set MODE2 values
 888              		.loc 1 175 0
 889 007a FF21     		movs	r1, #255
 890 007c 0820     		movs	r0, #8
 891 007e FFF7FEFF 		bl	setReg
 892              	.LVL97:
 178:DRF0554.c     ****     
 893              		.loc 1 178 0
 894 0082 2021     		movs	r1, #32
 895 0084 0120     		movs	r0, #1
 896 0086 FFF7FEFF 		bl	setReg
 897              	.LVL98:
 180:DRF0554.c     ****    return true; 
 898              		.loc 1 180 0
ARM GAS  C:\Users\guill\AppData\Local\Temp\cclz5xua.s 			page 45


 899 008a 0020     		movs	r0, #0
 900 008c FFF7FEFF 		bl	LCD_SetColor
 901              	.LVL99:
 181:DRF0554.c     ****     
 902              		.loc 1 181 0
 903 0090 0120     		movs	r0, #1
 904 0092 00E0     		b	.L47
 905              	.LVL100:
 906              	.L48:
 131:DRF0554.c     ****     }
 907              		.loc 1 131 0
 908 0094 0020     		movs	r0, #0
 909              	.LVL101:
 910              	.L47:
 183:DRF0554.c     **** 
 911              		.loc 1 183 0
 912              		@ sp needed
 913 0096 70BD     		pop	{r4, r5, r6, pc}
 914              	.L50:
 915              		.align	2
 916              	.L49:
 917 0098 00000000 		.word	I2C_config
 918 009c 00000000 		.word	_showFunction
 919 00a0 00000000 		.word	_showControl
 920 00a4 00000000 		.word	_showMode
 921              		.cfi_endproc
 922              	.LFE593:
 923              		.size	LCD_Start, .-LCD_Start
 924              		.section	.text.LCD_Print,"ax",%progbits
 925              		.align	2
 926              		.global	LCD_Print
 927              		.code	16
 928              		.thumb_func
 929              		.type	LCD_Print, %function
 930              	LCD_Print:
 931              	.LFB603:
 306:DRF0554.c     **** 
 307:DRF0554.c     ****  
 308:DRF0554.c     **** // Prints all characters from zero terminated string STR. 
 309:DRF0554.c     **** // If strlen(str) > 16, call LCD_Autoscroll(On) first. 
 310:DRF0554.c     **** // Returns FALSE on error, TRUE otherwise. 
 311:DRF0554.c     **** bool LCD_Print(char *str){
 932              		.loc 1 311 0
 933              		.cfi_startproc
 934              		@ args = 0, pretend = 0, frame = 0
 935              		@ frame_needed = 0, uses_anonymous_args = 0
 936              	.LVL102:
 937 0000 70B5     		push	{r4, r5, r6, lr}
 938              		.cfi_def_cfa_offset 16
 939              		.cfi_offset 4, -16
 940              		.cfi_offset 5, -12
 941              		.cfi_offset 6, -8
 942              		.cfi_offset 14, -4
 943 0002 0600     		movs	r6, r0
 312:DRF0554.c     ****     uint8_t size = strlen(str);
 944              		.loc 1 312 0
 945 0004 FFF7FEFF 		bl	strlen
ARM GAS  C:\Users\guill\AppData\Local\Temp\cclz5xua.s 			page 46


 946              	.LVL103:
 947 0008 0500     		movs	r5, r0
 948 000a C0B2     		uxtb	r0, r0
 949              	.LVL104:
 313:DRF0554.c     ****     uint32_t i;
 314:DRF0554.c     ****     if(size>16){
 950              		.loc 1 314 0
 951 000c 1028     		cmp	r0, #16
 952 000e 13D9     		bls	.L57
 315:DRF0554.c     ****         LCD_Autoscroll(On);
 953              		.loc 1 315 0
 954 0010 0120     		movs	r0, #1
 955              	.LVL105:
 956 0012 FFF7FEFF 		bl	LCD_Autoscroll
 957              	.LVL106:
 316:DRF0554.c     ****         for (i = 0; i < size; i++){
 958              		.loc 1 316 0
 959 0016 0024     		movs	r4, #0
 960 0018 03E0     		b	.L53
 961              	.LVL107:
 962              	.L54:
 317:DRF0554.c     ****             write(str[i]);
 963              		.loc 1 317 0 discriminator 3
 964 001a 305D     		ldrb	r0, [r6, r4]
 965 001c FFF7FEFF 		bl	write
 966              	.LVL108:
 316:DRF0554.c     ****         for (i = 0; i < size; i++){
 967              		.loc 1 316 0 discriminator 3
 968 0020 0134     		adds	r4, r4, #1
 969              	.LVL109:
 970              	.L53:
 316:DRF0554.c     ****         for (i = 0; i < size; i++){
 971              		.loc 1 316 0 is_stmt 0 discriminator 1
 972 0022 FF23     		movs	r3, #255
 973 0024 2B40     		ands	r3, r5
 974 0026 9C42     		cmp	r4, r3
 975 0028 F7D3     		bcc	.L54
 318:DRF0554.c     ****         }
 319:DRF0554.c     ****       return true;
 976              		.loc 1 319 0 is_stmt 1
 977 002a 0120     		movs	r0, #1
 978 002c 0AE0     		b	.L55
 979              	.L56:
 320:DRF0554.c     ****     }
 321:DRF0554.c     ****     
 322:DRF0554.c     ****        for (i = 0; i < size; i++){
 323:DRF0554.c     ****             write(str[i]);
 980              		.loc 1 323 0 discriminator 3
 981 002e 305D     		ldrb	r0, [r6, r4]
 982 0030 FFF7FEFF 		bl	write
 983              	.LVL110:
 322:DRF0554.c     ****             write(str[i]);
 984              		.loc 1 322 0 discriminator 3
 985 0034 0134     		adds	r4, r4, #1
 986              	.LVL111:
 987 0036 00E0     		b	.L52
 988              	.LVL112:
ARM GAS  C:\Users\guill\AppData\Local\Temp\cclz5xua.s 			page 47


 989              	.L57:
 990 0038 0024     		movs	r4, #0
 991              	.LVL113:
 992              	.L52:
 322:DRF0554.c     ****             write(str[i]);
 993              		.loc 1 322 0 is_stmt 0 discriminator 1
 994 003a FF23     		movs	r3, #255
 995 003c 2B40     		ands	r3, r5
 996 003e 9C42     		cmp	r4, r3
 997 0040 F5D3     		bcc	.L56
 324:DRF0554.c     ****         }
 325:DRF0554.c     ****       return false;
 998              		.loc 1 325 0 is_stmt 1
 999 0042 0020     		movs	r0, #0
 1000              	.L55:
 326:DRF0554.c     ****     
 327:DRF0554.c     ****        
 328:DRF0554.c     **** }...
 1001              		.loc 1 328 0
 1002              		@ sp needed
 1003              	.LVL114:
 1004              	.LVL115:
 1005 0044 70BD     		pop	{r4, r5, r6, pc}
 1006              		.cfi_endproc
 1007              	.LFE603:
 1008              		.size	LCD_Print, .-LCD_Print
 1009              		.global	_rows
 1010              		.global	_cols
 1011              		.global	_RGBAddr
 1012              		.global	_lcdAddr
 1013              		.comm	_currLine,1,1
 1014              		.comm	_numLines,1,1
 1015              		.comm	_initialized,1,1
 1016              		.comm	_showMode,1,1
 1017              		.comm	_showControl,1,1
 1018              		.comm	_showFunction,1,1
 1019 0046 C046     		.data
 1020              		.set	.LANCHOR0,. + 0
 1021              		.type	_lcdAddr, %object
 1022              		.size	_lcdAddr, 1
 1023              	_lcdAddr:
 1024 0000 3E       		.byte	62
 1025              		.type	_RGBAddr, %object
 1026              		.size	_RGBAddr, 1
 1027              	_RGBAddr:
 1028 0001 60       		.byte	96
 1029              		.type	_rows, %object
 1030              		.size	_rows, 1
 1031              	_rows:
 1032 0002 02       		.byte	2
 1033              		.type	_cols, %object
 1034              		.size	_cols, 1
 1035              	_cols:
 1036 0003 10       		.byte	16
 1037              		.text
 1038              	.Letext0:
 1039              		.file 3 "c:\\program files (x86)\\cypress\\psoc creator\\4.4\\psoc creator\\import\\gnu\\arm\\5.4.
ARM GAS  C:\Users\guill\AppData\Local\Temp\cclz5xua.s 			page 48


 1040              		.file 4 "c:\\program files (x86)\\cypress\\psoc creator\\4.4\\psoc creator\\import\\gnu\\arm\\5.4.
 1041              		.file 5 "Generated_Source\\PSoC6\\pdl\\devices/psoc6/include/ip/cyip_scb.h"
 1042              		.file 6 "Generated_Source\\PSoC6\\pdl\\devices/psoc6/include/psoc6_01_config.h"
 1043              		.file 7 "Generated_Source\\PSoC6\\pdl\\drivers/peripheral/device/cy_device.h"
 1044              		.file 8 "Generated_Source\\PSoC6\\pdl\\drivers/peripheral/scb/cy_scb_uart.h"
 1045              		.file 9 "Generated_Source\\PSoC6\\pdl\\drivers/peripheral/tcpwm/cy_tcpwm_counter.h"
 1046              		.file 10 "Generated_Source\\PSoC6\\pdl\\drivers/peripheral/tcpwm/cy_tcpwm_pwm.h"
 1047              		.file 11 "DRF0554.h"
 1048              		.file 12 "Generated_Source\\PSoC6/UART.h"
 1049              		.file 13 "Generated_Source\\PSoC6/PWM_Blue.h"
 1050              		.file 14 "Generated_Source\\PSoC6/PWM_Green.h"
 1051              		.file 15 "Generated_Source\\PSoC6/I2C.h"
 1052              		.file 16 "Generated_Source\\PSoC6/Timer_Echo.h"
 1053              		.file 17 "Generated_Source\\PSoC6/PWM_Trigger.h"
 1054              		.file 18 "Generated_Source\\PSoC6\\pdl\\drivers/peripheral/syslib/cy_syslib.h"
 1055              		.file 19 "c:\\program files (x86)\\cypress\\psoc creator\\4.4\\psoc creator\\import\\gnu\\arm\\5.4
 1056              		.section	.debug_info,"",%progbits
 1057              	.Ldebug_info0:
 1058 0000 2F190000 		.4byte	0x192f
 1059 0004 0400     		.2byte	0x4
 1060 0006 00000000 		.4byte	.Ldebug_abbrev0
 1061 000a 04       		.byte	0x4
 1062 000b 01       		.uleb128 0x1
 1063 000c 520A0000 		.4byte	.LASF343
 1064 0010 0C       		.byte	0xc
 1065 0011 23070000 		.4byte	.LASF344
 1066 0015 99020000 		.4byte	.LASF345
 1067 0019 00000000 		.4byte	.Ldebug_ranges0+0
 1068 001d 00000000 		.4byte	0
 1069 0021 00000000 		.4byte	.Ldebug_line0
 1070 0025 02       		.uleb128 0x2
 1071 0026 01       		.byte	0x1
 1072 0027 06       		.byte	0x6
 1073 0028 61120000 		.4byte	.LASF0
 1074 002c 03       		.uleb128 0x3
 1075 002d AA0F0000 		.4byte	.LASF2
 1076 0031 03       		.byte	0x3
 1077 0032 1D       		.byte	0x1d
 1078 0033 37000000 		.4byte	0x37
 1079 0037 02       		.uleb128 0x2
 1080 0038 01       		.byte	0x1
 1081 0039 08       		.byte	0x8
 1082 003a 0F110000 		.4byte	.LASF1
 1083 003e 03       		.uleb128 0x3
 1084 003f FC0A0000 		.4byte	.LASF3
 1085 0043 03       		.byte	0x3
 1086 0044 29       		.byte	0x29
 1087 0045 49000000 		.4byte	0x49
 1088 0049 02       		.uleb128 0x2
 1089 004a 02       		.byte	0x2
 1090 004b 05       		.byte	0x5
 1091 004c 5F000000 		.4byte	.LASF4
 1092 0050 03       		.uleb128 0x3
 1093 0051 94050000 		.4byte	.LASF5
 1094 0055 03       		.byte	0x3
 1095 0056 2B       		.byte	0x2b
 1096 0057 5B000000 		.4byte	0x5b
ARM GAS  C:\Users\guill\AppData\Local\Temp\cclz5xua.s 			page 49


 1097 005b 02       		.uleb128 0x2
 1098 005c 02       		.byte	0x2
 1099 005d 07       		.byte	0x7
 1100 005e 8A0C0000 		.4byte	.LASF6
 1101 0062 02       		.uleb128 0x2
 1102 0063 04       		.byte	0x4
 1103 0064 05       		.byte	0x5
 1104 0065 9E0E0000 		.4byte	.LASF7
 1105 0069 03       		.uleb128 0x3
 1106 006a 1D110000 		.4byte	.LASF8
 1107 006e 03       		.byte	0x3
 1108 006f 41       		.byte	0x41
 1109 0070 74000000 		.4byte	0x74
 1110 0074 02       		.uleb128 0x2
 1111 0075 04       		.byte	0x4
 1112 0076 07       		.byte	0x7
 1113 0077 80100000 		.4byte	.LASF9
 1114 007b 02       		.uleb128 0x2
 1115 007c 08       		.byte	0x8
 1116 007d 05       		.byte	0x5
 1117 007e B9090000 		.4byte	.LASF10
 1118 0082 02       		.uleb128 0x2
 1119 0083 08       		.byte	0x8
 1120 0084 07       		.byte	0x7
 1121 0085 27050000 		.4byte	.LASF11
 1122 0089 04       		.uleb128 0x4
 1123 008a 04       		.byte	0x4
 1124 008b 05       		.byte	0x5
 1125 008c 696E7400 		.ascii	"int\000"
 1126 0090 02       		.uleb128 0x2
 1127 0091 04       		.byte	0x4
 1128 0092 07       		.byte	0x7
 1129 0093 C7080000 		.4byte	.LASF12
 1130 0097 02       		.uleb128 0x2
 1131 0098 08       		.byte	0x8
 1132 0099 04       		.byte	0x4
 1133 009a BB0C0000 		.4byte	.LASF13
 1134 009e 05       		.uleb128 0x5
 1135 009f 04       		.byte	0x4
 1136 00a0 02       		.uleb128 0x2
 1137 00a1 04       		.byte	0x4
 1138 00a2 07       		.byte	0x7
 1139 00a3 B50D0000 		.4byte	.LASF14
 1140 00a7 06       		.uleb128 0x6
 1141 00a8 04       		.byte	0x4
 1142 00a9 AD000000 		.4byte	0xad
 1143 00ad 02       		.uleb128 0x2
 1144 00ae 01       		.byte	0x1
 1145 00af 08       		.byte	0x8
 1146 00b0 B1050000 		.4byte	.LASF15
 1147 00b4 03       		.uleb128 0x3
 1148 00b5 ED080000 		.4byte	.LASF16
 1149 00b9 04       		.byte	0x4
 1150 00ba 18       		.byte	0x18
 1151 00bb 2C000000 		.4byte	0x2c
 1152 00bf 03       		.uleb128 0x3
 1153 00c0 F9040000 		.4byte	.LASF17
ARM GAS  C:\Users\guill\AppData\Local\Temp\cclz5xua.s 			page 50


 1154 00c4 04       		.byte	0x4
 1155 00c5 20       		.byte	0x20
 1156 00c6 3E000000 		.4byte	0x3e
 1157 00ca 03       		.uleb128 0x3
 1158 00cb D70C0000 		.4byte	.LASF18
 1159 00cf 04       		.byte	0x4
 1160 00d0 24       		.byte	0x24
 1161 00d1 50000000 		.4byte	0x50
 1162 00d5 03       		.uleb128 0x3
 1163 00d6 41040000 		.4byte	.LASF19
 1164 00da 04       		.byte	0x4
 1165 00db 30       		.byte	0x30
 1166 00dc 69000000 		.4byte	0x69
 1167 00e0 07       		.uleb128 0x7
 1168 00e1 D5000000 		.4byte	0xd5
 1169 00e5 08       		.uleb128 0x8
 1170 00e6 E0000000 		.4byte	0xe0
 1171 00ea 09       		.uleb128 0x9
 1172 00eb E5000000 		.4byte	0xe5
 1173 00ef FA000000 		.4byte	0xfa
 1174 00f3 0A       		.uleb128 0xa
 1175 00f4 A0000000 		.4byte	0xa0
 1176 00f8 05       		.byte	0x5
 1177 00f9 00       		.byte	0
 1178 00fa 09       		.uleb128 0x9
 1179 00fb E5000000 		.4byte	0xe5
 1180 00ff 0A010000 		.4byte	0x10a
 1181 0103 0A       		.uleb128 0xa
 1182 0104 A0000000 		.4byte	0xa0
 1183 0108 7F       		.byte	0x7f
 1184 0109 00       		.byte	0
 1185 010a 09       		.uleb128 0x9
 1186 010b E5000000 		.4byte	0xe5
 1187 010f 1A010000 		.4byte	0x11a
 1188 0113 0A       		.uleb128 0xa
 1189 0114 A0000000 		.4byte	0xa0
 1190 0118 0C       		.byte	0xc
 1191 0119 00       		.byte	0
 1192 011a 09       		.uleb128 0x9
 1193 011b E5000000 		.4byte	0xe5
 1194 011f 2A010000 		.4byte	0x12a
 1195 0123 0A       		.uleb128 0xa
 1196 0124 A0000000 		.4byte	0xa0
 1197 0128 1E       		.byte	0x1e
 1198 0129 00       		.byte	0
 1199 012a 09       		.uleb128 0x9
 1200 012b E5000000 		.4byte	0xe5
 1201 012f 3A010000 		.4byte	0x13a
 1202 0133 0A       		.uleb128 0xa
 1203 0134 A0000000 		.4byte	0xa0
 1204 0138 03       		.byte	0x3
 1205 0139 00       		.byte	0
 1206 013a 09       		.uleb128 0x9
 1207 013b E5000000 		.4byte	0xe5
 1208 013f 4A010000 		.4byte	0x14a
 1209 0143 0A       		.uleb128 0xa
 1210 0144 A0000000 		.4byte	0xa0
ARM GAS  C:\Users\guill\AppData\Local\Temp\cclz5xua.s 			page 51


 1211 0148 02       		.byte	0x2
 1212 0149 00       		.byte	0
 1213 014a 09       		.uleb128 0x9
 1214 014b E5000000 		.4byte	0xe5
 1215 014f 5A010000 		.4byte	0x15a
 1216 0153 0A       		.uleb128 0xa
 1217 0154 A0000000 		.4byte	0xa0
 1218 0158 0B       		.byte	0xb
 1219 0159 00       		.byte	0
 1220 015a 09       		.uleb128 0x9
 1221 015b B4000000 		.4byte	0xb4
 1222 015f 6A010000 		.4byte	0x16a
 1223 0163 0A       		.uleb128 0xa
 1224 0164 A0000000 		.4byte	0xa0
 1225 0168 02       		.byte	0x2
 1226 0169 00       		.byte	0
 1227 016a 09       		.uleb128 0x9
 1228 016b E5000000 		.4byte	0xe5
 1229 016f 7A010000 		.4byte	0x17a
 1230 0173 0A       		.uleb128 0xa
 1231 0174 A0000000 		.4byte	0xa0
 1232 0178 0A       		.byte	0xa
 1233 0179 00       		.byte	0
 1234 017a 09       		.uleb128 0x9
 1235 017b E5000000 		.4byte	0xe5
 1236 017f 8A010000 		.4byte	0x18a
 1237 0183 0A       		.uleb128 0xa
 1238 0184 A0000000 		.4byte	0xa0
 1239 0188 2E       		.byte	0x2e
 1240 0189 00       		.byte	0
 1241 018a 09       		.uleb128 0x9
 1242 018b E5000000 		.4byte	0xe5
 1243 018f 9A010000 		.4byte	0x19a
 1244 0193 0A       		.uleb128 0xa
 1245 0194 A0000000 		.4byte	0xa0
 1246 0198 2D       		.byte	0x2d
 1247 0199 00       		.byte	0
 1248 019a 09       		.uleb128 0x9
 1249 019b E0000000 		.4byte	0xe0
 1250 019f AB010000 		.4byte	0x1ab
 1251 01a3 0B       		.uleb128 0xb
 1252 01a4 A0000000 		.4byte	0xa0
 1253 01a8 FF01     		.2byte	0x1ff
 1254 01aa 00       		.byte	0
 1255 01ab 09       		.uleb128 0x9
 1256 01ac E5000000 		.4byte	0xe5
 1257 01b0 BB010000 		.4byte	0x1bb
 1258 01b4 0A       		.uleb128 0xa
 1259 01b5 A0000000 		.4byte	0xa0
 1260 01b9 62       		.byte	0x62
 1261 01ba 00       		.byte	0
 1262 01bb 0C       		.uleb128 0xc
 1263 01bc D00F     		.2byte	0xfd0
 1264 01be 05       		.byte	0x5
 1265 01bf 21       		.byte	0x21
 1266 01c0 25050000 		.4byte	0x525
 1267 01c4 0D       		.uleb128 0xd
ARM GAS  C:\Users\guill\AppData\Local\Temp\cclz5xua.s 			page 52


 1268 01c5 AF130000 		.4byte	.LASF20
 1269 01c9 05       		.byte	0x5
 1270 01ca 22       		.byte	0x22
 1271 01cb E0000000 		.4byte	0xe0
 1272 01cf 00       		.byte	0
 1273 01d0 0D       		.uleb128 0xd
 1274 01d1 49130000 		.4byte	.LASF21
 1275 01d5 05       		.byte	0x5
 1276 01d6 23       		.byte	0x23
 1277 01d7 E5000000 		.4byte	0xe5
 1278 01db 04       		.byte	0x4
 1279 01dc 0D       		.uleb128 0xd
 1280 01dd C0120000 		.4byte	.LASF22
 1281 01e1 05       		.byte	0x5
 1282 01e2 24       		.byte	0x24
 1283 01e3 E0000000 		.4byte	0xe0
 1284 01e7 08       		.byte	0x8
 1285 01e8 0D       		.uleb128 0xd
 1286 01e9 B1000000 		.4byte	.LASF23
 1287 01ed 05       		.byte	0x5
 1288 01ee 25       		.byte	0x25
 1289 01ef E5000000 		.4byte	0xe5
 1290 01f3 0C       		.byte	0xc
 1291 01f4 0D       		.uleb128 0xd
 1292 01f5 1E000000 		.4byte	.LASF24
 1293 01f9 05       		.byte	0x5
 1294 01fa 26       		.byte	0x26
 1295 01fb 2A050000 		.4byte	0x52a
 1296 01ff 10       		.byte	0x10
 1297 0200 0D       		.uleb128 0xd
 1298 0201 05100000 		.4byte	.LASF25
 1299 0205 05       		.byte	0x5
 1300 0206 27       		.byte	0x27
 1301 0207 E0000000 		.4byte	0xe0
 1302 020b 20       		.byte	0x20
 1303 020c 0D       		.uleb128 0xd
 1304 020d 04110000 		.4byte	.LASF26
 1305 0211 05       		.byte	0x5
 1306 0212 28       		.byte	0x28
 1307 0213 E5000000 		.4byte	0xe5
 1308 0217 24       		.byte	0x24
 1309 0218 0D       		.uleb128 0xd
 1310 0219 30130000 		.4byte	.LASF27
 1311 021d 05       		.byte	0x5
 1312 021e 29       		.byte	0x29
 1313 021f 34050000 		.4byte	0x534
 1314 0223 28       		.byte	0x28
 1315 0224 0D       		.uleb128 0xd
 1316 0225 7F120000 		.4byte	.LASF28
 1317 0229 05       		.byte	0x5
 1318 022a 2A       		.byte	0x2a
 1319 022b E0000000 		.4byte	0xe0
 1320 022f 40       		.byte	0x40
 1321 0230 0D       		.uleb128 0xd
 1322 0231 F9050000 		.4byte	.LASF29
 1323 0235 05       		.byte	0x5
 1324 0236 2B       		.byte	0x2b
ARM GAS  C:\Users\guill\AppData\Local\Temp\cclz5xua.s 			page 53


 1325 0237 E0000000 		.4byte	0xe0
 1326 023b 44       		.byte	0x44
 1327 023c 0D       		.uleb128 0xd
 1328 023d 7E030000 		.4byte	.LASF30
 1329 0241 05       		.byte	0x5
 1330 0242 2C       		.byte	0x2c
 1331 0243 E0000000 		.4byte	0xe0
 1332 0247 48       		.byte	0x48
 1333 0248 0D       		.uleb128 0xd
 1334 0249 5A0F0000 		.4byte	.LASF31
 1335 024d 05       		.byte	0x5
 1336 024e 2D       		.byte	0x2d
 1337 024f E5000000 		.4byte	0xe5
 1338 0253 4C       		.byte	0x4c
 1339 0254 0D       		.uleb128 0xd
 1340 0255 060B0000 		.4byte	.LASF32
 1341 0259 05       		.byte	0x5
 1342 025a 2E       		.byte	0x2e
 1343 025b E0000000 		.4byte	0xe0
 1344 025f 50       		.byte	0x50
 1345 0260 0D       		.uleb128 0xd
 1346 0261 000E0000 		.4byte	.LASF33
 1347 0265 05       		.byte	0x5
 1348 0266 2F       		.byte	0x2f
 1349 0267 3E050000 		.4byte	0x53e
 1350 026b 54       		.byte	0x54
 1351 026c 0D       		.uleb128 0xd
 1352 026d 6A100000 		.4byte	.LASF34
 1353 0271 05       		.byte	0x5
 1354 0272 30       		.byte	0x30
 1355 0273 E0000000 		.4byte	0xe0
 1356 0277 60       		.byte	0x60
 1357 0278 0D       		.uleb128 0xd
 1358 0279 C30E0000 		.4byte	.LASF35
 1359 027d 05       		.byte	0x5
 1360 027e 31       		.byte	0x31
 1361 027f E5000000 		.4byte	0xe5
 1362 0283 64       		.byte	0x64
 1363 0284 0D       		.uleb128 0xd
 1364 0285 EF040000 		.4byte	.LASF36
 1365 0289 05       		.byte	0x5
 1366 028a 32       		.byte	0x32
 1367 028b E0000000 		.4byte	0xe0
 1368 028f 68       		.byte	0x68
 1369 0290 0D       		.uleb128 0xd
 1370 0291 BE0D0000 		.4byte	.LASF37
 1371 0295 05       		.byte	0x5
 1372 0296 33       		.byte	0x33
 1373 0297 E0000000 		.4byte	0xe0
 1374 029b 6C       		.byte	0x6c
 1375 029c 0D       		.uleb128 0xd
 1376 029d EF030000 		.4byte	.LASF38
 1377 02a1 05       		.byte	0x5
 1378 02a2 34       		.byte	0x34
 1379 02a3 E0000000 		.4byte	0xe0
 1380 02a7 70       		.byte	0x70
 1381 02a8 0D       		.uleb128 0xd
ARM GAS  C:\Users\guill\AppData\Local\Temp\cclz5xua.s 			page 54


 1382 02a9 0A0E0000 		.4byte	.LASF39
 1383 02ad 05       		.byte	0x5
 1384 02ae 35       		.byte	0x35
 1385 02af 48050000 		.4byte	0x548
 1386 02b3 74       		.byte	0x74
 1387 02b4 0E       		.uleb128 0xe
 1388 02b5 25120000 		.4byte	.LASF40
 1389 02b9 05       		.byte	0x5
 1390 02ba 36       		.byte	0x36
 1391 02bb E0000000 		.4byte	0xe0
 1392 02bf 0002     		.2byte	0x200
 1393 02c1 0E       		.uleb128 0xe
 1394 02c2 B40F0000 		.4byte	.LASF41
 1395 02c6 05       		.byte	0x5
 1396 02c7 37       		.byte	0x37
 1397 02c8 E0000000 		.4byte	0xe0
 1398 02cc 0402     		.2byte	0x204
 1399 02ce 0E       		.uleb128 0xe
 1400 02cf 46010000 		.4byte	.LASF42
 1401 02d3 05       		.byte	0x5
 1402 02d4 38       		.byte	0x38
 1403 02d5 E5000000 		.4byte	0xe5
 1404 02d9 0802     		.2byte	0x208
 1405 02db 0E       		.uleb128 0xe
 1406 02dc 140E0000 		.4byte	.LASF43
 1407 02e0 05       		.byte	0x5
 1408 02e1 39       		.byte	0x39
 1409 02e2 52050000 		.4byte	0x552
 1410 02e6 0C02     		.2byte	0x20c
 1411 02e8 0E       		.uleb128 0xe
 1412 02e9 F1110000 		.4byte	.LASF44
 1413 02ed 05       		.byte	0x5
 1414 02ee 3A       		.byte	0x3a
 1415 02ef E0000000 		.4byte	0xe0
 1416 02f3 4002     		.2byte	0x240
 1417 02f5 0E       		.uleb128 0xe
 1418 02f6 1E0E0000 		.4byte	.LASF45
 1419 02fa 05       		.byte	0x5
 1420 02fb 3B       		.byte	0x3b
 1421 02fc 5C050000 		.4byte	0x55c
 1422 0300 4402     		.2byte	0x244
 1423 0302 0E       		.uleb128 0xe
 1424 0303 25100000 		.4byte	.LASF46
 1425 0307 05       		.byte	0x5
 1426 0308 3C       		.byte	0x3c
 1427 0309 E0000000 		.4byte	0xe0
 1428 030d 0003     		.2byte	0x300
 1429 030f 0E       		.uleb128 0xe
 1430 0310 DB010000 		.4byte	.LASF47
 1431 0314 05       		.byte	0x5
 1432 0315 3D       		.byte	0x3d
 1433 0316 E0000000 		.4byte	0xe0
 1434 031a 0403     		.2byte	0x304
 1435 031c 0E       		.uleb128 0xe
 1436 031d C6110000 		.4byte	.LASF48
 1437 0321 05       		.byte	0x5
 1438 0322 3E       		.byte	0x3e
ARM GAS  C:\Users\guill\AppData\Local\Temp\cclz5xua.s 			page 55


 1439 0323 E5000000 		.4byte	0xe5
 1440 0327 0803     		.2byte	0x308
 1441 0329 0E       		.uleb128 0xe
 1442 032a 280E0000 		.4byte	.LASF49
 1443 032e 05       		.byte	0x5
 1444 032f 3F       		.byte	0x3f
 1445 0330 E5000000 		.4byte	0xe5
 1446 0334 0C03     		.2byte	0x30c
 1447 0336 0E       		.uleb128 0xe
 1448 0337 98060000 		.4byte	.LASF50
 1449 033b 05       		.byte	0x5
 1450 033c 40       		.byte	0x40
 1451 033d E0000000 		.4byte	0xe0
 1452 0341 1003     		.2byte	0x310
 1453 0343 0E       		.uleb128 0xe
 1454 0344 320E0000 		.4byte	.LASF51
 1455 0348 05       		.byte	0x5
 1456 0349 41       		.byte	0x41
 1457 034a 66050000 		.4byte	0x566
 1458 034e 1403     		.2byte	0x314
 1459 0350 0E       		.uleb128 0xe
 1460 0351 87130000 		.4byte	.LASF52
 1461 0355 05       		.byte	0x5
 1462 0356 42       		.byte	0x42
 1463 0357 E5000000 		.4byte	0xe5
 1464 035b 4003     		.2byte	0x340
 1465 035d 0E       		.uleb128 0xe
 1466 035e 1E040000 		.4byte	.LASF53
 1467 0362 05       		.byte	0x5
 1468 0363 43       		.byte	0x43
 1469 0364 E5000000 		.4byte	0xe5
 1470 0368 4403     		.2byte	0x344
 1471 036a 0E       		.uleb128 0xe
 1472 036b 3C0E0000 		.4byte	.LASF54
 1473 036f 05       		.byte	0x5
 1474 0370 44       		.byte	0x44
 1475 0371 70050000 		.4byte	0x570
 1476 0375 4803     		.2byte	0x348
 1477 0377 0E       		.uleb128 0xe
 1478 0378 92130000 		.4byte	.LASF55
 1479 037c 05       		.byte	0x5
 1480 037d 45       		.byte	0x45
 1481 037e 75050000 		.4byte	0x575
 1482 0382 0004     		.2byte	0x400
 1483 0384 0E       		.uleb128 0xe
 1484 0385 460E0000 		.4byte	.LASF56
 1485 0389 05       		.byte	0x5
 1486 038a 46       		.byte	0x46
 1487 038b 7F050000 		.4byte	0x57f
 1488 038f 000C     		.2byte	0xc00
 1489 0391 0E       		.uleb128 0xe
 1490 0392 A1010000 		.4byte	.LASF57
 1491 0396 05       		.byte	0x5
 1492 0397 47       		.byte	0x47
 1493 0398 E5000000 		.4byte	0xe5
 1494 039c 000E     		.2byte	0xe00
 1495 039e 0E       		.uleb128 0xe
ARM GAS  C:\Users\guill\AppData\Local\Temp\cclz5xua.s 			page 56


 1496 039f 6E110000 		.4byte	.LASF58
 1497 03a3 05       		.byte	0x5
 1498 03a4 48       		.byte	0x48
 1499 03a5 89050000 		.4byte	0x589
 1500 03a9 040E     		.2byte	0xe04
 1501 03ab 0E       		.uleb128 0xe
 1502 03ac 36070000 		.4byte	.LASF59
 1503 03b0 05       		.byte	0x5
 1504 03b1 49       		.byte	0x49
 1505 03b2 E0000000 		.4byte	0xe0
 1506 03b6 800E     		.2byte	0xe80
 1507 03b8 0E       		.uleb128 0xe
 1508 03b9 79110000 		.4byte	.LASF60
 1509 03bd 05       		.byte	0x5
 1510 03be 4A       		.byte	0x4a
 1511 03bf E5000000 		.4byte	0xe5
 1512 03c3 840E     		.2byte	0xe84
 1513 03c5 0E       		.uleb128 0xe
 1514 03c6 E00C0000 		.4byte	.LASF61
 1515 03ca 05       		.byte	0x5
 1516 03cb 4B       		.byte	0x4b
 1517 03cc E0000000 		.4byte	0xe0
 1518 03d0 880E     		.2byte	0xe88
 1519 03d2 0E       		.uleb128 0xe
 1520 03d3 88080000 		.4byte	.LASF62
 1521 03d7 05       		.byte	0x5
 1522 03d8 4C       		.byte	0x4c
 1523 03d9 E5000000 		.4byte	0xe5
 1524 03dd 8C0E     		.2byte	0xe8c
 1525 03df 0E       		.uleb128 0xe
 1526 03e0 84110000 		.4byte	.LASF63
 1527 03e4 05       		.byte	0x5
 1528 03e5 4D       		.byte	0x4d
 1529 03e6 93050000 		.4byte	0x593
 1530 03ea 900E     		.2byte	0xe90
 1531 03ec 0E       		.uleb128 0xe
 1532 03ed 5E060000 		.4byte	.LASF64
 1533 03f1 05       		.byte	0x5
 1534 03f2 4E       		.byte	0x4e
 1535 03f3 E0000000 		.4byte	0xe0
 1536 03f7 C00E     		.2byte	0xec0
 1537 03f9 0E       		.uleb128 0xe
 1538 03fa 8F110000 		.4byte	.LASF65
 1539 03fe 05       		.byte	0x5
 1540 03ff 4F       		.byte	0x4f
 1541 0400 E5000000 		.4byte	0xe5
 1542 0404 C40E     		.2byte	0xec4
 1543 0406 0E       		.uleb128 0xe
 1544 0407 8D0D0000 		.4byte	.LASF66
 1545 040b 05       		.byte	0x5
 1546 040c 50       		.byte	0x50
 1547 040d E0000000 		.4byte	0xe0
 1548 0411 C80E     		.2byte	0xec8
 1549 0413 0E       		.uleb128 0xe
 1550 0414 D70F0000 		.4byte	.LASF67
 1551 0418 05       		.byte	0x5
 1552 0419 51       		.byte	0x51
ARM GAS  C:\Users\guill\AppData\Local\Temp\cclz5xua.s 			page 57


 1553 041a E5000000 		.4byte	0xe5
 1554 041e CC0E     		.2byte	0xecc
 1555 0420 0E       		.uleb128 0xe
 1556 0421 9A110000 		.4byte	.LASF68
 1557 0425 05       		.byte	0x5
 1558 0426 52       		.byte	0x52
 1559 0427 9D050000 		.4byte	0x59d
 1560 042b D00E     		.2byte	0xed0
 1561 042d 0E       		.uleb128 0xe
 1562 042e 92100000 		.4byte	.LASF69
 1563 0432 05       		.byte	0x5
 1564 0433 53       		.byte	0x53
 1565 0434 E0000000 		.4byte	0xe0
 1566 0438 000F     		.2byte	0xf00
 1567 043a 0E       		.uleb128 0xe
 1568 043b 5B040000 		.4byte	.LASF70
 1569 043f 05       		.byte	0x5
 1570 0440 54       		.byte	0x54
 1571 0441 E0000000 		.4byte	0xe0
 1572 0445 040F     		.2byte	0xf04
 1573 0447 0E       		.uleb128 0xe
 1574 0448 B8100000 		.4byte	.LASF71
 1575 044c 05       		.byte	0x5
 1576 044d 55       		.byte	0x55
 1577 044e E0000000 		.4byte	0xe0
 1578 0452 080F     		.2byte	0xf08
 1579 0454 0E       		.uleb128 0xe
 1580 0455 A2040000 		.4byte	.LASF72
 1581 0459 05       		.byte	0x5
 1582 045a 56       		.byte	0x56
 1583 045b E5000000 		.4byte	0xe5
 1584 045f 0C0F     		.2byte	0xf0c
 1585 0461 0E       		.uleb128 0xe
 1586 0462 A5110000 		.4byte	.LASF73
 1587 0466 05       		.byte	0x5
 1588 0467 57       		.byte	0x57
 1589 0468 A7050000 		.4byte	0x5a7
 1590 046c 100F     		.2byte	0xf10
 1591 046e 0E       		.uleb128 0xe
 1592 046f A0100000 		.4byte	.LASF74
 1593 0473 05       		.byte	0x5
 1594 0474 58       		.byte	0x58
 1595 0475 E0000000 		.4byte	0xe0
 1596 0479 400F     		.2byte	0xf40
 1597 047b 0E       		.uleb128 0xe
 1598 047c 25020000 		.4byte	.LASF75
 1599 0480 05       		.byte	0x5
 1600 0481 59       		.byte	0x59
 1601 0482 E0000000 		.4byte	0xe0
 1602 0486 440F     		.2byte	0xf44
 1603 0488 0E       		.uleb128 0xe
 1604 0489 47080000 		.4byte	.LASF76
 1605 048d 05       		.byte	0x5
 1606 048e 5A       		.byte	0x5a
 1607 048f E0000000 		.4byte	0xe0
 1608 0493 480F     		.2byte	0xf48
 1609 0495 0E       		.uleb128 0xe
ARM GAS  C:\Users\guill\AppData\Local\Temp\cclz5xua.s 			page 58


 1610 0496 4F070000 		.4byte	.LASF77
 1611 049a 05       		.byte	0x5
 1612 049b 5B       		.byte	0x5b
 1613 049c E5000000 		.4byte	0xe5
 1614 04a0 4C0F     		.2byte	0xf4c
 1615 04a2 0E       		.uleb128 0xe
 1616 04a3 B0110000 		.4byte	.LASF78
 1617 04a7 05       		.byte	0x5
 1618 04a8 5C       		.byte	0x5c
 1619 04a9 B1050000 		.4byte	0x5b1
 1620 04ad 500F     		.2byte	0xf50
 1621 04af 0E       		.uleb128 0xe
 1622 04b0 520F0000 		.4byte	.LASF79
 1623 04b4 05       		.byte	0x5
 1624 04b5 5D       		.byte	0x5d
 1625 04b6 E0000000 		.4byte	0xe0
 1626 04ba 800F     		.2byte	0xf80
 1627 04bc 0E       		.uleb128 0xe
 1628 04bd 3C020000 		.4byte	.LASF80
 1629 04c1 05       		.byte	0x5
 1630 04c2 5E       		.byte	0x5e
 1631 04c3 E0000000 		.4byte	0xe0
 1632 04c7 840F     		.2byte	0xf84
 1633 04c9 0E       		.uleb128 0xe
 1634 04ca C1000000 		.4byte	.LASF81
 1635 04ce 05       		.byte	0x5
 1636 04cf 5F       		.byte	0x5f
 1637 04d0 E0000000 		.4byte	0xe0
 1638 04d4 880F     		.2byte	0xf88
 1639 04d6 0E       		.uleb128 0xe
 1640 04d7 E90E0000 		.4byte	.LASF82
 1641 04db 05       		.byte	0x5
 1642 04dc 60       		.byte	0x60
 1643 04dd E5000000 		.4byte	0xe5
 1644 04e1 8C0F     		.2byte	0xf8c
 1645 04e3 0E       		.uleb128 0xe
 1646 04e4 BB110000 		.4byte	.LASF83
 1647 04e8 05       		.byte	0x5
 1648 04e9 61       		.byte	0x61
 1649 04ea BB050000 		.4byte	0x5bb
 1650 04ee 900F     		.2byte	0xf90
 1651 04f0 0E       		.uleb128 0xe
 1652 04f1 320C0000 		.4byte	.LASF84
 1653 04f5 05       		.byte	0x5
 1654 04f6 62       		.byte	0x62
 1655 04f7 E0000000 		.4byte	0xe0
 1656 04fb C00F     		.2byte	0xfc0
 1657 04fd 0E       		.uleb128 0xe
 1658 04fe 24130000 		.4byte	.LASF85
 1659 0502 05       		.byte	0x5
 1660 0503 63       		.byte	0x63
 1661 0504 E0000000 		.4byte	0xe0
 1662 0508 C40F     		.2byte	0xfc4
 1663 050a 0E       		.uleb128 0xe
 1664 050b 97120000 		.4byte	.LASF86
 1665 050f 05       		.byte	0x5
 1666 0510 64       		.byte	0x64
ARM GAS  C:\Users\guill\AppData\Local\Temp\cclz5xua.s 			page 59


 1667 0511 E0000000 		.4byte	0xe0
 1668 0515 C80F     		.2byte	0xfc8
 1669 0517 0E       		.uleb128 0xe
 1670 0518 48020000 		.4byte	.LASF87
 1671 051c 05       		.byte	0x5
 1672 051d 65       		.byte	0x65
 1673 051e E5000000 		.4byte	0xe5
 1674 0522 CC0F     		.2byte	0xfcc
 1675 0524 00       		.byte	0
 1676 0525 07       		.uleb128 0x7
 1677 0526 2A010000 		.4byte	0x12a
 1678 052a 08       		.uleb128 0x8
 1679 052b 25050000 		.4byte	0x525
 1680 052f 07       		.uleb128 0x7
 1681 0530 EA000000 		.4byte	0xea
 1682 0534 08       		.uleb128 0x8
 1683 0535 2F050000 		.4byte	0x52f
 1684 0539 07       		.uleb128 0x7
 1685 053a 3A010000 		.4byte	0x13a
 1686 053e 08       		.uleb128 0x8
 1687 053f 39050000 		.4byte	0x539
 1688 0543 07       		.uleb128 0x7
 1689 0544 AB010000 		.4byte	0x1ab
 1690 0548 08       		.uleb128 0x8
 1691 0549 43050000 		.4byte	0x543
 1692 054d 07       		.uleb128 0x7
 1693 054e 0A010000 		.4byte	0x10a
 1694 0552 08       		.uleb128 0x8
 1695 0553 4D050000 		.4byte	0x54d
 1696 0557 07       		.uleb128 0x7
 1697 0558 7A010000 		.4byte	0x17a
 1698 055c 08       		.uleb128 0x8
 1699 055d 57050000 		.4byte	0x557
 1700 0561 07       		.uleb128 0x7
 1701 0562 6A010000 		.4byte	0x16a
 1702 0566 08       		.uleb128 0x8
 1703 0567 61050000 		.4byte	0x561
 1704 056b 07       		.uleb128 0x7
 1705 056c 8A010000 		.4byte	0x18a
 1706 0570 08       		.uleb128 0x8
 1707 0571 6B050000 		.4byte	0x56b
 1708 0575 07       		.uleb128 0x7
 1709 0576 9A010000 		.4byte	0x19a
 1710 057a 07       		.uleb128 0x7
 1711 057b FA000000 		.4byte	0xfa
 1712 057f 08       		.uleb128 0x8
 1713 0580 7A050000 		.4byte	0x57a
 1714 0584 07       		.uleb128 0x7
 1715 0585 1A010000 		.4byte	0x11a
 1716 0589 08       		.uleb128 0x8
 1717 058a 84050000 		.4byte	0x584
 1718 058e 07       		.uleb128 0x7
 1719 058f 4A010000 		.4byte	0x14a
 1720 0593 08       		.uleb128 0x8
 1721 0594 8E050000 		.4byte	0x58e
 1722 0598 07       		.uleb128 0x7
 1723 0599 4A010000 		.4byte	0x14a
ARM GAS  C:\Users\guill\AppData\Local\Temp\cclz5xua.s 			page 60


 1724 059d 08       		.uleb128 0x8
 1725 059e 98050000 		.4byte	0x598
 1726 05a2 07       		.uleb128 0x7
 1727 05a3 4A010000 		.4byte	0x14a
 1728 05a7 08       		.uleb128 0x8
 1729 05a8 A2050000 		.4byte	0x5a2
 1730 05ac 07       		.uleb128 0x7
 1731 05ad 4A010000 		.4byte	0x14a
 1732 05b1 08       		.uleb128 0x8
 1733 05b2 AC050000 		.4byte	0x5ac
 1734 05b6 07       		.uleb128 0x7
 1735 05b7 4A010000 		.4byte	0x14a
 1736 05bb 08       		.uleb128 0x8
 1737 05bc B6050000 		.4byte	0x5b6
 1738 05c0 03       		.uleb128 0x3
 1739 05c1 03080000 		.4byte	.LASF88
 1740 05c5 05       		.byte	0x5
 1741 05c6 66       		.byte	0x66
 1742 05c7 BB010000 		.4byte	0x1bb
 1743 05cb 0F       		.uleb128 0xf
 1744 05cc DA030000 		.4byte	.LASF89
 1745 05d0 06       		.byte	0x6
 1746 05d1 4F06     		.2byte	0x64f
 1747 05d3 C0050000 		.4byte	0x5c0
 1748 05d7 10       		.uleb128 0x10
 1749 05d8 B8       		.byte	0xb8
 1750 05d9 07       		.byte	0x7
 1751 05da 34       		.byte	0x34
 1752 05db E8090000 		.4byte	0x9e8
 1753 05df 0D       		.uleb128 0xd
 1754 05e0 02020000 		.4byte	.LASF90
 1755 05e4 07       		.byte	0x7
 1756 05e5 37       		.byte	0x37
 1757 05e6 D5000000 		.4byte	0xd5
 1758 05ea 00       		.byte	0
 1759 05eb 0D       		.uleb128 0xd
 1760 05ec E3070000 		.4byte	.LASF91
 1761 05f0 07       		.byte	0x7
 1762 05f1 38       		.byte	0x38
 1763 05f2 D5000000 		.4byte	0xd5
 1764 05f6 04       		.byte	0x4
 1765 05f7 0D       		.uleb128 0xd
 1766 05f8 CE000000 		.4byte	.LASF92
 1767 05fc 07       		.byte	0x7
 1768 05fd 39       		.byte	0x39
 1769 05fe D5000000 		.4byte	0xd5
 1770 0602 08       		.byte	0x8
 1771 0603 0D       		.uleb128 0xd
 1772 0604 A9000000 		.4byte	.LASF93
 1773 0608 07       		.byte	0x7
 1774 0609 3A       		.byte	0x3a
 1775 060a D5000000 		.4byte	0xd5
 1776 060e 0C       		.byte	0xc
 1777 060f 0D       		.uleb128 0xd
 1778 0610 180F0000 		.4byte	.LASF94
 1779 0614 07       		.byte	0x7
 1780 0615 3B       		.byte	0x3b
ARM GAS  C:\Users\guill\AppData\Local\Temp\cclz5xua.s 			page 61


 1781 0616 D5000000 		.4byte	0xd5
 1782 061a 10       		.byte	0x10
 1783 061b 0D       		.uleb128 0xd
 1784 061c 2B0B0000 		.4byte	.LASF95
 1785 0620 07       		.byte	0x7
 1786 0621 3C       		.byte	0x3c
 1787 0622 D5000000 		.4byte	0xd5
 1788 0626 14       		.byte	0x14
 1789 0627 0D       		.uleb128 0xd
 1790 0628 2D070000 		.4byte	.LASF96
 1791 062c 07       		.byte	0x7
 1792 062d 3D       		.byte	0x3d
 1793 062e D5000000 		.4byte	0xd5
 1794 0632 18       		.byte	0x18
 1795 0633 0D       		.uleb128 0xd
 1796 0634 1C090000 		.4byte	.LASF97
 1797 0638 07       		.byte	0x7
 1798 0639 3E       		.byte	0x3e
 1799 063a D5000000 		.4byte	0xd5
 1800 063e 1C       		.byte	0x1c
 1801 063f 0D       		.uleb128 0xd
 1802 0640 C7090000 		.4byte	.LASF98
 1803 0644 07       		.byte	0x7
 1804 0645 3F       		.byte	0x3f
 1805 0646 D5000000 		.4byte	0xd5
 1806 064a 20       		.byte	0x20
 1807 064b 0D       		.uleb128 0xd
 1808 064c E4090000 		.4byte	.LASF99
 1809 0650 07       		.byte	0x7
 1810 0651 40       		.byte	0x40
 1811 0652 D5000000 		.4byte	0xd5
 1812 0656 24       		.byte	0x24
 1813 0657 0D       		.uleb128 0xd
 1814 0658 B60E0000 		.4byte	.LASF100
 1815 065c 07       		.byte	0x7
 1816 065d 43       		.byte	0x43
 1817 065e B4000000 		.4byte	0xb4
 1818 0662 28       		.byte	0x28
 1819 0663 0D       		.uleb128 0xd
 1820 0664 94040000 		.4byte	.LASF101
 1821 0668 07       		.byte	0x7
 1822 0669 44       		.byte	0x44
 1823 066a B4000000 		.4byte	0xb4
 1824 066e 29       		.byte	0x29
 1825 066f 0D       		.uleb128 0xd
 1826 0670 830D0000 		.4byte	.LASF102
 1827 0674 07       		.byte	0x7
 1828 0675 45       		.byte	0x45
 1829 0676 B4000000 		.4byte	0xb4
 1830 067a 2A       		.byte	0x2a
 1831 067b 0D       		.uleb128 0xd
 1832 067c F80E0000 		.4byte	.LASF103
 1833 0680 07       		.byte	0x7
 1834 0681 46       		.byte	0x46
 1835 0682 B4000000 		.4byte	0xb4
 1836 0686 2B       		.byte	0x2b
 1837 0687 0D       		.uleb128 0xd
ARM GAS  C:\Users\guill\AppData\Local\Temp\cclz5xua.s 			page 62


 1838 0688 DD0E0000 		.4byte	.LASF104
 1839 068c 07       		.byte	0x7
 1840 068d 47       		.byte	0x47
 1841 068e B4000000 		.4byte	0xb4
 1842 0692 2C       		.byte	0x2c
 1843 0693 0D       		.uleb128 0xd
 1844 0694 73100000 		.4byte	.LASF105
 1845 0698 07       		.byte	0x7
 1846 0699 48       		.byte	0x48
 1847 069a B4000000 		.4byte	0xb4
 1848 069e 2D       		.byte	0x2d
 1849 069f 0D       		.uleb128 0xd
 1850 06a0 9A130000 		.4byte	.LASF106
 1851 06a4 07       		.byte	0x7
 1852 06a5 49       		.byte	0x49
 1853 06a6 B4000000 		.4byte	0xb4
 1854 06aa 2E       		.byte	0x2e
 1855 06ab 0D       		.uleb128 0xd
 1856 06ac F0120000 		.4byte	.LASF107
 1857 06b0 07       		.byte	0x7
 1858 06b1 4A       		.byte	0x4a
 1859 06b2 B4000000 		.4byte	0xb4
 1860 06b6 2F       		.byte	0x2f
 1861 06b7 0D       		.uleb128 0xd
 1862 06b8 5B030000 		.4byte	.LASF108
 1863 06bc 07       		.byte	0x7
 1864 06bd 4B       		.byte	0x4b
 1865 06be B4000000 		.4byte	0xb4
 1866 06c2 30       		.byte	0x30
 1867 06c3 0D       		.uleb128 0xd
 1868 06c4 BD0B0000 		.4byte	.LASF109
 1869 06c8 07       		.byte	0x7
 1870 06c9 4E       		.byte	0x4e
 1871 06ca B4000000 		.4byte	0xb4
 1872 06ce 31       		.byte	0x31
 1873 06cf 0D       		.uleb128 0xd
 1874 06d0 89120000 		.4byte	.LASF110
 1875 06d4 07       		.byte	0x7
 1876 06d5 4F       		.byte	0x4f
 1877 06d6 B4000000 		.4byte	0xb4
 1878 06da 32       		.byte	0x32
 1879 06db 0D       		.uleb128 0xd
 1880 06dc 840B0000 		.4byte	.LASF111
 1881 06e0 07       		.byte	0x7
 1882 06e1 50       		.byte	0x50
 1883 06e2 B4000000 		.4byte	0xb4
 1884 06e6 33       		.byte	0x33
 1885 06e7 0D       		.uleb128 0xd
 1886 06e8 C5070000 		.4byte	.LASF112
 1887 06ec 07       		.byte	0x7
 1888 06ed 51       		.byte	0x51
 1889 06ee B4000000 		.4byte	0xb4
 1890 06f2 34       		.byte	0x34
 1891 06f3 0D       		.uleb128 0xd
 1892 06f4 67050000 		.4byte	.LASF113
 1893 06f8 07       		.byte	0x7
 1894 06f9 52       		.byte	0x52
ARM GAS  C:\Users\guill\AppData\Local\Temp\cclz5xua.s 			page 63


 1895 06fa BF000000 		.4byte	0xbf
 1896 06fe 36       		.byte	0x36
 1897 06ff 0D       		.uleb128 0xd
 1898 0700 1A020000 		.4byte	.LASF114
 1899 0704 07       		.byte	0x7
 1900 0705 53       		.byte	0x53
 1901 0706 BF000000 		.4byte	0xbf
 1902 070a 38       		.byte	0x38
 1903 070b 0D       		.uleb128 0xd
 1904 070c 570B0000 		.4byte	.LASF115
 1905 0710 07       		.byte	0x7
 1906 0711 54       		.byte	0x54
 1907 0712 BF000000 		.4byte	0xbf
 1908 0716 3A       		.byte	0x3a
 1909 0717 0D       		.uleb128 0xd
 1910 0718 3A130000 		.4byte	.LASF116
 1911 071c 07       		.byte	0x7
 1912 071d 55       		.byte	0x55
 1913 071e B4000000 		.4byte	0xb4
 1914 0722 3C       		.byte	0x3c
 1915 0723 0D       		.uleb128 0xd
 1916 0724 45060000 		.4byte	.LASF117
 1917 0728 07       		.byte	0x7
 1918 0729 56       		.byte	0x56
 1919 072a B4000000 		.4byte	0xb4
 1920 072e 3D       		.byte	0x3d
 1921 072f 0D       		.uleb128 0xd
 1922 0730 540D0000 		.4byte	.LASF118
 1923 0734 07       		.byte	0x7
 1924 0735 57       		.byte	0x57
 1925 0736 B4000000 		.4byte	0xb4
 1926 073a 3E       		.byte	0x3e
 1927 073b 0D       		.uleb128 0xd
 1928 073c 80000000 		.4byte	.LASF119
 1929 0740 07       		.byte	0x7
 1930 0741 58       		.byte	0x58
 1931 0742 B4000000 		.4byte	0xb4
 1932 0746 3F       		.byte	0x3f
 1933 0747 0D       		.uleb128 0xd
 1934 0748 AC010000 		.4byte	.LASF120
 1935 074c 07       		.byte	0x7
 1936 074d 59       		.byte	0x59
 1937 074e B4000000 		.4byte	0xb4
 1938 0752 40       		.byte	0x40
 1939 0753 0D       		.uleb128 0xd
 1940 0754 66020000 		.4byte	.LASF121
 1941 0758 07       		.byte	0x7
 1942 0759 5A       		.byte	0x5a
 1943 075a B4000000 		.4byte	0xb4
 1944 075e 41       		.byte	0x41
 1945 075f 0D       		.uleb128 0xd
 1946 0760 2D120000 		.4byte	.LASF122
 1947 0764 07       		.byte	0x7
 1948 0765 5B       		.byte	0x5b
 1949 0766 B4000000 		.4byte	0xb4
 1950 076a 42       		.byte	0x42
 1951 076b 0D       		.uleb128 0xd
ARM GAS  C:\Users\guill\AppData\Local\Temp\cclz5xua.s 			page 64


 1952 076c 73070000 		.4byte	.LASF123
 1953 0770 07       		.byte	0x7
 1954 0771 5C       		.byte	0x5c
 1955 0772 B4000000 		.4byte	0xb4
 1956 0776 43       		.byte	0x43
 1957 0777 0D       		.uleb128 0xd
 1958 0778 53080000 		.4byte	.LASF124
 1959 077c 07       		.byte	0x7
 1960 077d 5D       		.byte	0x5d
 1961 077e B4000000 		.4byte	0xb4
 1962 0782 44       		.byte	0x44
 1963 0783 0D       		.uleb128 0xd
 1964 0784 060F0000 		.4byte	.LASF125
 1965 0788 07       		.byte	0x7
 1966 0789 5E       		.byte	0x5e
 1967 078a D5000000 		.4byte	0xd5
 1968 078e 48       		.byte	0x48
 1969 078f 0D       		.uleb128 0xd
 1970 0790 DD020000 		.4byte	.LASF126
 1971 0794 07       		.byte	0x7
 1972 0795 5F       		.byte	0x5f
 1973 0796 D5000000 		.4byte	0xd5
 1974 079a 4C       		.byte	0x4c
 1975 079b 0D       		.uleb128 0xd
 1976 079c 14120000 		.4byte	.LASF127
 1977 07a0 07       		.byte	0x7
 1978 07a1 60       		.byte	0x60
 1979 07a2 B4000000 		.4byte	0xb4
 1980 07a6 50       		.byte	0x50
 1981 07a7 0D       		.uleb128 0xd
 1982 07a8 77060000 		.4byte	.LASF128
 1983 07ac 07       		.byte	0x7
 1984 07ad 61       		.byte	0x61
 1985 07ae B4000000 		.4byte	0xb4
 1986 07b2 51       		.byte	0x51
 1987 07b3 0D       		.uleb128 0xd
 1988 07b4 420A0000 		.4byte	.LASF129
 1989 07b8 07       		.byte	0x7
 1990 07b9 62       		.byte	0x62
 1991 07ba B4000000 		.4byte	0xb4
 1992 07be 52       		.byte	0x52
 1993 07bf 0D       		.uleb128 0xd
 1994 07c0 B0040000 		.4byte	.LASF130
 1995 07c4 07       		.byte	0x7
 1996 07c5 63       		.byte	0x63
 1997 07c6 B4000000 		.4byte	0xb4
 1998 07ca 53       		.byte	0x53
 1999 07cb 0D       		.uleb128 0xd
 2000 07cc 0C060000 		.4byte	.LASF131
 2001 07d0 07       		.byte	0x7
 2002 07d1 64       		.byte	0x64
 2003 07d2 B4000000 		.4byte	0xb4
 2004 07d6 54       		.byte	0x54
 2005 07d7 0D       		.uleb128 0xd
 2006 07d8 FB060000 		.4byte	.LASF132
 2007 07dc 07       		.byte	0x7
 2008 07dd 65       		.byte	0x65
ARM GAS  C:\Users\guill\AppData\Local\Temp\cclz5xua.s 			page 65


 2009 07de B4000000 		.4byte	0xb4
 2010 07e2 55       		.byte	0x55
 2011 07e3 0D       		.uleb128 0xd
 2012 07e4 00000000 		.4byte	.LASF133
 2013 07e8 07       		.byte	0x7
 2014 07e9 66       		.byte	0x66
 2015 07ea B4000000 		.4byte	0xb4
 2016 07ee 56       		.byte	0x56
 2017 07ef 0D       		.uleb128 0xd
 2018 07f0 10130000 		.4byte	.LASF134
 2019 07f4 07       		.byte	0x7
 2020 07f5 67       		.byte	0x67
 2021 07f6 B4000000 		.4byte	0xb4
 2022 07fa 57       		.byte	0x57
 2023 07fb 0D       		.uleb128 0xd
 2024 07fc 31060000 		.4byte	.LASF135
 2025 0800 07       		.byte	0x7
 2026 0801 68       		.byte	0x68
 2027 0802 B4000000 		.4byte	0xb4
 2028 0806 58       		.byte	0x58
 2029 0807 0D       		.uleb128 0xd
 2030 0808 69130000 		.4byte	.LASF136
 2031 080c 07       		.byte	0x7
 2032 080d 69       		.byte	0x69
 2033 080e B4000000 		.4byte	0xb4
 2034 0812 59       		.byte	0x59
 2035 0813 0D       		.uleb128 0xd
 2036 0814 74120000 		.4byte	.LASF137
 2037 0818 07       		.byte	0x7
 2038 0819 6E       		.byte	0x6e
 2039 081a CA000000 		.4byte	0xca
 2040 081e 5A       		.byte	0x5a
 2041 081f 0D       		.uleb128 0xd
 2042 0820 28010000 		.4byte	.LASF138
 2043 0824 07       		.byte	0x7
 2044 0825 6F       		.byte	0x6f
 2045 0826 CA000000 		.4byte	0xca
 2046 082a 5C       		.byte	0x5c
 2047 082b 0D       		.uleb128 0xd
 2048 082c CF090000 		.4byte	.LASF139
 2049 0830 07       		.byte	0x7
 2050 0831 70       		.byte	0x70
 2051 0832 B4000000 		.4byte	0xb4
 2052 0836 5E       		.byte	0x5e
 2053 0837 0D       		.uleb128 0xd
 2054 0838 A4120000 		.4byte	.LASF140
 2055 083c 07       		.byte	0x7
 2056 083d 71       		.byte	0x71
 2057 083e B4000000 		.4byte	0xb4
 2058 0842 5F       		.byte	0x5f
 2059 0843 0D       		.uleb128 0xd
 2060 0844 7E070000 		.4byte	.LASF141
 2061 0848 07       		.byte	0x7
 2062 0849 72       		.byte	0x72
 2063 084a B4000000 		.4byte	0xb4
 2064 084e 60       		.byte	0x60
 2065 084f 0D       		.uleb128 0xd
ARM GAS  C:\Users\guill\AppData\Local\Temp\cclz5xua.s 			page 66


 2066 0850 DC080000 		.4byte	.LASF142
 2067 0854 07       		.byte	0x7
 2068 0855 73       		.byte	0x73
 2069 0856 D5000000 		.4byte	0xd5
 2070 085a 64       		.byte	0x64
 2071 085b 0D       		.uleb128 0xd
 2072 085c 9E0D0000 		.4byte	.LASF143
 2073 0860 07       		.byte	0x7
 2074 0861 76       		.byte	0x76
 2075 0862 CA000000 		.4byte	0xca
 2076 0866 68       		.byte	0x68
 2077 0867 0D       		.uleb128 0xd
 2078 0868 130D0000 		.4byte	.LASF144
 2079 086c 07       		.byte	0x7
 2080 086d 77       		.byte	0x77
 2081 086e CA000000 		.4byte	0xca
 2082 0872 6A       		.byte	0x6a
 2083 0873 0D       		.uleb128 0xd
 2084 0874 480B0000 		.4byte	.LASF145
 2085 0878 07       		.byte	0x7
 2086 0879 78       		.byte	0x78
 2087 087a CA000000 		.4byte	0xca
 2088 087e 6C       		.byte	0x6c
 2089 087f 0D       		.uleb128 0xd
 2090 0880 8C020000 		.4byte	.LASF146
 2091 0884 07       		.byte	0x7
 2092 0885 79       		.byte	0x79
 2093 0886 CA000000 		.4byte	0xca
 2094 088a 6E       		.byte	0x6e
 2095 088b 0D       		.uleb128 0xd
 2096 088c 25090000 		.4byte	.LASF147
 2097 0890 07       		.byte	0x7
 2098 0891 7B       		.byte	0x7b
 2099 0892 B4000000 		.4byte	0xb4
 2100 0896 70       		.byte	0x70
 2101 0897 0D       		.uleb128 0xd
 2102 0898 AF030000 		.4byte	.LASF148
 2103 089c 07       		.byte	0x7
 2104 089d 7C       		.byte	0x7c
 2105 089e B4000000 		.4byte	0xb4
 2106 08a2 71       		.byte	0x71
 2107 08a3 0D       		.uleb128 0xd
 2108 08a4 C7020000 		.4byte	.LASF149
 2109 08a8 07       		.byte	0x7
 2110 08a9 7D       		.byte	0x7d
 2111 08aa B4000000 		.4byte	0xb4
 2112 08ae 72       		.byte	0x72
 2113 08af 0D       		.uleb128 0xd
 2114 08b0 B9010000 		.4byte	.LASF150
 2115 08b4 07       		.byte	0x7
 2116 08b5 7E       		.byte	0x7e
 2117 08b6 B4000000 		.4byte	0xb4
 2118 08ba 73       		.byte	0x73
 2119 08bb 0D       		.uleb128 0xd
 2120 08bc EE0D0000 		.4byte	.LASF151
 2121 08c0 07       		.byte	0x7
 2122 08c1 80       		.byte	0x80
ARM GAS  C:\Users\guill\AppData\Local\Temp\cclz5xua.s 			page 67


 2123 08c2 CA000000 		.4byte	0xca
 2124 08c6 74       		.byte	0x74
 2125 08c7 0D       		.uleb128 0xd
 2126 08c8 500E0000 		.4byte	.LASF152
 2127 08cc 07       		.byte	0x7
 2128 08cd 81       		.byte	0x81
 2129 08ce CA000000 		.4byte	0xca
 2130 08d2 76       		.byte	0x76
 2131 08d3 0D       		.uleb128 0xd
 2132 08d4 5F090000 		.4byte	.LASF153
 2133 08d8 07       		.byte	0x7
 2134 08d9 82       		.byte	0x82
 2135 08da CA000000 		.4byte	0xca
 2136 08de 78       		.byte	0x78
 2137 08df 0D       		.uleb128 0xd
 2138 08e0 3E050000 		.4byte	.LASF154
 2139 08e4 07       		.byte	0x7
 2140 08e5 83       		.byte	0x83
 2141 08e6 CA000000 		.4byte	0xca
 2142 08ea 7A       		.byte	0x7a
 2143 08eb 0D       		.uleb128 0xd
 2144 08ec 4A090000 		.4byte	.LASF155
 2145 08f0 07       		.byte	0x7
 2146 08f1 86       		.byte	0x86
 2147 08f2 B4000000 		.4byte	0xb4
 2148 08f6 7C       		.byte	0x7c
 2149 08f7 0D       		.uleb128 0xd
 2150 08f8 53110000 		.4byte	.LASF156
 2151 08fc 07       		.byte	0x7
 2152 08fd 87       		.byte	0x87
 2153 08fe B4000000 		.4byte	0xb4
 2154 0902 7D       		.byte	0x7d
 2155 0903 0D       		.uleb128 0xd
 2156 0904 14050000 		.4byte	.LASF157
 2157 0908 07       		.byte	0x7
 2158 0909 88       		.byte	0x88
 2159 090a B4000000 		.4byte	0xb4
 2160 090e 7E       		.byte	0x7e
 2161 090f 0D       		.uleb128 0xd
 2162 0910 66040000 		.4byte	.LASF158
 2163 0914 07       		.byte	0x7
 2164 0915 89       		.byte	0x89
 2165 0916 B4000000 		.4byte	0xb4
 2166 091a 7F       		.byte	0x7f
 2167 091b 0D       		.uleb128 0xd
 2168 091c 53050000 		.4byte	.LASF159
 2169 0920 07       		.byte	0x7
 2170 0921 8A       		.byte	0x8a
 2171 0922 B4000000 		.4byte	0xb4
 2172 0926 80       		.byte	0x80
 2173 0927 0D       		.uleb128 0xd
 2174 0928 69000000 		.4byte	.LASF160
 2175 092c 07       		.byte	0x7
 2176 092d 8D       		.byte	0x8d
 2177 092e D5000000 		.4byte	0xd5
 2178 0932 84       		.byte	0x84
 2179 0933 0D       		.uleb128 0xd
ARM GAS  C:\Users\guill\AppData\Local\Temp\cclz5xua.s 			page 68


 2180 0934 0E100000 		.4byte	.LASF161
 2181 0938 07       		.byte	0x7
 2182 0939 8E       		.byte	0x8e
 2183 093a D5000000 		.4byte	0xd5
 2184 093e 88       		.byte	0x88
 2185 093f 0D       		.uleb128 0xd
 2186 0940 C80B0000 		.4byte	.LASF162
 2187 0944 07       		.byte	0x7
 2188 0945 8F       		.byte	0x8f
 2189 0946 D5000000 		.4byte	0xd5
 2190 094a 8C       		.byte	0x8c
 2191 094b 0D       		.uleb128 0xd
 2192 094c E2100000 		.4byte	.LASF163
 2193 0950 07       		.byte	0x7
 2194 0951 90       		.byte	0x90
 2195 0952 D5000000 		.4byte	0xd5
 2196 0956 90       		.byte	0x90
 2197 0957 0D       		.uleb128 0xd
 2198 0958 950F0000 		.4byte	.LASF164
 2199 095c 07       		.byte	0x7
 2200 095d 91       		.byte	0x91
 2201 095e D5000000 		.4byte	0xd5
 2202 0962 94       		.byte	0x94
 2203 0963 0D       		.uleb128 0xd
 2204 0964 C4030000 		.4byte	.LASF165
 2205 0968 07       		.byte	0x7
 2206 0969 92       		.byte	0x92
 2207 096a D5000000 		.4byte	0xd5
 2208 096e 98       		.byte	0x98
 2209 096f 0D       		.uleb128 0xd
 2210 0970 37100000 		.4byte	.LASF166
 2211 0974 07       		.byte	0x7
 2212 0975 93       		.byte	0x93
 2213 0976 D5000000 		.4byte	0xd5
 2214 097a 9C       		.byte	0x9c
 2215 097b 0D       		.uleb128 0xd
 2216 097c 5D070000 		.4byte	.LASF167
 2217 0980 07       		.byte	0x7
 2218 0981 94       		.byte	0x94
 2219 0982 D5000000 		.4byte	0xd5
 2220 0986 A0       		.byte	0xa0
 2221 0987 0D       		.uleb128 0xd
 2222 0988 0A010000 		.4byte	.LASF168
 2223 098c 07       		.byte	0x7
 2224 098d 95       		.byte	0x95
 2225 098e CA000000 		.4byte	0xca
 2226 0992 A4       		.byte	0xa4
 2227 0993 0D       		.uleb128 0xd
 2228 0994 C80D0000 		.4byte	.LASF169
 2229 0998 07       		.byte	0x7
 2230 0999 96       		.byte	0x96
 2231 099a CA000000 		.4byte	0xca
 2232 099e A6       		.byte	0xa6
 2233 099f 0D       		.uleb128 0xd
 2234 09a0 8B030000 		.4byte	.LASF170
 2235 09a4 07       		.byte	0x7
 2236 09a5 97       		.byte	0x97
ARM GAS  C:\Users\guill\AppData\Local\Temp\cclz5xua.s 			page 69


 2237 09a6 CA000000 		.4byte	0xca
 2238 09aa A8       		.byte	0xa8
 2239 09ab 0D       		.uleb128 0xd
 2240 09ac AB090000 		.4byte	.LASF171
 2241 09b0 07       		.byte	0x7
 2242 09b1 98       		.byte	0x98
 2243 09b2 CA000000 		.4byte	0xca
 2244 09b6 AA       		.byte	0xaa
 2245 09b7 0D       		.uleb128 0xd
 2246 09b8 F0020000 		.4byte	.LASF172
 2247 09bc 07       		.byte	0x7
 2248 09bd 99       		.byte	0x99
 2249 09be CA000000 		.4byte	0xca
 2250 09c2 AC       		.byte	0xac
 2251 09c3 0D       		.uleb128 0xd
 2252 09c4 060C0000 		.4byte	.LASF173
 2253 09c8 07       		.byte	0x7
 2254 09c9 9A       		.byte	0x9a
 2255 09ca CA000000 		.4byte	0xca
 2256 09ce AE       		.byte	0xae
 2257 09cf 0D       		.uleb128 0xd
 2258 09d0 10030000 		.4byte	.LASF174
 2259 09d4 07       		.byte	0x7
 2260 09d5 9D       		.byte	0x9d
 2261 09d6 CA000000 		.4byte	0xca
 2262 09da B0       		.byte	0xb0
 2263 09db 0D       		.uleb128 0xd
 2264 09dc 28110000 		.4byte	.LASF175
 2265 09e0 07       		.byte	0x7
 2266 09e1 9E       		.byte	0x9e
 2267 09e2 D5000000 		.4byte	0xd5
 2268 09e6 B4       		.byte	0xb4
 2269 09e7 00       		.byte	0
 2270 09e8 03       		.uleb128 0x3
 2271 09e9 CE120000 		.4byte	.LASF176
 2272 09ed 07       		.byte	0x7
 2273 09ee 9F       		.byte	0x9f
 2274 09ef D7050000 		.4byte	0x5d7
 2275 09f3 02       		.uleb128 0x2
 2276 09f4 04       		.byte	0x4
 2277 09f5 04       		.byte	0x4
 2278 09f6 8E040000 		.4byte	.LASF177
 2279 09fa 02       		.uleb128 0x2
 2280 09fb 08       		.byte	0x8
 2281 09fc 04       		.byte	0x4
 2282 09fd FC120000 		.4byte	.LASF178
 2283 0a01 02       		.uleb128 0x2
 2284 0a02 01       		.byte	0x1
 2285 0a03 02       		.byte	0x2
 2286 0a04 92060000 		.4byte	.LASF179
 2287 0a08 11       		.uleb128 0x11
 2288 0a09 04       		.byte	0x4
 2289 0a0a 90000000 		.4byte	0x90
 2290 0a0e 02       		.byte	0x2
 2291 0a0f DF01     		.2byte	0x1df
 2292 0a11 640A0000 		.4byte	0xa64
 2293 0a15 12       		.uleb128 0x12
ARM GAS  C:\Users\guill\AppData\Local\Temp\cclz5xua.s 			page 70


 2294 0a16 75080000 		.4byte	.LASF180
 2295 0a1a 00       		.byte	0
 2296 0a1b 13       		.uleb128 0x13
 2297 0a1c 31010000 		.4byte	.LASF181
 2298 0a20 0120AA00 		.4byte	0xaa2001
 2299 0a24 13       		.uleb128 0x13
 2300 0a25 A1060000 		.4byte	.LASF182
 2301 0a29 0220AA00 		.4byte	0xaa2002
 2302 0a2d 13       		.uleb128 0x13
 2303 0a2e 400C0000 		.4byte	.LASF183
 2304 0a32 0320AA00 		.4byte	0xaa2003
 2305 0a36 13       		.uleb128 0x13
 2306 0a37 250D0000 		.4byte	.LASF184
 2307 0a3b 0420AA00 		.4byte	0xaa2004
 2308 0a3f 13       		.uleb128 0x13
 2309 0a40 300F0000 		.4byte	.LASF185
 2310 0a44 0520AA00 		.4byte	0xaa2005
 2311 0a48 13       		.uleb128 0x13
 2312 0a49 D9060000 		.4byte	.LASF186
 2313 0a4d 0620AA00 		.4byte	0xaa2006
 2314 0a51 13       		.uleb128 0x13
 2315 0a52 620D0000 		.4byte	.LASF187
 2316 0a56 0720AA00 		.4byte	0xaa2007
 2317 0a5a 13       		.uleb128 0x13
 2318 0a5b 11080000 		.4byte	.LASF188
 2319 0a5f 0820AA00 		.4byte	0xaa2008
 2320 0a63 00       		.byte	0
 2321 0a64 0F       		.uleb128 0xf
 2322 0a65 4D100000 		.4byte	.LASF189
 2323 0a69 02       		.byte	0x2
 2324 0a6a 1102     		.2byte	0x211
 2325 0a6c 080A0000 		.4byte	0xa08
 2326 0a70 11       		.uleb128 0x11
 2327 0a71 01       		.byte	0x1
 2328 0a72 37000000 		.4byte	0x37
 2329 0a76 02       		.byte	0x2
 2330 0a77 1502     		.2byte	0x215
 2331 0a79 900A0000 		.4byte	0xa90
 2332 0a7d 12       		.uleb128 0x12
 2333 0a7e 36080000 		.4byte	.LASF190
 2334 0a82 01       		.byte	0x1
 2335 0a83 12       		.uleb128 0x12
 2336 0a84 FE020000 		.4byte	.LASF191
 2337 0a88 02       		.byte	0x2
 2338 0a89 12       		.uleb128 0x12
 2339 0a8a 630E0000 		.4byte	.LASF192
 2340 0a8e 03       		.byte	0x3
 2341 0a8f 00       		.byte	0
 2342 0a90 0F       		.uleb128 0xf
 2343 0a91 EE070000 		.4byte	.LASF193
 2344 0a95 02       		.byte	0x2
 2345 0a96 1902     		.2byte	0x219
 2346 0a98 700A0000 		.4byte	0xa70
 2347 0a9c 11       		.uleb128 0x11
 2348 0a9d 01       		.byte	0x1
 2349 0a9e 37000000 		.4byte	0x37
 2350 0aa2 02       		.byte	0x2
ARM GAS  C:\Users\guill\AppData\Local\Temp\cclz5xua.s 			page 71


 2351 0aa3 1D02     		.2byte	0x21d
 2352 0aa5 B60A0000 		.4byte	0xab6
 2353 0aa9 12       		.uleb128 0x12
 2354 0aaa C10F0000 		.4byte	.LASF194
 2355 0aae 00       		.byte	0
 2356 0aaf 12       		.uleb128 0x12
 2357 0ab0 D7000000 		.4byte	.LASF195
 2358 0ab4 01       		.byte	0x1
 2359 0ab5 00       		.byte	0
 2360 0ab6 11       		.uleb128 0x11
 2361 0ab7 01       		.byte	0x1
 2362 0ab8 37000000 		.4byte	0x37
 2363 0abc 02       		.byte	0x2
 2364 0abd 2402     		.2byte	0x224
 2365 0abf D00A0000 		.4byte	0xad0
 2366 0ac3 12       		.uleb128 0x12
 2367 0ac4 57020000 		.4byte	.LASF196
 2368 0ac8 00       		.byte	0
 2369 0ac9 12       		.uleb128 0x12
 2370 0aca 1E030000 		.4byte	.LASF197
 2371 0ace 01       		.byte	0x1
 2372 0acf 00       		.byte	0
 2373 0ad0 0F       		.uleb128 0xf
 2374 0ad1 DD0B0000 		.4byte	.LASF198
 2375 0ad5 02       		.byte	0x2
 2376 0ad6 2702     		.2byte	0x227
 2377 0ad8 B60A0000 		.4byte	0xab6
 2378 0adc 0F       		.uleb128 0xf
 2379 0add 73010000 		.4byte	.LASF199
 2380 0ae1 02       		.byte	0x2
 2381 0ae2 3902     		.2byte	0x239
 2382 0ae4 E80A0000 		.4byte	0xae8
 2383 0ae8 06       		.uleb128 0x6
 2384 0ae9 04       		.byte	0x4
 2385 0aea EE0A0000 		.4byte	0xaee
 2386 0aee 14       		.uleb128 0x14
 2387 0aef F90A0000 		.4byte	0xaf9
 2388 0af3 15       		.uleb128 0x15
 2389 0af4 D5000000 		.4byte	0xd5
 2390 0af8 00       		.byte	0
 2391 0af9 0F       		.uleb128 0xf
 2392 0afa 2D030000 		.4byte	.LASF200
 2393 0afe 02       		.byte	0x2
 2394 0aff 4402     		.2byte	0x244
 2395 0b01 050B0000 		.4byte	0xb05
 2396 0b05 06       		.uleb128 0x6
 2397 0b06 04       		.byte	0x4
 2398 0b07 0B0B0000 		.4byte	0xb0b
 2399 0b0b 16       		.uleb128 0x16
 2400 0b0c D00A0000 		.4byte	0xad0
 2401 0b10 1A0B0000 		.4byte	0xb1a
 2402 0b14 15       		.uleb128 0x15
 2403 0b15 D5000000 		.4byte	0xd5
 2404 0b19 00       		.byte	0
 2405 0b1a 17       		.uleb128 0x17
 2406 0b1b F5080000 		.4byte	.LASF213
 2407 0b1f 14       		.byte	0x14
ARM GAS  C:\Users\guill\AppData\Local\Temp\cclz5xua.s 			page 72


 2408 0b20 02       		.byte	0x2
 2409 0b21 4702     		.2byte	0x247
 2410 0b23 B70B0000 		.4byte	0xbb7
 2411 0b27 18       		.uleb128 0x18
 2412 0b28 DE120000 		.4byte	.LASF201
 2413 0b2c 02       		.byte	0x2
 2414 0b2d 4A02     		.2byte	0x24a
 2415 0b2f 900A0000 		.4byte	0xa90
 2416 0b33 00       		.byte	0
 2417 0b34 18       		.uleb128 0x18
 2418 0b35 19070000 		.4byte	.LASF202
 2419 0b39 02       		.byte	0x2
 2420 0b3a 6B02     		.2byte	0x26b
 2421 0b3c 010A0000 		.4byte	0xa01
 2422 0b40 01       		.byte	0x1
 2423 0b41 18       		.uleb128 0x18
 2424 0b42 FE090000 		.4byte	.LASF203
 2425 0b46 02       		.byte	0x2
 2426 0b47 8302     		.2byte	0x283
 2427 0b49 010A0000 		.4byte	0xa01
 2428 0b4d 02       		.byte	0x2
 2429 0b4e 18       		.uleb128 0x18
 2430 0b4f F7100000 		.4byte	.LASF204
 2431 0b53 02       		.byte	0x2
 2432 0b54 8802     		.2byte	0x288
 2433 0b56 B4000000 		.4byte	0xb4
 2434 0b5a 03       		.byte	0x3
 2435 0b5b 18       		.uleb128 0x18
 2436 0b5c A7100000 		.4byte	.LASF205
 2437 0b60 02       		.byte	0x2
 2438 0b61 9302     		.2byte	0x293
 2439 0b63 B4000000 		.4byte	0xb4
 2440 0b67 04       		.byte	0x4
 2441 0b68 18       		.uleb128 0x18
 2442 0b69 8F070000 		.4byte	.LASF206
 2443 0b6d 02       		.byte	0x2
 2444 0b6e 9902     		.2byte	0x299
 2445 0b70 010A0000 		.4byte	0xa01
 2446 0b74 05       		.byte	0x5
 2447 0b75 18       		.uleb128 0x18
 2448 0b76 AA080000 		.4byte	.LASF207
 2449 0b7a 02       		.byte	0x2
 2450 0b7b 9F02     		.2byte	0x29f
 2451 0b7d 010A0000 		.4byte	0xa01
 2452 0b81 06       		.byte	0x6
 2453 0b82 18       		.uleb128 0x18
 2454 0b83 7A040000 		.4byte	.LASF208
 2455 0b87 02       		.byte	0x2
 2456 0b88 A602     		.2byte	0x2a6
 2457 0b8a 010A0000 		.4byte	0xa01
 2458 0b8e 07       		.byte	0x7
 2459 0b8f 18       		.uleb128 0x18
 2460 0b90 9D0C0000 		.4byte	.LASF209
 2461 0b94 02       		.byte	0x2
 2462 0b95 AC02     		.2byte	0x2ac
 2463 0b97 010A0000 		.4byte	0xa01
 2464 0b9b 08       		.byte	0x8
ARM GAS  C:\Users\guill\AppData\Local\Temp\cclz5xua.s 			page 73


 2465 0b9c 18       		.uleb128 0x18
 2466 0b9d 300A0000 		.4byte	.LASF210
 2467 0ba1 02       		.byte	0x2
 2468 0ba2 B202     		.2byte	0x2b2
 2469 0ba4 D5000000 		.4byte	0xd5
 2470 0ba8 0C       		.byte	0xc
 2471 0ba9 18       		.uleb128 0x18
 2472 0baa 35000000 		.4byte	.LASF211
 2473 0bae 02       		.byte	0x2
 2474 0baf B802     		.2byte	0x2b8
 2475 0bb1 D5000000 		.4byte	0xd5
 2476 0bb5 10       		.byte	0x10
 2477 0bb6 00       		.byte	0
 2478 0bb7 0F       		.uleb128 0xf
 2479 0bb8 74090000 		.4byte	.LASF212
 2480 0bbc 02       		.byte	0x2
 2481 0bbd BA02     		.2byte	0x2ba
 2482 0bbf 1A0B0000 		.4byte	0xb1a
 2483 0bc3 17       		.uleb128 0x17
 2484 0bc4 67030000 		.4byte	.LASF214
 2485 0bc8 4C       		.byte	0x4c
 2486 0bc9 02       		.byte	0x2
 2487 0bca C302     		.2byte	0x2c3
 2488 0bcc E20C0000 		.4byte	0xce2
 2489 0bd0 18       		.uleb128 0x18
 2490 0bd1 19070000 		.4byte	.LASF202
 2491 0bd5 02       		.byte	0x2
 2492 0bd6 C602     		.2byte	0x2c6
 2493 0bd8 010A0000 		.4byte	0xa01
 2494 0bdc 00       		.byte	0
 2495 0bdd 18       		.uleb128 0x18
 2496 0bde FE090000 		.4byte	.LASF203
 2497 0be2 02       		.byte	0x2
 2498 0be3 C702     		.2byte	0x2c7
 2499 0be5 010A0000 		.4byte	0xa01
 2500 0be9 01       		.byte	0x1
 2501 0bea 18       		.uleb128 0x18
 2502 0beb D2100000 		.4byte	.LASF215
 2503 0bef 02       		.byte	0x2
 2504 0bf0 C902     		.2byte	0x2c9
 2505 0bf2 E0000000 		.4byte	0xe0
 2506 0bf6 04       		.byte	0x4
 2507 0bf7 18       		.uleb128 0x18
 2508 0bf8 8C000000 		.4byte	.LASF216
 2509 0bfc 02       		.byte	0x2
 2510 0bfd CB02     		.2byte	0x2cb
 2511 0bff E0000000 		.4byte	0xe0
 2512 0c03 08       		.byte	0x8
 2513 0c04 18       		.uleb128 0x18
 2514 0c05 140C0000 		.4byte	.LASF217
 2515 0c09 02       		.byte	0x2
 2516 0c0a CC02     		.2byte	0x2cc
 2517 0c0c 010A0000 		.4byte	0xa01
 2518 0c10 0C       		.byte	0xc
 2519 0c11 18       		.uleb128 0x18
 2520 0c12 350B0000 		.4byte	.LASF218
 2521 0c16 02       		.byte	0x2
ARM GAS  C:\Users\guill\AppData\Local\Temp\cclz5xua.s 			page 74


 2522 0c17 CD02     		.2byte	0x2cd
 2523 0c19 010A0000 		.4byte	0xa01
 2524 0c1d 0D       		.byte	0xd
 2525 0c1e 18       		.uleb128 0x18
 2526 0c1f 470D0000 		.4byte	.LASF219
 2527 0c23 02       		.byte	0x2
 2528 0c24 CF02     		.2byte	0x2cf
 2529 0c26 E20C0000 		.4byte	0xce2
 2530 0c2a 10       		.byte	0x10
 2531 0c2b 18       		.uleb128 0x18
 2532 0c2c 64080000 		.4byte	.LASF220
 2533 0c30 02       		.byte	0x2
 2534 0c31 D002     		.2byte	0x2d0
 2535 0c33 D5000000 		.4byte	0xd5
 2536 0c37 14       		.byte	0x14
 2537 0c38 18       		.uleb128 0x18
 2538 0c39 91010000 		.4byte	.LASF221
 2539 0c3d 02       		.byte	0x2
 2540 0c3e D102     		.2byte	0x2d1
 2541 0c40 E0000000 		.4byte	0xe0
 2542 0c44 18       		.byte	0x18
 2543 0c45 18       		.uleb128 0x18
 2544 0c46 B6070000 		.4byte	.LASF222
 2545 0c4a 02       		.byte	0x2
 2546 0c4b D202     		.2byte	0x2d2
 2547 0c4d E0000000 		.4byte	0xe0
 2548 0c51 1C       		.byte	0x1c
 2549 0c52 18       		.uleb128 0x18
 2550 0c53 55010000 		.4byte	.LASF223
 2551 0c57 02       		.byte	0x2
 2552 0c58 D402     		.2byte	0x2d4
 2553 0c5a E0000000 		.4byte	0xe0
 2554 0c5e 20       		.byte	0x20
 2555 0c5f 18       		.uleb128 0x18
 2556 0c60 B6050000 		.4byte	.LASF224
 2557 0c64 02       		.byte	0x2
 2558 0c65 D502     		.2byte	0x2d5
 2559 0c67 E80C0000 		.4byte	0xce8
 2560 0c6b 24       		.byte	0x24
 2561 0c6c 18       		.uleb128 0x18
 2562 0c6d F7030000 		.4byte	.LASF225
 2563 0c71 02       		.byte	0x2
 2564 0c72 D702     		.2byte	0x2d7
 2565 0c74 E20C0000 		.4byte	0xce2
 2566 0c78 28       		.byte	0x28
 2567 0c79 18       		.uleb128 0x18
 2568 0c7a 9F050000 		.4byte	.LASF226
 2569 0c7e 02       		.byte	0x2
 2570 0c7f D802     		.2byte	0x2d8
 2571 0c81 D5000000 		.4byte	0xd5
 2572 0c85 2C       		.byte	0x2c
 2573 0c86 18       		.uleb128 0x18
 2574 0c87 30040000 		.4byte	.LASF227
 2575 0c8b 02       		.byte	0x2
 2576 0c8c D902     		.2byte	0x2d9
 2577 0c8e E0000000 		.4byte	0xe0
 2578 0c92 30       		.byte	0x30
ARM GAS  C:\Users\guill\AppData\Local\Temp\cclz5xua.s 			page 75


 2579 0c93 18       		.uleb128 0x18
 2580 0c94 0B090000 		.4byte	.LASF228
 2581 0c98 02       		.byte	0x2
 2582 0c99 DA02     		.2byte	0x2da
 2583 0c9b E0000000 		.4byte	0xe0
 2584 0c9f 34       		.byte	0x34
 2585 0ca0 18       		.uleb128 0x18
 2586 0ca1 0C020000 		.4byte	.LASF229
 2587 0ca5 02       		.byte	0x2
 2588 0ca6 DC02     		.2byte	0x2dc
 2589 0ca8 E20C0000 		.4byte	0xce2
 2590 0cac 38       		.byte	0x38
 2591 0cad 18       		.uleb128 0x18
 2592 0cae 680C0000 		.4byte	.LASF230
 2593 0cb2 02       		.byte	0x2
 2594 0cb3 DD02     		.2byte	0x2dd
 2595 0cb5 D5000000 		.4byte	0xd5
 2596 0cb9 3C       		.byte	0x3c
 2597 0cba 18       		.uleb128 0x18
 2598 0cbb F50B0000 		.4byte	.LASF231
 2599 0cbf 02       		.byte	0x2
 2600 0cc0 DE02     		.2byte	0x2de
 2601 0cc2 E0000000 		.4byte	0xe0
 2602 0cc6 40       		.byte	0x40
 2603 0cc7 18       		.uleb128 0x18
 2604 0cc8 89060000 		.4byte	.LASF232
 2605 0ccc 02       		.byte	0x2
 2606 0ccd E402     		.2byte	0x2e4
 2607 0ccf DC0A0000 		.4byte	0xadc
 2608 0cd3 44       		.byte	0x44
 2609 0cd4 18       		.uleb128 0x18
 2610 0cd5 AE0D0000 		.4byte	.LASF233
 2611 0cd9 02       		.byte	0x2
 2612 0cda EB02     		.2byte	0x2eb
 2613 0cdc F90A0000 		.4byte	0xaf9
 2614 0ce0 48       		.byte	0x48
 2615 0ce1 00       		.byte	0
 2616 0ce2 06       		.uleb128 0x6
 2617 0ce3 04       		.byte	0x4
 2618 0ce4 B4000000 		.4byte	0xb4
 2619 0ce8 07       		.uleb128 0x7
 2620 0ce9 010A0000 		.4byte	0xa01
 2621 0ced 0F       		.uleb128 0xf
 2622 0cee 50130000 		.4byte	.LASF234
 2623 0cf2 02       		.byte	0x2
 2624 0cf3 EE02     		.2byte	0x2ee
 2625 0cf5 C30B0000 		.4byte	0xbc3
 2626 0cf9 0F       		.uleb128 0xf
 2627 0cfa 8C090000 		.4byte	.LASF235
 2628 0cfe 08       		.byte	0x8
 2629 0cff D901     		.2byte	0x1d9
 2630 0d01 E80A0000 		.4byte	0xae8
 2631 0d05 17       		.uleb128 0x17
 2632 0d06 D7040000 		.4byte	.LASF236
 2633 0d0a 38       		.byte	0x38
 2634 0d0b 08       		.byte	0x8
 2635 0d0c 7502     		.2byte	0x275
ARM GAS  C:\Users\guill\AppData\Local\Temp\cclz5xua.s 			page 76


 2636 0d0e C90D0000 		.4byte	0xdc9
 2637 0d12 18       		.uleb128 0x18
 2638 0d13 A0000000 		.4byte	.LASF237
 2639 0d17 08       		.byte	0x8
 2640 0d18 7802     		.2byte	0x278
 2641 0d1a E0000000 		.4byte	0xe0
 2642 0d1e 00       		.byte	0
 2643 0d1f 18       		.uleb128 0x18
 2644 0d20 1C060000 		.4byte	.LASF238
 2645 0d24 08       		.byte	0x8
 2646 0d25 7902     		.2byte	0x279
 2647 0d27 E0000000 		.4byte	0xe0
 2648 0d2b 04       		.byte	0x4
 2649 0d2c 18       		.uleb128 0x18
 2650 0d2d B10C0000 		.4byte	.LASF239
 2651 0d31 08       		.byte	0x8
 2652 0d32 7B02     		.2byte	0x27b
 2653 0d34 9E000000 		.4byte	0x9e
 2654 0d38 08       		.byte	0x8
 2655 0d39 18       		.uleb128 0x18
 2656 0d3a 76020000 		.4byte	.LASF240
 2657 0d3e 08       		.byte	0x8
 2658 0d3f 7C02     		.2byte	0x27c
 2659 0d41 D5000000 		.4byte	0xd5
 2660 0d45 0C       		.byte	0xc
 2661 0d46 18       		.uleb128 0x18
 2662 0d47 760B0000 		.4byte	.LASF241
 2663 0d4b 08       		.byte	0x8
 2664 0d4c 7D02     		.2byte	0x27d
 2665 0d4e E0000000 		.4byte	0xe0
 2666 0d52 10       		.byte	0x10
 2667 0d53 18       		.uleb128 0x18
 2668 0d54 10040000 		.4byte	.LASF242
 2669 0d58 08       		.byte	0x8
 2670 0d59 7E02     		.2byte	0x27e
 2671 0d5b E0000000 		.4byte	0xe0
 2672 0d5f 14       		.byte	0x14
 2673 0d60 18       		.uleb128 0x18
 2674 0d61 25060000 		.4byte	.LASF243
 2675 0d65 08       		.byte	0x8
 2676 0d66 8002     		.2byte	0x280
 2677 0d68 9E000000 		.4byte	0x9e
 2678 0d6c 18       		.byte	0x18
 2679 0d6d 18       		.uleb128 0x18
 2680 0d6e A5130000 		.4byte	.LASF244
 2681 0d72 08       		.byte	0x8
 2682 0d73 8102     		.2byte	0x281
 2683 0d75 D5000000 		.4byte	0xd5
 2684 0d79 1C       		.byte	0x1c
 2685 0d7a 18       		.uleb128 0x18
 2686 0d7b BE080000 		.4byte	.LASF245
 2687 0d7f 08       		.byte	0x8
 2688 0d80 8202     		.2byte	0x282
 2689 0d82 E0000000 		.4byte	0xe0
 2690 0d86 20       		.byte	0x20
 2691 0d87 18       		.uleb128 0x18
 2692 0d88 3A0C0000 		.4byte	.LASF246
ARM GAS  C:\Users\guill\AppData\Local\Temp\cclz5xua.s 			page 77


 2693 0d8c 08       		.byte	0x8
 2694 0d8d 8402     		.2byte	0x284
 2695 0d8f 9E000000 		.4byte	0x9e
 2696 0d93 24       		.byte	0x24
 2697 0d94 18       		.uleb128 0x18
 2698 0d95 AB0B0000 		.4byte	.LASF247
 2699 0d99 08       		.byte	0x8
 2700 0d9a 8502     		.2byte	0x285
 2701 0d9c D5000000 		.4byte	0xd5
 2702 0da0 28       		.byte	0x28
 2703 0da1 18       		.uleb128 0x18
 2704 0da2 740F0000 		.4byte	.LASF248
 2705 0da6 08       		.byte	0x8
 2706 0da7 8602     		.2byte	0x286
 2707 0da9 E0000000 		.4byte	0xe0
 2708 0dad 2C       		.byte	0x2c
 2709 0dae 18       		.uleb128 0x18
 2710 0daf 89060000 		.4byte	.LASF232
 2711 0db3 08       		.byte	0x8
 2712 0db4 8B02     		.2byte	0x28b
 2713 0db6 F90C0000 		.4byte	0xcf9
 2714 0dba 30       		.byte	0x30
 2715 0dbb 18       		.uleb128 0x18
 2716 0dbc D4080000 		.4byte	.LASF249
 2717 0dc0 08       		.byte	0x8
 2718 0dc1 8E02     		.2byte	0x28e
 2719 0dc3 D5000000 		.4byte	0xd5
 2720 0dc7 34       		.byte	0x34
 2721 0dc8 00       		.byte	0
 2722 0dc9 0F       		.uleb128 0xf
 2723 0dca E8010000 		.4byte	.LASF250
 2724 0dce 08       		.byte	0x8
 2725 0dcf 9102     		.2byte	0x291
 2726 0dd1 050D0000 		.4byte	0xd05
 2727 0dd5 19       		.uleb128 0x19
 2728 0dd6 BD060000 		.4byte	.LASF251
 2729 0dda 4C       		.byte	0x4c
 2730 0ddb 09       		.byte	0x9
 2731 0ddc 2F       		.byte	0x2f
 2732 0ddd C60E0000 		.4byte	0xec6
 2733 0de1 0D       		.uleb128 0xd
 2734 0de2 6D120000 		.4byte	.LASF252
 2735 0de6 09       		.byte	0x9
 2736 0de7 31       		.byte	0x31
 2737 0de8 D5000000 		.4byte	0xd5
 2738 0dec 00       		.byte	0
 2739 0ded 0D       		.uleb128 0xd
 2740 0dee 9B080000 		.4byte	.LASF253
 2741 0df2 09       		.byte	0x9
 2742 0df3 33       		.byte	0x33
 2743 0df4 D5000000 		.4byte	0xd5
 2744 0df8 04       		.byte	0x4
 2745 0df9 0D       		.uleb128 0xd
 2746 0dfa 0B0D0000 		.4byte	.LASF254
 2747 0dfe 09       		.byte	0x9
 2748 0dff 34       		.byte	0x34
 2749 0e00 D5000000 		.4byte	0xd5
ARM GAS  C:\Users\guill\AppData\Local\Temp\cclz5xua.s 			page 78


 2750 0e04 08       		.byte	0x8
 2751 0e05 0D       		.uleb128 0xd
 2752 0e06 210F0000 		.4byte	.LASF255
 2753 0e0a 09       		.byte	0x9
 2754 0e0b 35       		.byte	0x35
 2755 0e0c D5000000 		.4byte	0xd5
 2756 0e10 0C       		.byte	0xc
 2757 0e11 0D       		.uleb128 0xd
 2758 0e12 DD0D0000 		.4byte	.LASF256
 2759 0e16 09       		.byte	0x9
 2760 0e17 37       		.byte	0x37
 2761 0e18 D5000000 		.4byte	0xd5
 2762 0e1c 10       		.byte	0x10
 2763 0e1d 0D       		.uleb128 0xd
 2764 0e1e 49030000 		.4byte	.LASF257
 2765 0e22 09       		.byte	0x9
 2766 0e23 38       		.byte	0x38
 2767 0e24 D5000000 		.4byte	0xd5
 2768 0e28 14       		.byte	0x14
 2769 0e29 0D       		.uleb128 0xd
 2770 0e2a 52030000 		.4byte	.LASF258
 2771 0e2e 09       		.byte	0x9
 2772 0e2f 39       		.byte	0x39
 2773 0e30 D5000000 		.4byte	0xd5
 2774 0e34 18       		.byte	0x18
 2775 0e35 0D       		.uleb128 0xd
 2776 0e36 8C0E0000 		.4byte	.LASF259
 2777 0e3a 09       		.byte	0x9
 2778 0e3b 3A       		.byte	0x3a
 2779 0e3c 010A0000 		.4byte	0xa01
 2780 0e40 1C       		.byte	0x1c
 2781 0e41 0D       		.uleb128 0xd
 2782 0e42 7B0E0000 		.4byte	.LASF260
 2783 0e46 09       		.byte	0x9
 2784 0e47 3C       		.byte	0x3c
 2785 0e48 D5000000 		.4byte	0xd5
 2786 0e4c 20       		.byte	0x20
 2787 0e4d 0D       		.uleb128 0xd
 2788 0e4e E8050000 		.4byte	.LASF261
 2789 0e52 09       		.byte	0x9
 2790 0e53 3D       		.byte	0x3d
 2791 0e54 D5000000 		.4byte	0xd5
 2792 0e58 24       		.byte	0x24
 2793 0e59 0D       		.uleb128 0xd
 2794 0e5a D6070000 		.4byte	.LASF262
 2795 0e5e 09       		.byte	0x9
 2796 0e5f 3F       		.byte	0x3f
 2797 0e60 D5000000 		.4byte	0xd5
 2798 0e64 28       		.byte	0x28
 2799 0e65 0D       		.uleb128 0xd
 2800 0e66 900B0000 		.4byte	.LASF263
 2801 0e6a 09       		.byte	0x9
 2802 0e6b 40       		.byte	0x40
 2803 0e6c D5000000 		.4byte	0xd5
 2804 0e70 2C       		.byte	0x2c
 2805 0e71 0D       		.uleb128 0xd
 2806 0e72 30020000 		.4byte	.LASF264
ARM GAS  C:\Users\guill\AppData\Local\Temp\cclz5xua.s 			page 79


 2807 0e76 09       		.byte	0x9
 2808 0e77 42       		.byte	0x42
 2809 0e78 D5000000 		.4byte	0xd5
 2810 0e7c 30       		.byte	0x30
 2811 0e7d 0D       		.uleb128 0xd
 2812 0e7e D4050000 		.4byte	.LASF265
 2813 0e82 09       		.byte	0x9
 2814 0e83 43       		.byte	0x43
 2815 0e84 D5000000 		.4byte	0xd5
 2816 0e88 34       		.byte	0x34
 2817 0e89 0D       		.uleb128 0xd
 2818 0e8a D0010000 		.4byte	.LASF266
 2819 0e8e 09       		.byte	0x9
 2820 0e8f 45       		.byte	0x45
 2821 0e90 D5000000 		.4byte	0xd5
 2822 0e94 38       		.byte	0x38
 2823 0e95 0D       		.uleb128 0xd
 2824 0e96 27000000 		.4byte	.LASF267
 2825 0e9a 09       		.byte	0x9
 2826 0e9b 46       		.byte	0x46
 2827 0e9c D5000000 		.4byte	0xd5
 2828 0ea0 3C       		.byte	0x3c
 2829 0ea1 0D       		.uleb128 0xd
 2830 0ea2 64110000 		.4byte	.LASF268
 2831 0ea6 09       		.byte	0x9
 2832 0ea7 48       		.byte	0x48
 2833 0ea8 D5000000 		.4byte	0xd5
 2834 0eac 40       		.byte	0x40
 2835 0ead 0D       		.uleb128 0xd
 2836 0eae CE0E0000 		.4byte	.LASF269
 2837 0eb2 09       		.byte	0x9
 2838 0eb3 49       		.byte	0x49
 2839 0eb4 D5000000 		.4byte	0xd5
 2840 0eb8 44       		.byte	0x44
 2841 0eb9 0D       		.uleb128 0xd
 2842 0eba 48110000 		.4byte	.LASF270
 2843 0ebe 09       		.byte	0x9
 2844 0ebf 4B       		.byte	0x4b
 2845 0ec0 D5000000 		.4byte	0xd5
 2846 0ec4 48       		.byte	0x48
 2847 0ec5 00       		.byte	0
 2848 0ec6 03       		.uleb128 0x3
 2849 0ec7 EC000000 		.4byte	.LASF271
 2850 0ecb 09       		.byte	0x9
 2851 0ecc 4C       		.byte	0x4c
 2852 0ecd D50D0000 		.4byte	0xdd5
 2853 0ed1 19       		.uleb128 0x19
 2854 0ed2 97030000 		.4byte	.LASF272
 2855 0ed6 64       		.byte	0x64
 2856 0ed7 0A       		.byte	0xa
 2857 0ed8 2F       		.byte	0x2f
 2858 0ed9 0A100000 		.4byte	0x100a
 2859 0edd 0D       		.uleb128 0xd
 2860 0ede 84020000 		.4byte	.LASF273
 2861 0ee2 0A       		.byte	0xa
 2862 0ee3 31       		.byte	0x31
 2863 0ee4 D5000000 		.4byte	0xd5
ARM GAS  C:\Users\guill\AppData\Local\Temp\cclz5xua.s 			page 80


 2864 0ee8 00       		.byte	0
 2865 0ee9 0D       		.uleb128 0xd
 2866 0eea 9B080000 		.4byte	.LASF253
 2867 0eee 0A       		.byte	0xa
 2868 0eef 33       		.byte	0x33
 2869 0ef0 D5000000 		.4byte	0xd5
 2870 0ef4 04       		.byte	0x4
 2871 0ef5 0D       		.uleb128 0xd
 2872 0ef6 42070000 		.4byte	.LASF274
 2873 0efa 0A       		.byte	0xa
 2874 0efb 34       		.byte	0x34
 2875 0efc D5000000 		.4byte	0xd5
 2876 0f00 08       		.byte	0x8
 2877 0f01 0D       		.uleb128 0xd
 2878 0f02 EF090000 		.4byte	.LASF275
 2879 0f06 0A       		.byte	0xa
 2880 0f07 35       		.byte	0x35
 2881 0f08 D5000000 		.4byte	0xd5
 2882 0f0c 0C       		.byte	0xc
 2883 0f0d 0D       		.uleb128 0xd
 2884 0f0e 0B0D0000 		.4byte	.LASF254
 2885 0f12 0A       		.byte	0xa
 2886 0f13 36       		.byte	0x36
 2887 0f14 D5000000 		.4byte	0xd5
 2888 0f18 10       		.byte	0x10
 2889 0f19 0D       		.uleb128 0xd
 2890 0f1a EC0A0000 		.4byte	.LASF276
 2891 0f1e 0A       		.byte	0xa
 2892 0f1f 37       		.byte	0x37
 2893 0f20 D5000000 		.4byte	0xd5
 2894 0f24 14       		.byte	0x14
 2895 0f25 0D       		.uleb128 0xd
 2896 0f26 F40A0000 		.4byte	.LASF277
 2897 0f2a 0A       		.byte	0xa
 2898 0f2b 38       		.byte	0x38
 2899 0f2c D5000000 		.4byte	0xd5
 2900 0f30 18       		.byte	0x18
 2901 0f31 0D       		.uleb128 0xd
 2902 0f32 4A040000 		.4byte	.LASF278
 2903 0f36 0A       		.byte	0xa
 2904 0f37 39       		.byte	0x39
 2905 0f38 010A0000 		.4byte	0xa01
 2906 0f3c 1C       		.byte	0x1c
 2907 0f3d 0D       		.uleb128 0xd
 2908 0f3e 49030000 		.4byte	.LASF257
 2909 0f42 0A       		.byte	0xa
 2910 0f43 3A       		.byte	0x3a
 2911 0f44 D5000000 		.4byte	0xd5
 2912 0f48 20       		.byte	0x20
 2913 0f49 0D       		.uleb128 0xd
 2914 0f4a 52030000 		.4byte	.LASF258
 2915 0f4e 0A       		.byte	0xa
 2916 0f4f 3B       		.byte	0x3b
 2917 0f50 D5000000 		.4byte	0xd5
 2918 0f54 24       		.byte	0x24
 2919 0f55 0D       		.uleb128 0xd
 2920 0f56 8C0E0000 		.4byte	.LASF259
ARM GAS  C:\Users\guill\AppData\Local\Temp\cclz5xua.s 			page 81


 2921 0f5a 0A       		.byte	0xa
 2922 0f5b 3C       		.byte	0x3c
 2923 0f5c 010A0000 		.4byte	0xa01
 2924 0f60 28       		.byte	0x28
 2925 0f61 0D       		.uleb128 0xd
 2926 0f62 7B0E0000 		.4byte	.LASF260
 2927 0f66 0A       		.byte	0xa
 2928 0f67 3E       		.byte	0x3e
 2929 0f68 D5000000 		.4byte	0xd5
 2930 0f6c 2C       		.byte	0x2c
 2931 0f6d 0D       		.uleb128 0xd
 2932 0f6e 1E0B0000 		.4byte	.LASF279
 2933 0f72 0A       		.byte	0xa
 2934 0f73 3F       		.byte	0x3f
 2935 0f74 D5000000 		.4byte	0xd5
 2936 0f78 30       		.byte	0x30
 2937 0f79 0D       		.uleb128 0xd
 2938 0f7a C6050000 		.4byte	.LASF280
 2939 0f7e 0A       		.byte	0xa
 2940 0f7f 40       		.byte	0x40
 2941 0f80 D5000000 		.4byte	0xd5
 2942 0f84 34       		.byte	0x34
 2943 0f85 0D       		.uleb128 0xd
 2944 0f86 E8110000 		.4byte	.LASF281
 2945 0f8a 0A       		.byte	0xa
 2946 0f8b 41       		.byte	0x41
 2947 0f8c D5000000 		.4byte	0xd5
 2948 0f90 38       		.byte	0x38
 2949 0f91 0D       		.uleb128 0xd
 2950 0f92 080A0000 		.4byte	.LASF282
 2951 0f96 0A       		.byte	0xa
 2952 0f97 42       		.byte	0x42
 2953 0f98 D5000000 		.4byte	0xd5
 2954 0f9c 3C       		.byte	0x3c
 2955 0f9d 0D       		.uleb128 0xd
 2956 0f9e 0F070000 		.4byte	.LASF283
 2957 0fa2 0A       		.byte	0xa
 2958 0fa3 44       		.byte	0x44
 2959 0fa4 D5000000 		.4byte	0xd5
 2960 0fa8 40       		.byte	0x40
 2961 0fa9 0D       		.uleb128 0xd
 2962 0faa 900B0000 		.4byte	.LASF263
 2963 0fae 0A       		.byte	0xa
 2964 0faf 45       		.byte	0x45
 2965 0fb0 D5000000 		.4byte	0xd5
 2966 0fb4 44       		.byte	0x44
 2967 0fb5 0D       		.uleb128 0xd
 2968 0fb6 30020000 		.4byte	.LASF264
 2969 0fba 0A       		.byte	0xa
 2970 0fbb 47       		.byte	0x47
 2971 0fbc D5000000 		.4byte	0xd5
 2972 0fc0 48       		.byte	0x48
 2973 0fc1 0D       		.uleb128 0xd
 2974 0fc2 D4050000 		.4byte	.LASF265
 2975 0fc6 0A       		.byte	0xa
 2976 0fc7 48       		.byte	0x48
 2977 0fc8 D5000000 		.4byte	0xd5
ARM GAS  C:\Users\guill\AppData\Local\Temp\cclz5xua.s 			page 82


 2978 0fcc 4C       		.byte	0x4c
 2979 0fcd 0D       		.uleb128 0xd
 2980 0fce D0010000 		.4byte	.LASF266
 2981 0fd2 0A       		.byte	0xa
 2982 0fd3 4A       		.byte	0x4a
 2983 0fd4 D5000000 		.4byte	0xd5
 2984 0fd8 50       		.byte	0x50
 2985 0fd9 0D       		.uleb128 0xd
 2986 0fda 50060000 		.4byte	.LASF284
 2987 0fde 0A       		.byte	0xa
 2988 0fdf 4B       		.byte	0x4b
 2989 0fe0 D5000000 		.4byte	0xd5
 2990 0fe4 54       		.byte	0x54
 2991 0fe5 0D       		.uleb128 0xd
 2992 0fe6 2D100000 		.4byte	.LASF285
 2993 0fea 0A       		.byte	0xa
 2994 0feb 4D       		.byte	0x4d
 2995 0fec D5000000 		.4byte	0xd5
 2996 0ff0 58       		.byte	0x58
 2997 0ff1 0D       		.uleb128 0xd
 2998 0ff2 CE0E0000 		.4byte	.LASF269
 2999 0ff6 0A       		.byte	0xa
 3000 0ff7 4E       		.byte	0x4e
 3001 0ff8 D5000000 		.4byte	0xd5
 3002 0ffc 5C       		.byte	0x5c
 3003 0ffd 0D       		.uleb128 0xd
 3004 0ffe 48110000 		.4byte	.LASF270
 3005 1002 0A       		.byte	0xa
 3006 1003 50       		.byte	0x50
 3007 1004 D5000000 		.4byte	0xd5
 3008 1008 60       		.byte	0x60
 3009 1009 00       		.byte	0
 3010 100a 03       		.uleb128 0x3
 3011 100b F10C0000 		.4byte	.LASF286
 3012 100f 0A       		.byte	0xa
 3013 1010 51       		.byte	0x51
 3014 1011 D10E0000 		.4byte	0xed1
 3015 1015 1A       		.uleb128 0x1a
 3016 1016 2B060000 		.4byte	.LASF290
 3017 101a 01       		.byte	0x1
 3018 101b 37000000 		.4byte	0x37
 3019 101f 0B       		.byte	0xb
 3020 1020 10       		.byte	0x10
 3021 1021 3E100000 		.4byte	0x103e
 3022 1025 12       		.uleb128 0x12
 3023 1026 BA120000 		.4byte	.LASF287
 3024 102a 00       		.byte	0
 3025 102b 1B       		.uleb128 0x1b
 3026 102c 52656400 		.ascii	"Red\000"
 3027 1030 01       		.byte	0x1
 3028 1031 12       		.uleb128 0x12
 3029 1032 64100000 		.4byte	.LASF288
 3030 1036 02       		.byte	0x2
 3031 1037 12       		.uleb128 0x12
 3032 1038 74050000 		.4byte	.LASF289
 3033 103c 03       		.byte	0x3
 3034 103d 00       		.byte	0
ARM GAS  C:\Users\guill\AppData\Local\Temp\cclz5xua.s 			page 83


 3035 103e 1A       		.uleb128 0x1a
 3036 103f 14000000 		.4byte	.LASF291
 3037 1043 01       		.byte	0x1
 3038 1044 37000000 		.4byte	0x37
 3039 1048 0B       		.byte	0xb
 3040 1049 11       		.byte	0x11
 3041 104a 5B100000 		.4byte	0x105b
 3042 104e 12       		.uleb128 0x12
 3043 104f E3050000 		.4byte	.LASF292
 3044 1053 00       		.byte	0
 3045 1054 12       		.uleb128 0x12
 3046 1055 8F0F0000 		.4byte	.LASF293
 3047 1059 01       		.byte	0x1
 3048 105a 00       		.byte	0
 3049 105b 1A       		.uleb128 0x1a
 3050 105c EB020000 		.4byte	.LASF294
 3051 1060 01       		.byte	0x1
 3052 1061 37000000 		.4byte	0x37
 3053 1065 0B       		.byte	0xb
 3054 1066 12       		.byte	0x12
 3055 1067 77100000 		.4byte	0x1077
 3056 106b 1B       		.uleb128 0x1b
 3057 106c 4F666600 		.ascii	"Off\000"
 3058 1070 00       		.byte	0
 3059 1071 1B       		.uleb128 0x1b
 3060 1072 4F6E00   		.ascii	"On\000"
 3061 1075 01       		.byte	0x1
 3062 1076 00       		.byte	0
 3063 1077 1C       		.uleb128 0x1c
 3064 1078 200C0000 		.4byte	.LASF346
 3065 107c 02       		.byte	0x2
 3066 107d F804     		.2byte	0x4f8
 3067 107f 03       		.byte	0x3
 3068 1080 91100000 		.4byte	0x1091
 3069 1084 1D       		.uleb128 0x1d
 3070 1085 C2040000 		.4byte	.LASF347
 3071 1089 02       		.byte	0x2
 3072 108a F804     		.2byte	0x4f8
 3073 108c 91100000 		.4byte	0x1091
 3074 1090 00       		.byte	0
 3075 1091 06       		.uleb128 0x6
 3076 1092 04       		.byte	0x4
 3077 1093 CB050000 		.4byte	0x5cb
 3078 1097 1E       		.uleb128 0x1e
 3079 1098 05040000 		.4byte	.LASF296
 3080 109c 01       		.byte	0x1
 3081 109d 56       		.byte	0x56
 3082 109e 00000000 		.4byte	.LFB589
 3083 10a2 50000000 		.4byte	.LFE589-.LFB589
 3084 10a6 01       		.uleb128 0x1
 3085 10a7 9C       		.byte	0x9c
 3086 10a8 4A110000 		.4byte	0x114a
 3087 10ac 1F       		.uleb128 0x1f
 3088 10ad B9080000 		.4byte	.LASF295
 3089 10b1 01       		.byte	0x1
 3090 10b2 56       		.byte	0x56
 3091 10b3 E20C0000 		.4byte	0xce2
ARM GAS  C:\Users\guill\AppData\Local\Temp\cclz5xua.s 			page 84


 3092 10b7 00000000 		.4byte	.LLST0
 3093 10bb 20       		.uleb128 0x20
 3094 10bc 6C656E00 		.ascii	"len\000"
 3095 10c0 01       		.byte	0x1
 3096 10c1 56       		.byte	0x56
 3097 10c2 B4000000 		.4byte	0xb4
 3098 10c6 2C000000 		.4byte	.LLST1
 3099 10ca 21       		.uleb128 0x21
 3100 10cb 1A000000 		.4byte	.LBB4
 3101 10cf 1C000000 		.4byte	.LBE4-.LBB4
 3102 10d3 10110000 		.4byte	0x1110
 3103 10d7 22       		.uleb128 0x22
 3104 10d8 6900     		.ascii	"i\000"
 3105 10da 01       		.byte	0x1
 3106 10db 58       		.byte	0x58
 3107 10dc 89000000 		.4byte	0x89
 3108 10e0 4D000000 		.4byte	.LLST2
 3109 10e4 23       		.uleb128 0x23
 3110 10e5 2A000000 		.4byte	.LVL5
 3111 10e9 E2180000 		.4byte	0x18e2
 3112 10ed 00110000 		.4byte	0x1100
 3113 10f1 24       		.uleb128 0x24
 3114 10f2 01       		.uleb128 0x1
 3115 10f3 50       		.byte	0x50
 3116 10f4 05       		.uleb128 0x5
 3117 10f5 0C       		.byte	0xc
 3118 10f6 00006740 		.4byte	0x40670000
 3119 10fa 24       		.uleb128 0x24
 3120 10fb 01       		.uleb128 0x1
 3121 10fc 52       		.byte	0x52
 3122 10fd 01       		.uleb128 0x1
 3123 10fe 30       		.byte	0x30
 3124 10ff 00       		.byte	0
 3125 1100 25       		.uleb128 0x25
 3126 1101 30000000 		.4byte	.LVL6
 3127 1105 EE180000 		.4byte	0x18ee
 3128 1109 24       		.uleb128 0x24
 3129 110a 01       		.uleb128 0x1
 3130 110b 50       		.byte	0x50
 3131 110c 01       		.uleb128 0x1
 3132 110d 35       		.byte	0x35
 3133 110e 00       		.byte	0
 3134 110f 00       		.byte	0
 3135 1110 23       		.uleb128 0x23
 3136 1111 1A000000 		.4byte	.LVL3
 3137 1115 FA180000 		.4byte	0x18fa
 3138 1119 31110000 		.4byte	0x1131
 3139 111d 24       		.uleb128 0x24
 3140 111e 01       		.uleb128 0x1
 3141 111f 50       		.byte	0x50
 3142 1120 05       		.uleb128 0x5
 3143 1121 0C       		.byte	0xc
 3144 1122 00006740 		.4byte	0x40670000
 3145 1126 24       		.uleb128 0x24
 3146 1127 01       		.uleb128 0x1
 3147 1128 52       		.byte	0x52
 3148 1129 01       		.uleb128 0x1
ARM GAS  C:\Users\guill\AppData\Local\Temp\cclz5xua.s 			page 85


 3149 112a 30       		.byte	0x30
 3150 112b 24       		.uleb128 0x24
 3151 112c 01       		.uleb128 0x1
 3152 112d 53       		.byte	0x53
 3153 112e 01       		.uleb128 0x1
 3154 112f 30       		.byte	0x30
 3155 1130 00       		.byte	0
 3156 1131 25       		.uleb128 0x25
 3157 1132 40000000 		.4byte	.LVL8
 3158 1136 06190000 		.4byte	0x1906
 3159 113a 24       		.uleb128 0x24
 3160 113b 01       		.uleb128 0x1
 3161 113c 50       		.byte	0x50
 3162 113d 05       		.uleb128 0x5
 3163 113e 0C       		.byte	0xc
 3164 113f 00006740 		.4byte	0x40670000
 3165 1143 24       		.uleb128 0x24
 3166 1144 01       		.uleb128 0x1
 3167 1145 51       		.byte	0x51
 3168 1146 01       		.uleb128 0x1
 3169 1147 30       		.byte	0x30
 3170 1148 00       		.byte	0
 3171 1149 00       		.byte	0
 3172 114a 1E       		.uleb128 0x1e
 3173 114b B50B0000 		.4byte	.LASF297
 3174 114f 01       		.byte	0x1
 3175 1150 5F       		.byte	0x5f
 3176 1151 00000000 		.4byte	.LFB590
 3177 1155 24000000 		.4byte	.LFE590-.LFB590
 3178 1159 01       		.uleb128 0x1
 3179 115a 9C       		.byte	0x9c
 3180 115b B0110000 		.4byte	0x11b0
 3181 115f 1F       		.uleb128 0x1f
 3182 1160 06060000 		.4byte	.LASF298
 3183 1164 01       		.byte	0x1
 3184 1165 5F       		.byte	0x5f
 3185 1166 B4000000 		.4byte	0xb4
 3186 116a 6C000000 		.4byte	.LLST3
 3187 116e 26       		.uleb128 0x26
 3188 116f B9080000 		.4byte	.LASF295
 3189 1173 01       		.byte	0x1
 3190 1174 60       		.byte	0x60
 3191 1175 5A010000 		.4byte	0x15a
 3192 1179 02       		.uleb128 0x2
 3193 117a 91       		.byte	0x91
 3194 117b 6C       		.sleb128 -20
 3195 117c 23       		.uleb128 0x23
 3196 117d 12000000 		.4byte	.LVL13
 3197 1181 12190000 		.4byte	0x1912
 3198 1185 9A110000 		.4byte	0x119a
 3199 1189 24       		.uleb128 0x24
 3200 118a 01       		.uleb128 0x1
 3201 118b 50       		.byte	0x50
 3202 118c 02       		.uleb128 0x2
 3203 118d 74       		.byte	0x74
 3204 118e 00       		.sleb128 0
 3205 118f 24       		.uleb128 0x24
ARM GAS  C:\Users\guill\AppData\Local\Temp\cclz5xua.s 			page 86


 3206 1190 01       		.uleb128 0x1
 3207 1191 51       		.byte	0x51
 3208 1192 01       		.uleb128 0x1
 3209 1193 30       		.byte	0x30
 3210 1194 24       		.uleb128 0x24
 3211 1195 01       		.uleb128 0x1
 3212 1196 52       		.byte	0x52
 3213 1197 01       		.uleb128 0x1
 3214 1198 33       		.byte	0x33
 3215 1199 00       		.byte	0
 3216 119a 25       		.uleb128 0x25
 3217 119b 20000000 		.4byte	.LVL14
 3218 119f 97100000 		.4byte	0x1097
 3219 11a3 24       		.uleb128 0x24
 3220 11a4 01       		.uleb128 0x1
 3221 11a5 50       		.byte	0x50
 3222 11a6 02       		.uleb128 0x2
 3223 11a7 74       		.byte	0x74
 3224 11a8 00       		.sleb128 0
 3225 11a9 24       		.uleb128 0x24
 3226 11aa 01       		.uleb128 0x1
 3227 11ab 51       		.byte	0x51
 3228 11ac 01       		.uleb128 0x1
 3229 11ad 32       		.byte	0x32
 3230 11ae 00       		.byte	0
 3231 11af 00       		.byte	0
 3232 11b0 1E       		.uleb128 0x1e
 3233 11b1 610C0000 		.4byte	.LASF299
 3234 11b5 01       		.byte	0x1
 3235 11b6 64       		.byte	0x64
 3236 11b7 00000000 		.4byte	.LFB591
 3237 11bb 50000000 		.4byte	.LFE591-.LFB591
 3238 11bf 01       		.uleb128 0x1
 3239 11c0 9C       		.byte	0x9c
 3240 11c1 6E120000 		.4byte	0x126e
 3241 11c5 1F       		.uleb128 0x1f
 3242 11c6 E3110000 		.4byte	.LASF300
 3243 11ca 01       		.byte	0x1
 3244 11cb 64       		.byte	0x64
 3245 11cc B4000000 		.4byte	0xb4
 3246 11d0 8D000000 		.4byte	.LLST4
 3247 11d4 1F       		.uleb128 0x1f
 3248 11d5 B9080000 		.4byte	.LASF295
 3249 11d9 01       		.byte	0x1
 3250 11da 64       		.byte	0x64
 3251 11db B4000000 		.4byte	0xb4
 3252 11df AE000000 		.4byte	.LLST5
 3253 11e3 23       		.uleb128 0x23
 3254 11e4 1C000000 		.4byte	.LVL18
 3255 11e8 FA180000 		.4byte	0x18fa
 3256 11ec 08120000 		.4byte	0x1208
 3257 11f0 24       		.uleb128 0x24
 3258 11f1 01       		.uleb128 0x1
 3259 11f2 50       		.byte	0x50
 3260 11f3 02       		.uleb128 0x2
 3261 11f4 74       		.byte	0x74
 3262 11f5 00       		.sleb128 0
ARM GAS  C:\Users\guill\AppData\Local\Temp\cclz5xua.s 			page 87


 3263 11f6 24       		.uleb128 0x24
 3264 11f7 01       		.uleb128 0x1
 3265 11f8 52       		.byte	0x52
 3266 11f9 01       		.uleb128 0x1
 3267 11fa 30       		.byte	0x30
 3268 11fb 24       		.uleb128 0x24
 3269 11fc 01       		.uleb128 0x1
 3270 11fd 53       		.byte	0x53
 3271 11fe 01       		.uleb128 0x1
 3272 11ff 30       		.byte	0x30
 3273 1200 24       		.uleb128 0x24
 3274 1201 02       		.uleb128 0x2
 3275 1202 7D       		.byte	0x7d
 3276 1203 00       		.sleb128 0
 3277 1204 02       		.uleb128 0x2
 3278 1205 75       		.byte	0x75
 3279 1206 00       		.sleb128 0
 3280 1207 00       		.byte	0
 3281 1208 23       		.uleb128 0x23
 3282 1209 28000000 		.4byte	.LVL19
 3283 120d E2180000 		.4byte	0x18e2
 3284 1211 2D120000 		.4byte	0x122d
 3285 1215 24       		.uleb128 0x24
 3286 1216 01       		.uleb128 0x1
 3287 1217 50       		.byte	0x50
 3288 1218 02       		.uleb128 0x2
 3289 1219 74       		.byte	0x74
 3290 121a 00       		.sleb128 0
 3291 121b 24       		.uleb128 0x24
 3292 121c 01       		.uleb128 0x1
 3293 121d 51       		.byte	0x51
 3294 121e 02       		.uleb128 0x2
 3295 121f 77       		.byte	0x77
 3296 1220 00       		.sleb128 0
 3297 1221 24       		.uleb128 0x24
 3298 1222 01       		.uleb128 0x1
 3299 1223 52       		.byte	0x52
 3300 1224 01       		.uleb128 0x1
 3301 1225 30       		.byte	0x30
 3302 1226 24       		.uleb128 0x24
 3303 1227 01       		.uleb128 0x1
 3304 1228 53       		.byte	0x53
 3305 1229 02       		.uleb128 0x2
 3306 122a 75       		.byte	0x75
 3307 122b 00       		.sleb128 0
 3308 122c 00       		.byte	0
 3309 122d 23       		.uleb128 0x23
 3310 122e 34000000 		.4byte	.LVL20
 3311 1232 E2180000 		.4byte	0x18e2
 3312 1236 52120000 		.4byte	0x1252
 3313 123a 24       		.uleb128 0x24
 3314 123b 01       		.uleb128 0x1
 3315 123c 50       		.byte	0x50
 3316 123d 02       		.uleb128 0x2
 3317 123e 74       		.byte	0x74
 3318 123f 00       		.sleb128 0
 3319 1240 24       		.uleb128 0x24
ARM GAS  C:\Users\guill\AppData\Local\Temp\cclz5xua.s 			page 88


 3320 1241 01       		.uleb128 0x1
 3321 1242 51       		.byte	0x51
 3322 1243 02       		.uleb128 0x2
 3323 1244 76       		.byte	0x76
 3324 1245 00       		.sleb128 0
 3325 1246 24       		.uleb128 0x24
 3326 1247 01       		.uleb128 0x1
 3327 1248 52       		.byte	0x52
 3328 1249 01       		.uleb128 0x1
 3329 124a 30       		.byte	0x30
 3330 124b 24       		.uleb128 0x24
 3331 124c 01       		.uleb128 0x1
 3332 124d 53       		.byte	0x53
 3333 124e 02       		.uleb128 0x2
 3334 124f 75       		.byte	0x75
 3335 1250 00       		.sleb128 0
 3336 1251 00       		.byte	0
 3337 1252 25       		.uleb128 0x25
 3338 1253 3E000000 		.4byte	.LVL21
 3339 1257 06190000 		.4byte	0x1906
 3340 125b 24       		.uleb128 0x24
 3341 125c 01       		.uleb128 0x1
 3342 125d 50       		.byte	0x50
 3343 125e 02       		.uleb128 0x2
 3344 125f 74       		.byte	0x74
 3345 1260 00       		.sleb128 0
 3346 1261 24       		.uleb128 0x24
 3347 1262 01       		.uleb128 0x1
 3348 1263 51       		.byte	0x51
 3349 1264 01       		.uleb128 0x1
 3350 1265 30       		.byte	0x30
 3351 1266 24       		.uleb128 0x24
 3352 1267 01       		.uleb128 0x1
 3353 1268 52       		.byte	0x52
 3354 1269 02       		.uleb128 0x2
 3355 126a 75       		.byte	0x75
 3356 126b 00       		.sleb128 0
 3357 126c 00       		.byte	0
 3358 126d 00       		.byte	0
 3359 126e 1E       		.uleb128 0x1e
 3360 126f DE090000 		.4byte	.LASF301
 3361 1273 01       		.byte	0x1
 3362 1274 6B       		.byte	0x6b
 3363 1275 00000000 		.4byte	.LFB592
 3364 1279 24000000 		.4byte	.LFE592-.LFB592
 3365 127d 01       		.uleb128 0x1
 3366 127e 9C       		.byte	0x9c
 3367 127f D4120000 		.4byte	0x12d4
 3368 1283 1F       		.uleb128 0x1f
 3369 1284 06060000 		.4byte	.LASF298
 3370 1288 01       		.byte	0x1
 3371 1289 6B       		.byte	0x6b
 3372 128a B4000000 		.4byte	0xb4
 3373 128e CF000000 		.4byte	.LLST6
 3374 1292 26       		.uleb128 0x26
 3375 1293 B9080000 		.4byte	.LASF295
 3376 1297 01       		.byte	0x1
ARM GAS  C:\Users\guill\AppData\Local\Temp\cclz5xua.s 			page 89


 3377 1298 6D       		.byte	0x6d
 3378 1299 5A010000 		.4byte	0x15a
 3379 129d 02       		.uleb128 0x2
 3380 129e 91       		.byte	0x91
 3381 129f 6C       		.sleb128 -20
 3382 12a0 23       		.uleb128 0x23
 3383 12a1 12000000 		.4byte	.LVL24
 3384 12a5 12190000 		.4byte	0x1912
 3385 12a9 BE120000 		.4byte	0x12be
 3386 12ad 24       		.uleb128 0x24
 3387 12ae 01       		.uleb128 0x1
 3388 12af 50       		.byte	0x50
 3389 12b0 02       		.uleb128 0x2
 3390 12b1 74       		.byte	0x74
 3391 12b2 00       		.sleb128 0
 3392 12b3 24       		.uleb128 0x24
 3393 12b4 01       		.uleb128 0x1
 3394 12b5 51       		.byte	0x51
 3395 12b6 01       		.uleb128 0x1
 3396 12b7 30       		.byte	0x30
 3397 12b8 24       		.uleb128 0x24
 3398 12b9 01       		.uleb128 0x1
 3399 12ba 52       		.byte	0x52
 3400 12bb 01       		.uleb128 0x1
 3401 12bc 33       		.byte	0x33
 3402 12bd 00       		.byte	0
 3403 12be 25       		.uleb128 0x25
 3404 12bf 20000000 		.4byte	.LVL25
 3405 12c3 97100000 		.4byte	0x1097
 3406 12c7 24       		.uleb128 0x24
 3407 12c8 01       		.uleb128 0x1
 3408 12c9 50       		.byte	0x50
 3409 12ca 02       		.uleb128 0x2
 3410 12cb 74       		.byte	0x74
 3411 12cc 00       		.sleb128 0
 3412 12cd 24       		.uleb128 0x24
 3413 12ce 01       		.uleb128 0x1
 3414 12cf 51       		.byte	0x51
 3415 12d0 01       		.uleb128 0x1
 3416 12d1 32       		.byte	0x32
 3417 12d2 00       		.byte	0
 3418 12d3 00       		.byte	0
 3419 12d4 27       		.uleb128 0x27
 3420 12d5 FC110000 		.4byte	.LASF302
 3421 12d9 01       		.byte	0x1
 3422 12da BB       		.byte	0xbb
 3423 12db 010A0000 		.4byte	0xa01
 3424 12df 00000000 		.4byte	.LFB594
 3425 12e3 3C000000 		.4byte	.LFE594-.LFB594
 3426 12e7 01       		.uleb128 0x1
 3427 12e8 9C       		.byte	0x9c
 3428 12e9 0F130000 		.4byte	0x130f
 3429 12ed 1F       		.uleb128 0x1f
 3430 12ee D2100000 		.4byte	.LASF215
 3431 12f2 01       		.byte	0x1
 3432 12f3 BB       		.byte	0xbb
 3433 12f4 5B100000 		.4byte	0x105b
ARM GAS  C:\Users\guill\AppData\Local\Temp\cclz5xua.s 			page 90


 3434 12f8 F0000000 		.4byte	.LLST7
 3435 12fc 28       		.uleb128 0x28
 3436 12fd 1C000000 		.4byte	.LVL28
 3437 1301 4A110000 		.4byte	0x114a
 3438 1305 28       		.uleb128 0x28
 3439 1306 32000000 		.4byte	.LVL31
 3440 130a 4A110000 		.4byte	0x114a
 3441 130e 00       		.byte	0
 3442 130f 27       		.uleb128 0x27
 3443 1310 7D130000 		.4byte	.LASF303
 3444 1314 01       		.byte	0x1
 3445 1315 C9       		.byte	0xc9
 3446 1316 010A0000 		.4byte	0xa01
 3447 131a 00000000 		.4byte	.LFB595
 3448 131e 3C000000 		.4byte	.LFE595-.LFB595
 3449 1322 01       		.uleb128 0x1
 3450 1323 9C       		.byte	0x9c
 3451 1324 48130000 		.4byte	0x1348
 3452 1328 20       		.uleb128 0x20
 3453 1329 7800     		.ascii	"x\000"
 3454 132b 01       		.byte	0x1
 3455 132c C9       		.byte	0xc9
 3456 132d 5B100000 		.4byte	0x105b
 3457 1331 2A010000 		.4byte	.LLST8
 3458 1335 28       		.uleb128 0x28
 3459 1336 1C000000 		.4byte	.LVL34
 3460 133a 4A110000 		.4byte	0x114a
 3461 133e 28       		.uleb128 0x28
 3462 133f 34000000 		.4byte	.LVL37
 3463 1343 4A110000 		.4byte	0x114a
 3464 1347 00       		.byte	0
 3465 1348 27       		.uleb128 0x27
 3466 1349 690F0000 		.4byte	.LASF304
 3467 134d 01       		.byte	0x1
 3468 134e D6       		.byte	0xd6
 3469 134f 010A0000 		.4byte	0xa01
 3470 1353 00000000 		.4byte	.LFB596
 3471 1357 3C000000 		.4byte	.LFE596-.LFB596
 3472 135b 01       		.uleb128 0x1
 3473 135c 9C       		.byte	0x9c
 3474 135d 81130000 		.4byte	0x1381
 3475 1361 20       		.uleb128 0x20
 3476 1362 7800     		.ascii	"x\000"
 3477 1364 01       		.byte	0x1
 3478 1365 D6       		.byte	0xd6
 3479 1366 5B100000 		.4byte	0x105b
 3480 136a 64010000 		.4byte	.LLST9
 3481 136e 28       		.uleb128 0x28
 3482 136f 1C000000 		.4byte	.LVL40
 3483 1373 4A110000 		.4byte	0x114a
 3484 1377 28       		.uleb128 0x28
 3485 1378 34000000 		.4byte	.LVL43
 3486 137c 4A110000 		.4byte	0x114a
 3487 1380 00       		.byte	0
 3488 1381 27       		.uleb128 0x27
 3489 1382 A70E0000 		.4byte	.LASF305
 3490 1386 01       		.byte	0x1
ARM GAS  C:\Users\guill\AppData\Local\Temp\cclz5xua.s 			page 91


 3491 1387 E3       		.byte	0xe3
 3492 1388 010A0000 		.4byte	0xa01
 3493 138c 00000000 		.4byte	.LFB597
 3494 1390 3C000000 		.4byte	.LFE597-.LFB597
 3495 1394 01       		.uleb128 0x1
 3496 1395 9C       		.byte	0x9c
 3497 1396 BA130000 		.4byte	0x13ba
 3498 139a 20       		.uleb128 0x20
 3499 139b 7800     		.ascii	"x\000"
 3500 139d 01       		.byte	0x1
 3501 139e E3       		.byte	0xe3
 3502 139f 5B100000 		.4byte	0x105b
 3503 13a3 9E010000 		.4byte	.LLST10
 3504 13a7 28       		.uleb128 0x28
 3505 13a8 1C000000 		.4byte	.LVL46
 3506 13ac 4A110000 		.4byte	0x114a
 3507 13b0 28       		.uleb128 0x28
 3508 13b1 34000000 		.4byte	.LVL49
 3509 13b5 4A110000 		.4byte	0x114a
 3510 13b9 00       		.byte	0
 3511 13ba 27       		.uleb128 0x27
 3512 13bb 56120000 		.4byte	.LASF306
 3513 13bf 01       		.byte	0x1
 3514 13c0 F2       		.byte	0xf2
 3515 13c1 010A0000 		.4byte	0xa01
 3516 13c5 00000000 		.4byte	.LFB598
 3517 13c9 22000000 		.4byte	.LFE598-.LFB598
 3518 13cd 01       		.uleb128 0x1
 3519 13ce 9C       		.byte	0x9c
 3520 13cf F3130000 		.4byte	0x13f3
 3521 13d3 20       		.uleb128 0x20
 3522 13d4 7800     		.ascii	"x\000"
 3523 13d6 01       		.byte	0x1
 3524 13d7 F2       		.byte	0xf2
 3525 13d8 3E100000 		.4byte	0x103e
 3526 13dc D8010000 		.4byte	.LLST11
 3527 13e0 28       		.uleb128 0x28
 3528 13e1 0C000000 		.4byte	.LVL52
 3529 13e5 4A110000 		.4byte	0x114a
 3530 13e9 28       		.uleb128 0x28
 3531 13ea 1A000000 		.4byte	.LVL55
 3532 13ee 4A110000 		.4byte	0x114a
 3533 13f2 00       		.byte	0
 3534 13f3 29       		.uleb128 0x29
 3535 13f4 A0070000 		.4byte	.LASF307
 3536 13f8 01       		.byte	0x1
 3537 13f9 1801     		.2byte	0x118
 3538 13fb 010A0000 		.4byte	0xa01
 3539 13ff 00000000 		.4byte	.LFB600
 3540 1403 22000000 		.4byte	.LFE600-.LFB600
 3541 1407 01       		.uleb128 0x1
 3542 1408 9C       		.byte	0x9c
 3543 1409 7F140000 		.4byte	0x147f
 3544 140d 2A       		.uleb128 0x2a
 3545 140e 72656400 		.ascii	"red\000"
 3546 1412 01       		.byte	0x1
 3547 1413 1801     		.2byte	0x118
ARM GAS  C:\Users\guill\AppData\Local\Temp\cclz5xua.s 			page 92


 3548 1415 B4000000 		.4byte	0xb4
 3549 1419 2B020000 		.4byte	.LLST12
 3550 141d 2B       		.uleb128 0x2b
 3551 141e 840C0000 		.4byte	.LASF308
 3552 1422 01       		.byte	0x1
 3553 1423 1801     		.2byte	0x118
 3554 1425 B4000000 		.4byte	0xb4
 3555 1429 4C020000 		.4byte	.LLST13
 3556 142d 2B       		.uleb128 0x2b
 3557 142e 4D0F0000 		.4byte	.LASF309
 3558 1432 01       		.byte	0x1
 3559 1433 1801     		.2byte	0x118
 3560 1435 B4000000 		.4byte	0xb4
 3561 1439 6D020000 		.4byte	.LLST14
 3562 143d 23       		.uleb128 0x23
 3563 143e 0E000000 		.4byte	.LVL61
 3564 1442 B0110000 		.4byte	0x11b0
 3565 1446 50140000 		.4byte	0x1450
 3566 144a 24       		.uleb128 0x24
 3567 144b 01       		.uleb128 0x1
 3568 144c 50       		.byte	0x50
 3569 144d 01       		.uleb128 0x1
 3570 144e 34       		.byte	0x34
 3571 144f 00       		.byte	0
 3572 1450 23       		.uleb128 0x23
 3573 1451 16000000 		.4byte	.LVL62
 3574 1455 B0110000 		.4byte	0x11b0
 3575 1459 69140000 		.4byte	0x1469
 3576 145d 24       		.uleb128 0x24
 3577 145e 01       		.uleb128 0x1
 3578 145f 50       		.byte	0x50
 3579 1460 01       		.uleb128 0x1
 3580 1461 33       		.byte	0x33
 3581 1462 24       		.uleb128 0x24
 3582 1463 01       		.uleb128 0x1
 3583 1464 51       		.byte	0x51
 3584 1465 02       		.uleb128 0x2
 3585 1466 75       		.byte	0x75
 3586 1467 00       		.sleb128 0
 3587 1468 00       		.byte	0
 3588 1469 25       		.uleb128 0x25
 3589 146a 1E000000 		.4byte	.LVL63
 3590 146e B0110000 		.4byte	0x11b0
 3591 1472 24       		.uleb128 0x24
 3592 1473 01       		.uleb128 0x1
 3593 1474 50       		.byte	0x50
 3594 1475 01       		.uleb128 0x1
 3595 1476 32       		.byte	0x32
 3596 1477 24       		.uleb128 0x24
 3597 1478 01       		.uleb128 0x1
 3598 1479 51       		.byte	0x51
 3599 147a 02       		.uleb128 0x2
 3600 147b 74       		.byte	0x74
 3601 147c 00       		.sleb128 0
 3602 147d 00       		.byte	0
 3603 147e 00       		.byte	0
 3604 147f 29       		.uleb128 0x29
ARM GAS  C:\Users\guill\AppData\Local\Temp\cclz5xua.s 			page 93


 3605 1480 6A060000 		.4byte	.LASF310
 3606 1484 01       		.byte	0x1
 3607 1485 0201     		.2byte	0x102
 3608 1487 010A0000 		.4byte	0xa01
 3609 148b 00000000 		.4byte	.LFB599
 3610 148f 3E000000 		.4byte	.LFE599-.LFB599
 3611 1493 01       		.uleb128 0x1
 3612 1494 9C       		.byte	0x9c
 3613 1495 1E150000 		.4byte	0x151e
 3614 1499 2A       		.uleb128 0x2a
 3615 149a 7800     		.ascii	"x\000"
 3616 149c 01       		.byte	0x1
 3617 149d 0201     		.2byte	0x102
 3618 149f 15100000 		.4byte	0x1015
 3619 14a3 8E020000 		.4byte	.LLST15
 3620 14a7 23       		.uleb128 0x23
 3621 14a8 10000000 		.4byte	.LVL66
 3622 14ac F3130000 		.4byte	0x13f3
 3623 14b0 C7140000 		.4byte	0x14c7
 3624 14b4 24       		.uleb128 0x24
 3625 14b5 01       		.uleb128 0x1
 3626 14b6 50       		.byte	0x50
 3627 14b7 02       		.uleb128 0x2
 3628 14b8 09       		.byte	0x9
 3629 14b9 FF       		.byte	0xff
 3630 14ba 24       		.uleb128 0x24
 3631 14bb 01       		.uleb128 0x1
 3632 14bc 51       		.byte	0x51
 3633 14bd 02       		.uleb128 0x2
 3634 14be 09       		.byte	0x9
 3635 14bf FF       		.byte	0xff
 3636 14c0 24       		.uleb128 0x24
 3637 14c1 01       		.uleb128 0x1
 3638 14c2 52       		.byte	0x52
 3639 14c3 02       		.uleb128 0x2
 3640 14c4 09       		.byte	0x9
 3641 14c5 FF       		.byte	0xff
 3642 14c6 00       		.byte	0
 3643 14c7 23       		.uleb128 0x23
 3644 14c8 1E000000 		.4byte	.LVL67
 3645 14cc F3130000 		.4byte	0x13f3
 3646 14d0 E5140000 		.4byte	0x14e5
 3647 14d4 24       		.uleb128 0x24
 3648 14d5 01       		.uleb128 0x1
 3649 14d6 50       		.byte	0x50
 3650 14d7 02       		.uleb128 0x2
 3651 14d8 09       		.byte	0x9
 3652 14d9 FF       		.byte	0xff
 3653 14da 24       		.uleb128 0x24
 3654 14db 01       		.uleb128 0x1
 3655 14dc 51       		.byte	0x51
 3656 14dd 01       		.uleb128 0x1
 3657 14de 30       		.byte	0x30
 3658 14df 24       		.uleb128 0x24
 3659 14e0 01       		.uleb128 0x1
 3660 14e1 52       		.byte	0x52
 3661 14e2 01       		.uleb128 0x1
ARM GAS  C:\Users\guill\AppData\Local\Temp\cclz5xua.s 			page 94


 3662 14e3 30       		.byte	0x30
 3663 14e4 00       		.byte	0
 3664 14e5 23       		.uleb128 0x23
 3665 14e6 2C000000 		.4byte	.LVL68
 3666 14ea F3130000 		.4byte	0x13f3
 3667 14ee 03150000 		.4byte	0x1503
 3668 14f2 24       		.uleb128 0x24
 3669 14f3 01       		.uleb128 0x1
 3670 14f4 50       		.byte	0x50
 3671 14f5 01       		.uleb128 0x1
 3672 14f6 30       		.byte	0x30
 3673 14f7 24       		.uleb128 0x24
 3674 14f8 01       		.uleb128 0x1
 3675 14f9 51       		.byte	0x51
 3676 14fa 02       		.uleb128 0x2
 3677 14fb 09       		.byte	0x9
 3678 14fc FF       		.byte	0xff
 3679 14fd 24       		.uleb128 0x24
 3680 14fe 01       		.uleb128 0x1
 3681 14ff 52       		.byte	0x52
 3682 1500 01       		.uleb128 0x1
 3683 1501 30       		.byte	0x30
 3684 1502 00       		.byte	0
 3685 1503 25       		.uleb128 0x25
 3686 1504 3A000000 		.4byte	.LVL69
 3687 1508 F3130000 		.4byte	0x13f3
 3688 150c 24       		.uleb128 0x24
 3689 150d 01       		.uleb128 0x1
 3690 150e 50       		.byte	0x50
 3691 150f 01       		.uleb128 0x1
 3692 1510 30       		.byte	0x30
 3693 1511 24       		.uleb128 0x24
 3694 1512 01       		.uleb128 0x1
 3695 1513 51       		.byte	0x51
 3696 1514 01       		.uleb128 0x1
 3697 1515 30       		.byte	0x30
 3698 1516 24       		.uleb128 0x24
 3699 1517 01       		.uleb128 0x1
 3700 1518 52       		.byte	0x52
 3701 1519 02       		.uleb128 0x2
 3702 151a 09       		.byte	0x9
 3703 151b FF       		.byte	0xff
 3704 151c 00       		.byte	0
 3705 151d 00       		.byte	0
 3706 151e 29       		.uleb128 0x29
 3707 151f C4100000 		.4byte	.LASF311
 3708 1523 01       		.byte	0x1
 3709 1524 2101     		.2byte	0x121
 3710 1526 010A0000 		.4byte	0xa01
 3711 152a 00000000 		.4byte	.LFB601
 3712 152e 42000000 		.4byte	.LFE601-.LFB601
 3713 1532 01       		.uleb128 0x1
 3714 1533 9C       		.byte	0x9c
 3715 1534 A5150000 		.4byte	0x15a5
 3716 1538 2A       		.uleb128 0x2a
 3717 1539 636F6C00 		.ascii	"col\000"
 3718 153d 01       		.byte	0x1
ARM GAS  C:\Users\guill\AppData\Local\Temp\cclz5xua.s 			page 95


 3719 153e 2101     		.2byte	0x121
 3720 1540 B4000000 		.4byte	0xb4
 3721 1544 AF020000 		.4byte	.LLST16
 3722 1548 2A       		.uleb128 0x2a
 3723 1549 726F7700 		.ascii	"row\000"
 3724 154d 01       		.byte	0x1
 3725 154e 2101     		.2byte	0x121
 3726 1550 B4000000 		.4byte	0xb4
 3727 1554 F4020000 		.4byte	.LLST17
 3728 1558 2C       		.uleb128 0x2c
 3729 1559 0C000000 		.4byte	.LBB5
 3730 155d 30000000 		.4byte	.LBE5-.LBB5
 3731 1561 2D       		.uleb128 0x2d
 3732 1562 B9080000 		.4byte	.LASF295
 3733 1566 01       		.byte	0x1
 3734 1567 2401     		.2byte	0x124
 3735 1569 5A010000 		.4byte	0x15a
 3736 156d 02       		.uleb128 0x2
 3737 156e 91       		.byte	0x91
 3738 156f 6C       		.sleb128 -20
 3739 1570 23       		.uleb128 0x23
 3740 1571 2E000000 		.4byte	.LVL76
 3741 1575 12190000 		.4byte	0x1912
 3742 1579 8E150000 		.4byte	0x158e
 3743 157d 24       		.uleb128 0x24
 3744 157e 01       		.uleb128 0x1
 3745 157f 50       		.byte	0x50
 3746 1580 02       		.uleb128 0x2
 3747 1581 75       		.byte	0x75
 3748 1582 00       		.sleb128 0
 3749 1583 24       		.uleb128 0x24
 3750 1584 01       		.uleb128 0x1
 3751 1585 51       		.byte	0x51
 3752 1586 01       		.uleb128 0x1
 3753 1587 30       		.byte	0x30
 3754 1588 24       		.uleb128 0x24
 3755 1589 01       		.uleb128 0x1
 3756 158a 52       		.byte	0x52
 3757 158b 01       		.uleb128 0x1
 3758 158c 33       		.byte	0x33
 3759 158d 00       		.byte	0
 3760 158e 25       		.uleb128 0x25
 3761 158f 3C000000 		.4byte	.LVL77
 3762 1593 97100000 		.4byte	0x1097
 3763 1597 24       		.uleb128 0x24
 3764 1598 01       		.uleb128 0x1
 3765 1599 50       		.byte	0x50
 3766 159a 02       		.uleb128 0x2
 3767 159b 75       		.byte	0x75
 3768 159c 00       		.sleb128 0
 3769 159d 24       		.uleb128 0x24
 3770 159e 01       		.uleb128 0x1
 3771 159f 51       		.byte	0x51
 3772 15a0 01       		.uleb128 0x1
 3773 15a1 32       		.byte	0x32
 3774 15a2 00       		.byte	0
 3775 15a3 00       		.byte	0
ARM GAS  C:\Users\guill\AppData\Local\Temp\cclz5xua.s 			page 96


 3776 15a4 00       		.byte	0
 3777 15a5 2E       		.uleb128 0x2e
 3778 15a6 E5030000 		.4byte	.LASF312
 3779 15aa 01       		.byte	0x1
 3780 15ab 2D01     		.2byte	0x12d
 3781 15ad 010A0000 		.4byte	0xa01
 3782 15b1 00000000 		.4byte	.LFB602
 3783 15b5 12000000 		.4byte	.LFE602-.LFB602
 3784 15b9 01       		.uleb128 0x1
 3785 15ba 9C       		.byte	0x9c
 3786 15bb E2150000 		.4byte	0x15e2
 3787 15bf 23       		.uleb128 0x23
 3788 15c0 08000000 		.4byte	.LVL78
 3789 15c4 4A110000 		.4byte	0x114a
 3790 15c8 D2150000 		.4byte	0x15d2
 3791 15cc 24       		.uleb128 0x24
 3792 15cd 01       		.uleb128 0x1
 3793 15ce 50       		.byte	0x50
 3794 15cf 01       		.uleb128 0x1
 3795 15d0 31       		.byte	0x31
 3796 15d1 00       		.byte	0
 3797 15d2 25       		.uleb128 0x25
 3798 15d3 0E000000 		.4byte	.LVL79
 3799 15d7 EE180000 		.4byte	0x18ee
 3800 15db 24       		.uleb128 0x24
 3801 15dc 01       		.uleb128 0x1
 3802 15dd 50       		.byte	0x50
 3803 15de 01       		.uleb128 0x1
 3804 15df 32       		.byte	0x32
 3805 15e0 00       		.byte	0
 3806 15e1 00       		.byte	0
 3807 15e2 27       		.uleb128 0x27
 3808 15e3 850F0000 		.4byte	.LASF313
 3809 15e7 01       		.byte	0x1
 3810 15e8 7B       		.byte	0x7b
 3811 15e9 010A0000 		.4byte	0xa01
 3812 15ed 00000000 		.4byte	.LFB593
 3813 15f1 A8000000 		.4byte	.LFE593-.LFB593
 3814 15f5 01       		.uleb128 0x1
 3815 15f6 9C       		.byte	0x9c
 3816 15f7 3E170000 		.4byte	0x173e
 3817 15fb 1F       		.uleb128 0x1f
 3818 15fc 99100000 		.4byte	.LASF314
 3819 1600 01       		.byte	0x1
 3820 1601 7B       		.byte	0x7b
 3821 1602 91100000 		.4byte	0x1091
 3822 1606 15030000 		.4byte	.LLST18
 3823 160a 1F       		.uleb128 0x1f
 3824 160b E40A0000 		.4byte	.LASF315
 3825 160f 01       		.byte	0x1
 3826 1610 7B       		.byte	0x7b
 3827 1611 3E170000 		.4byte	0x173e
 3828 1615 5A030000 		.4byte	.LLST19
 3829 1619 2F       		.uleb128 0x2f
 3830 161a 08120000 		.4byte	.LASF316
 3831 161e 01       		.byte	0x1
 3832 161f 7D       		.byte	0x7d
ARM GAS  C:\Users\guill\AppData\Local\Temp\cclz5xua.s 			page 97


 3833 1620 640A0000 		.4byte	0xa64
 3834 1624 86030000 		.4byte	.LLST20
 3835 1628 30       		.uleb128 0x30
 3836 1629 77100000 		.4byte	0x1077
 3837 162d 10000000 		.4byte	.LBB6
 3838 1631 0A000000 		.4byte	.LBE6-.LBB6
 3839 1635 01       		.byte	0x1
 3840 1636 8A       		.byte	0x8a
 3841 1637 45160000 		.4byte	0x1645
 3842 163b 31       		.uleb128 0x31
 3843 163c 84100000 		.4byte	0x1084
 3844 1640 B1030000 		.4byte	.LLST21
 3845 1644 00       		.byte	0
 3846 1645 23       		.uleb128 0x23
 3847 1646 0C000000 		.4byte	.LVL82
 3848 164a 1B190000 		.4byte	0x191b
 3849 164e 60160000 		.4byte	0x1660
 3850 1652 24       		.uleb128 0x24
 3851 1653 01       		.uleb128 0x1
 3852 1654 50       		.byte	0x50
 3853 1655 02       		.uleb128 0x2
 3854 1656 74       		.byte	0x74
 3855 1657 00       		.sleb128 0
 3856 1658 24       		.uleb128 0x24
 3857 1659 01       		.uleb128 0x1
 3858 165a 52       		.byte	0x52
 3859 165b 03       		.uleb128 0x3
 3860 165c F3       		.byte	0xf3
 3861 165d 01       		.uleb128 0x1
 3862 165e 51       		.byte	0x51
 3863 165f 00       		.byte	0
 3864 1660 28       		.uleb128 0x28
 3865 1661 2A000000 		.4byte	.LVL86
 3866 1665 EE180000 		.4byte	0x18ee
 3867 1669 28       		.uleb128 0x28
 3868 166a 36000000 		.4byte	.LVL88
 3869 166e 4A110000 		.4byte	0x114a
 3870 1672 23       		.uleb128 0x23
 3871 1673 3C000000 		.4byte	.LVL89
 3872 1677 EE180000 		.4byte	0x18ee
 3873 167b 85160000 		.4byte	0x1685
 3874 167f 24       		.uleb128 0x24
 3875 1680 01       		.uleb128 0x1
 3876 1681 50       		.byte	0x50
 3877 1682 01       		.uleb128 0x1
 3878 1683 35       		.byte	0x35
 3879 1684 00       		.byte	0
 3880 1685 28       		.uleb128 0x28
 3881 1686 46000000 		.4byte	.LVL90
 3882 168a 4A110000 		.4byte	0x114a
 3883 168e 23       		.uleb128 0x23
 3884 168f 4C000000 		.4byte	.LVL91
 3885 1693 EE180000 		.4byte	0x18ee
 3886 1697 A1160000 		.4byte	0x16a1
 3887 169b 24       		.uleb128 0x24
 3888 169c 01       		.uleb128 0x1
 3889 169d 50       		.byte	0x50
ARM GAS  C:\Users\guill\AppData\Local\Temp\cclz5xua.s 			page 98


 3890 169e 01       		.uleb128 0x1
 3891 169f 35       		.byte	0x35
 3892 16a0 00       		.byte	0
 3893 16a1 23       		.uleb128 0x23
 3894 16a2 56000000 		.4byte	.LVL92
 3895 16a6 4A110000 		.4byte	0x114a
 3896 16aa B5160000 		.4byte	0x16b5
 3897 16ae 24       		.uleb128 0x24
 3898 16af 01       		.uleb128 0x1
 3899 16b0 50       		.byte	0x50
 3900 16b1 02       		.uleb128 0x2
 3901 16b2 74       		.byte	0x74
 3902 16b3 00       		.sleb128 0
 3903 16b4 00       		.byte	0
 3904 16b5 23       		.uleb128 0x23
 3905 16b6 62000000 		.4byte	.LVL93
 3906 16ba D4120000 		.4byte	0x12d4
 3907 16be C8160000 		.4byte	0x16c8
 3908 16c2 24       		.uleb128 0x24
 3909 16c3 01       		.uleb128 0x1
 3910 16c4 50       		.byte	0x50
 3911 16c5 01       		.uleb128 0x1
 3912 16c6 31       		.byte	0x31
 3913 16c7 00       		.byte	0
 3914 16c8 28       		.uleb128 0x28
 3915 16c9 66000000 		.4byte	.LVL94
 3916 16cd A5150000 		.4byte	0x15a5
 3917 16d1 23       		.uleb128 0x23
 3918 16d2 72000000 		.4byte	.LVL95
 3919 16d6 4A110000 		.4byte	0x114a
 3920 16da E4160000 		.4byte	0x16e4
 3921 16de 24       		.uleb128 0x24
 3922 16df 01       		.uleb128 0x1
 3923 16e0 50       		.byte	0x50
 3924 16e1 01       		.uleb128 0x1
 3925 16e2 36       		.byte	0x36
 3926 16e3 00       		.byte	0
 3927 16e4 23       		.uleb128 0x23
 3928 16e5 7A000000 		.4byte	.LVL96
 3929 16e9 B0110000 		.4byte	0x11b0
 3930 16ed FC160000 		.4byte	0x16fc
 3931 16f1 24       		.uleb128 0x24
 3932 16f2 01       		.uleb128 0x1
 3933 16f3 50       		.byte	0x50
 3934 16f4 01       		.uleb128 0x1
 3935 16f5 30       		.byte	0x30
 3936 16f6 24       		.uleb128 0x24
 3937 16f7 01       		.uleb128 0x1
 3938 16f8 51       		.byte	0x51
 3939 16f9 01       		.uleb128 0x1
 3940 16fa 30       		.byte	0x30
 3941 16fb 00       		.byte	0
 3942 16fc 23       		.uleb128 0x23
 3943 16fd 82000000 		.4byte	.LVL97
 3944 1701 B0110000 		.4byte	0x11b0
 3945 1705 15170000 		.4byte	0x1715
 3946 1709 24       		.uleb128 0x24
ARM GAS  C:\Users\guill\AppData\Local\Temp\cclz5xua.s 			page 99


 3947 170a 01       		.uleb128 0x1
 3948 170b 50       		.byte	0x50
 3949 170c 01       		.uleb128 0x1
 3950 170d 38       		.byte	0x38
 3951 170e 24       		.uleb128 0x24
 3952 170f 01       		.uleb128 0x1
 3953 1710 51       		.byte	0x51
 3954 1711 02       		.uleb128 0x2
 3955 1712 09       		.byte	0x9
 3956 1713 FF       		.byte	0xff
 3957 1714 00       		.byte	0
 3958 1715 23       		.uleb128 0x23
 3959 1716 8A000000 		.4byte	.LVL98
 3960 171a B0110000 		.4byte	0x11b0
 3961 171e 2E170000 		.4byte	0x172e
 3962 1722 24       		.uleb128 0x24
 3963 1723 01       		.uleb128 0x1
 3964 1724 50       		.byte	0x50
 3965 1725 01       		.uleb128 0x1
 3966 1726 31       		.byte	0x31
 3967 1727 24       		.uleb128 0x24
 3968 1728 01       		.uleb128 0x1
 3969 1729 51       		.byte	0x51
 3970 172a 02       		.uleb128 0x2
 3971 172b 08       		.byte	0x8
 3972 172c 20       		.byte	0x20
 3973 172d 00       		.byte	0
 3974 172e 25       		.uleb128 0x25
 3975 172f 90000000 		.4byte	.LVL99
 3976 1733 7F140000 		.4byte	0x147f
 3977 1737 24       		.uleb128 0x24
 3978 1738 01       		.uleb128 0x1
 3979 1739 50       		.byte	0x50
 3980 173a 01       		.uleb128 0x1
 3981 173b 30       		.byte	0x30
 3982 173c 00       		.byte	0
 3983 173d 00       		.byte	0
 3984 173e 06       		.uleb128 0x6
 3985 173f 04       		.byte	0x4
 3986 1740 ED0C0000 		.4byte	0xced
 3987 1744 29       		.uleb128 0x29
 3988 1745 6C0B0000 		.4byte	.LASF317
 3989 1749 01       		.byte	0x1
 3990 174a 3701     		.2byte	0x137
 3991 174c 010A0000 		.4byte	0xa01
 3992 1750 00000000 		.4byte	.LFB603
 3993 1754 46000000 		.4byte	.LFE603-.LFB603
 3994 1758 01       		.uleb128 0x1
 3995 1759 9C       		.byte	0x9c
 3996 175a C6170000 		.4byte	0x17c6
 3997 175e 2A       		.uleb128 0x2a
 3998 175f 73747200 		.ascii	"str\000"
 3999 1763 01       		.byte	0x1
 4000 1764 3701     		.2byte	0x137
 4001 1766 A7000000 		.4byte	0xa7
 4002 176a C4030000 		.4byte	.LLST22
 4003 176e 32       		.uleb128 0x32
ARM GAS  C:\Users\guill\AppData\Local\Temp\cclz5xua.s 			page 100


 4004 176f A00B0000 		.4byte	.LASF318
 4005 1773 01       		.byte	0x1
 4006 1774 3801     		.2byte	0x138
 4007 1776 B4000000 		.4byte	0xb4
 4008 177a F0030000 		.4byte	.LLST23
 4009 177e 33       		.uleb128 0x33
 4010 177f 6900     		.ascii	"i\000"
 4011 1781 01       		.byte	0x1
 4012 1782 3901     		.2byte	0x139
 4013 1784 D5000000 		.4byte	0xd5
 4014 1788 0E040000 		.4byte	.LLST24
 4015 178c 23       		.uleb128 0x23
 4016 178d 08000000 		.4byte	.LVL103
 4017 1791 27190000 		.4byte	0x1927
 4018 1795 A0170000 		.4byte	0x17a0
 4019 1799 24       		.uleb128 0x24
 4020 179a 01       		.uleb128 0x1
 4021 179b 50       		.byte	0x50
 4022 179c 02       		.uleb128 0x2
 4023 179d 76       		.byte	0x76
 4024 179e 00       		.sleb128 0
 4025 179f 00       		.byte	0
 4026 17a0 23       		.uleb128 0x23
 4027 17a1 16000000 		.4byte	.LVL106
 4028 17a5 81130000 		.4byte	0x1381
 4029 17a9 B3170000 		.4byte	0x17b3
 4030 17ad 24       		.uleb128 0x24
 4031 17ae 01       		.uleb128 0x1
 4032 17af 50       		.byte	0x50
 4033 17b0 01       		.uleb128 0x1
 4034 17b1 31       		.byte	0x31
 4035 17b2 00       		.byte	0
 4036 17b3 28       		.uleb128 0x28
 4037 17b4 20000000 		.4byte	.LVL108
 4038 17b8 6E120000 		.4byte	0x126e
 4039 17bc 28       		.uleb128 0x28
 4040 17bd 34000000 		.4byte	.LVL110
 4041 17c1 6E120000 		.4byte	0x126e
 4042 17c5 00       		.byte	0
 4043 17c6 34       		.uleb128 0x34
 4044 17c7 48000000 		.4byte	.LASF319
 4045 17cb 07       		.byte	0x7
 4046 17cc A7       		.byte	0xa7
 4047 17cd D1170000 		.4byte	0x17d1
 4048 17d1 06       		.uleb128 0x6
 4049 17d2 04       		.byte	0x4
 4050 17d3 D7170000 		.4byte	0x17d7
 4051 17d7 08       		.uleb128 0x8
 4052 17d8 E8090000 		.4byte	0x9e8
 4053 17dc 34       		.uleb128 0x34
 4054 17dd 39120000 		.4byte	.LASF320
 4055 17e1 0C       		.byte	0xc
 4056 17e2 87       		.byte	0x87
 4057 17e3 C90D0000 		.4byte	0xdc9
 4058 17e7 34       		.uleb128 0x34
 4059 17e8 C70C0000 		.4byte	.LASF321
 4060 17ec 0D       		.byte	0xd
ARM GAS  C:\Users\guill\AppData\Local\Temp\cclz5xua.s 			page 101


 4061 17ed 1F       		.byte	0x1f
 4062 17ee F2170000 		.4byte	0x17f2
 4063 17f2 08       		.uleb128 0x8
 4064 17f3 0A100000 		.4byte	0x100a
 4065 17f7 34       		.uleb128 0x34
 4066 17f8 39090000 		.4byte	.LASF322
 4067 17fc 0E       		.byte	0xe
 4068 17fd 1F       		.byte	0x1f
 4069 17fe F2170000 		.4byte	0x17f2
 4070 1802 34       		.uleb128 0x34
 4071 1803 AB070000 		.4byte	.LASF323
 4072 1807 0F       		.byte	0xf
 4073 1808 7E       		.byte	0x7e
 4074 1809 0D180000 		.4byte	0x180d
 4075 180d 08       		.uleb128 0x8
 4076 180e B70B0000 		.4byte	0xbb7
 4077 1812 34       		.uleb128 0x34
 4078 1813 3C110000 		.4byte	.LASF324
 4079 1817 0F       		.byte	0xf
 4080 1818 7F       		.byte	0x7f
 4081 1819 ED0C0000 		.4byte	0xced
 4082 181d 34       		.uleb128 0x34
 4083 181e 61010000 		.4byte	.LASF325
 4084 1822 10       		.byte	0x10
 4085 1823 1F       		.byte	0x1f
 4086 1824 28180000 		.4byte	0x1828
 4087 1828 08       		.uleb128 0x8
 4088 1829 C60E0000 		.4byte	0xec6
 4089 182d 34       		.uleb128 0x34
 4090 182e 01050000 		.4byte	.LASF326
 4091 1832 11       		.byte	0x11
 4092 1833 1F       		.byte	0x1f
 4093 1834 F2170000 		.4byte	0x17f2
 4094 1838 35       		.uleb128 0x35
 4095 1839 D5110000 		.4byte	.LASF327
 4096 183d 01       		.byte	0x1
 4097 183e 4A       		.byte	0x4a
 4098 183f B4000000 		.4byte	0xb4
 4099 1843 05       		.uleb128 0x5
 4100 1844 03       		.byte	0x3
 4101 1845 00000000 		.4byte	_showFunction
 4102 1849 35       		.uleb128 0x35
 4103 184a 52000000 		.4byte	.LASF328
 4104 184e 01       		.byte	0x1
 4105 184f 4B       		.byte	0x4b
 4106 1850 B4000000 		.4byte	0xb4
 4107 1854 05       		.uleb128 0x5
 4108 1855 03       		.byte	0x3
 4109 1856 00000000 		.4byte	_showControl
 4110 185a 35       		.uleb128 0x35
 4111 185b D8100000 		.4byte	.LASF329
 4112 185f 01       		.byte	0x1
 4113 1860 4C       		.byte	0x4c
 4114 1861 B4000000 		.4byte	0xb4
 4115 1865 05       		.uleb128 0x5
 4116 1866 03       		.byte	0x3
 4117 1867 00000000 		.4byte	_showMode
ARM GAS  C:\Users\guill\AppData\Local\Temp\cclz5xua.s 			page 102


 4118 186b 35       		.uleb128 0x35
 4119 186c 03130000 		.4byte	.LASF330
 4120 1870 01       		.byte	0x1
 4121 1871 4D       		.byte	0x4d
 4122 1872 B4000000 		.4byte	0xb4
 4123 1876 05       		.uleb128 0x5
 4124 1877 03       		.byte	0x3
 4125 1878 00000000 		.4byte	_initialized
 4126 187c 35       		.uleb128 0x35
 4127 187d E6120000 		.4byte	.LASF331
 4128 1881 01       		.byte	0x1
 4129 1882 4E       		.byte	0x4e
 4130 1883 B4000000 		.4byte	0xb4
 4131 1887 05       		.uleb128 0x5
 4132 1888 03       		.byte	0x3
 4133 1889 00000000 		.4byte	_numLines
 4134 188d 35       		.uleb128 0x35
 4135 188e 7A0C0000 		.4byte	.LASF332
 4136 1892 01       		.byte	0x1
 4137 1893 4E       		.byte	0x4e
 4138 1894 B4000000 		.4byte	0xb4
 4139 1898 05       		.uleb128 0x5
 4140 1899 03       		.byte	0x3
 4141 189a 00000000 		.4byte	_currLine
 4142 189e 35       		.uleb128 0x35
 4143 189f 1F010000 		.4byte	.LASF333
 4144 18a3 01       		.byte	0x1
 4145 18a4 4F       		.byte	0x4f
 4146 18a5 B4000000 		.4byte	0xb4
 4147 18a9 05       		.uleb128 0x5
 4148 18aa 03       		.byte	0x3
 4149 18ab 00000000 		.4byte	_lcdAddr
 4150 18af 35       		.uleb128 0x35
 4151 18b0 150B0000 		.4byte	.LASF334
 4152 18b4 01       		.byte	0x1
 4153 18b5 50       		.byte	0x50
 4154 18b6 B4000000 		.4byte	0xb4
 4155 18ba 05       		.uleb128 0x5
 4156 18bb 03       		.byte	0x3
 4157 18bc 00000000 		.4byte	_RGBAddr
 4158 18c0 35       		.uleb128 0x35
 4159 18c1 0A040000 		.4byte	.LASF335
 4160 18c5 01       		.byte	0x1
 4161 18c6 51       		.byte	0x51
 4162 18c7 B4000000 		.4byte	0xb4
 4163 18cb 05       		.uleb128 0x5
 4164 18cc 03       		.byte	0x3
 4165 18cd 00000000 		.4byte	_cols
 4166 18d1 35       		.uleb128 0x35
 4167 18d2 A50B0000 		.4byte	.LASF336
 4168 18d6 01       		.byte	0x1
 4169 18d7 52       		.byte	0x52
 4170 18d8 B4000000 		.4byte	0xb4
 4171 18dc 05       		.uleb128 0x5
 4172 18dd 03       		.byte	0x3
 4173 18de 00000000 		.4byte	_rows
 4174 18e2 36       		.uleb128 0x36
ARM GAS  C:\Users\guill\AppData\Local\Temp\cclz5xua.s 			page 103


 4175 18e3 79050000 		.4byte	.LASF337
 4176 18e7 79050000 		.4byte	.LASF337
 4177 18eb 02       		.byte	0x2
 4178 18ec 5A03     		.2byte	0x35a
 4179 18ee 36       		.uleb128 0x36
 4180 18ef C7040000 		.4byte	.LASF338
 4181 18f3 C7040000 		.4byte	.LASF338
 4182 18f7 12       		.byte	0x12
 4183 18f8 8903     		.2byte	0x389
 4184 18fa 36       		.uleb128 0x36
 4185 18fb EA0F0000 		.4byte	.LASF339
 4186 18ff EA0F0000 		.4byte	.LASF339
 4187 1903 02       		.byte	0x2
 4188 1904 5303     		.2byte	0x353
 4189 1906 36       		.uleb128 0x36
 4190 1907 160A0000 		.4byte	.LASF340
 4191 190b 160A0000 		.4byte	.LASF340
 4192 190f 02       		.byte	0x2
 4193 1910 5703     		.2byte	0x357
 4194 1912 37       		.uleb128 0x37
 4195 1913 410B0000 		.4byte	.LASF348
 4196 1917 410B0000 		.4byte	.LASF348
 4197 191b 36       		.uleb128 0x36
 4198 191c 46120000 		.4byte	.LASF341
 4199 1920 46120000 		.4byte	.LASF341
 4200 1924 02       		.byte	0x2
 4201 1925 1A03     		.2byte	0x31a
 4202 1927 38       		.uleb128 0x38
 4203 1928 99000000 		.4byte	.LASF342
 4204 192c 99000000 		.4byte	.LASF342
 4205 1930 13       		.byte	0x13
 4206 1931 21       		.byte	0x21
 4207 1932 00       		.byte	0
 4208              		.section	.debug_abbrev,"",%progbits
 4209              	.Ldebug_abbrev0:
 4210 0000 01       		.uleb128 0x1
 4211 0001 11       		.uleb128 0x11
 4212 0002 01       		.byte	0x1
 4213 0003 25       		.uleb128 0x25
 4214 0004 0E       		.uleb128 0xe
 4215 0005 13       		.uleb128 0x13
 4216 0006 0B       		.uleb128 0xb
 4217 0007 03       		.uleb128 0x3
 4218 0008 0E       		.uleb128 0xe
 4219 0009 1B       		.uleb128 0x1b
 4220 000a 0E       		.uleb128 0xe
 4221 000b 55       		.uleb128 0x55
 4222 000c 17       		.uleb128 0x17
 4223 000d 11       		.uleb128 0x11
 4224 000e 01       		.uleb128 0x1
 4225 000f 10       		.uleb128 0x10
 4226 0010 17       		.uleb128 0x17
 4227 0011 00       		.byte	0
 4228 0012 00       		.byte	0
 4229 0013 02       		.uleb128 0x2
 4230 0014 24       		.uleb128 0x24
 4231 0015 00       		.byte	0
ARM GAS  C:\Users\guill\AppData\Local\Temp\cclz5xua.s 			page 104


 4232 0016 0B       		.uleb128 0xb
 4233 0017 0B       		.uleb128 0xb
 4234 0018 3E       		.uleb128 0x3e
 4235 0019 0B       		.uleb128 0xb
 4236 001a 03       		.uleb128 0x3
 4237 001b 0E       		.uleb128 0xe
 4238 001c 00       		.byte	0
 4239 001d 00       		.byte	0
 4240 001e 03       		.uleb128 0x3
 4241 001f 16       		.uleb128 0x16
 4242 0020 00       		.byte	0
 4243 0021 03       		.uleb128 0x3
 4244 0022 0E       		.uleb128 0xe
 4245 0023 3A       		.uleb128 0x3a
 4246 0024 0B       		.uleb128 0xb
 4247 0025 3B       		.uleb128 0x3b
 4248 0026 0B       		.uleb128 0xb
 4249 0027 49       		.uleb128 0x49
 4250 0028 13       		.uleb128 0x13
 4251 0029 00       		.byte	0
 4252 002a 00       		.byte	0
 4253 002b 04       		.uleb128 0x4
 4254 002c 24       		.uleb128 0x24
 4255 002d 00       		.byte	0
 4256 002e 0B       		.uleb128 0xb
 4257 002f 0B       		.uleb128 0xb
 4258 0030 3E       		.uleb128 0x3e
 4259 0031 0B       		.uleb128 0xb
 4260 0032 03       		.uleb128 0x3
 4261 0033 08       		.uleb128 0x8
 4262 0034 00       		.byte	0
 4263 0035 00       		.byte	0
 4264 0036 05       		.uleb128 0x5
 4265 0037 0F       		.uleb128 0xf
 4266 0038 00       		.byte	0
 4267 0039 0B       		.uleb128 0xb
 4268 003a 0B       		.uleb128 0xb
 4269 003b 00       		.byte	0
 4270 003c 00       		.byte	0
 4271 003d 06       		.uleb128 0x6
 4272 003e 0F       		.uleb128 0xf
 4273 003f 00       		.byte	0
 4274 0040 0B       		.uleb128 0xb
 4275 0041 0B       		.uleb128 0xb
 4276 0042 49       		.uleb128 0x49
 4277 0043 13       		.uleb128 0x13
 4278 0044 00       		.byte	0
 4279 0045 00       		.byte	0
 4280 0046 07       		.uleb128 0x7
 4281 0047 35       		.uleb128 0x35
 4282 0048 00       		.byte	0
 4283 0049 49       		.uleb128 0x49
 4284 004a 13       		.uleb128 0x13
 4285 004b 00       		.byte	0
 4286 004c 00       		.byte	0
 4287 004d 08       		.uleb128 0x8
 4288 004e 26       		.uleb128 0x26
ARM GAS  C:\Users\guill\AppData\Local\Temp\cclz5xua.s 			page 105


 4289 004f 00       		.byte	0
 4290 0050 49       		.uleb128 0x49
 4291 0051 13       		.uleb128 0x13
 4292 0052 00       		.byte	0
 4293 0053 00       		.byte	0
 4294 0054 09       		.uleb128 0x9
 4295 0055 01       		.uleb128 0x1
 4296 0056 01       		.byte	0x1
 4297 0057 49       		.uleb128 0x49
 4298 0058 13       		.uleb128 0x13
 4299 0059 01       		.uleb128 0x1
 4300 005a 13       		.uleb128 0x13
 4301 005b 00       		.byte	0
 4302 005c 00       		.byte	0
 4303 005d 0A       		.uleb128 0xa
 4304 005e 21       		.uleb128 0x21
 4305 005f 00       		.byte	0
 4306 0060 49       		.uleb128 0x49
 4307 0061 13       		.uleb128 0x13
 4308 0062 2F       		.uleb128 0x2f
 4309 0063 0B       		.uleb128 0xb
 4310 0064 00       		.byte	0
 4311 0065 00       		.byte	0
 4312 0066 0B       		.uleb128 0xb
 4313 0067 21       		.uleb128 0x21
 4314 0068 00       		.byte	0
 4315 0069 49       		.uleb128 0x49
 4316 006a 13       		.uleb128 0x13
 4317 006b 2F       		.uleb128 0x2f
 4318 006c 05       		.uleb128 0x5
 4319 006d 00       		.byte	0
 4320 006e 00       		.byte	0
 4321 006f 0C       		.uleb128 0xc
 4322 0070 13       		.uleb128 0x13
 4323 0071 01       		.byte	0x1
 4324 0072 0B       		.uleb128 0xb
 4325 0073 05       		.uleb128 0x5
 4326 0074 3A       		.uleb128 0x3a
 4327 0075 0B       		.uleb128 0xb
 4328 0076 3B       		.uleb128 0x3b
 4329 0077 0B       		.uleb128 0xb
 4330 0078 01       		.uleb128 0x1
 4331 0079 13       		.uleb128 0x13
 4332 007a 00       		.byte	0
 4333 007b 00       		.byte	0
 4334 007c 0D       		.uleb128 0xd
 4335 007d 0D       		.uleb128 0xd
 4336 007e 00       		.byte	0
 4337 007f 03       		.uleb128 0x3
 4338 0080 0E       		.uleb128 0xe
 4339 0081 3A       		.uleb128 0x3a
 4340 0082 0B       		.uleb128 0xb
 4341 0083 3B       		.uleb128 0x3b
 4342 0084 0B       		.uleb128 0xb
 4343 0085 49       		.uleb128 0x49
 4344 0086 13       		.uleb128 0x13
 4345 0087 38       		.uleb128 0x38
ARM GAS  C:\Users\guill\AppData\Local\Temp\cclz5xua.s 			page 106


 4346 0088 0B       		.uleb128 0xb
 4347 0089 00       		.byte	0
 4348 008a 00       		.byte	0
 4349 008b 0E       		.uleb128 0xe
 4350 008c 0D       		.uleb128 0xd
 4351 008d 00       		.byte	0
 4352 008e 03       		.uleb128 0x3
 4353 008f 0E       		.uleb128 0xe
 4354 0090 3A       		.uleb128 0x3a
 4355 0091 0B       		.uleb128 0xb
 4356 0092 3B       		.uleb128 0x3b
 4357 0093 0B       		.uleb128 0xb
 4358 0094 49       		.uleb128 0x49
 4359 0095 13       		.uleb128 0x13
 4360 0096 38       		.uleb128 0x38
 4361 0097 05       		.uleb128 0x5
 4362 0098 00       		.byte	0
 4363 0099 00       		.byte	0
 4364 009a 0F       		.uleb128 0xf
 4365 009b 16       		.uleb128 0x16
 4366 009c 00       		.byte	0
 4367 009d 03       		.uleb128 0x3
 4368 009e 0E       		.uleb128 0xe
 4369 009f 3A       		.uleb128 0x3a
 4370 00a0 0B       		.uleb128 0xb
 4371 00a1 3B       		.uleb128 0x3b
 4372 00a2 05       		.uleb128 0x5
 4373 00a3 49       		.uleb128 0x49
 4374 00a4 13       		.uleb128 0x13
 4375 00a5 00       		.byte	0
 4376 00a6 00       		.byte	0
 4377 00a7 10       		.uleb128 0x10
 4378 00a8 13       		.uleb128 0x13
 4379 00a9 01       		.byte	0x1
 4380 00aa 0B       		.uleb128 0xb
 4381 00ab 0B       		.uleb128 0xb
 4382 00ac 3A       		.uleb128 0x3a
 4383 00ad 0B       		.uleb128 0xb
 4384 00ae 3B       		.uleb128 0x3b
 4385 00af 0B       		.uleb128 0xb
 4386 00b0 01       		.uleb128 0x1
 4387 00b1 13       		.uleb128 0x13
 4388 00b2 00       		.byte	0
 4389 00b3 00       		.byte	0
 4390 00b4 11       		.uleb128 0x11
 4391 00b5 04       		.uleb128 0x4
 4392 00b6 01       		.byte	0x1
 4393 00b7 0B       		.uleb128 0xb
 4394 00b8 0B       		.uleb128 0xb
 4395 00b9 49       		.uleb128 0x49
 4396 00ba 13       		.uleb128 0x13
 4397 00bb 3A       		.uleb128 0x3a
 4398 00bc 0B       		.uleb128 0xb
 4399 00bd 3B       		.uleb128 0x3b
 4400 00be 05       		.uleb128 0x5
 4401 00bf 01       		.uleb128 0x1
 4402 00c0 13       		.uleb128 0x13
ARM GAS  C:\Users\guill\AppData\Local\Temp\cclz5xua.s 			page 107


 4403 00c1 00       		.byte	0
 4404 00c2 00       		.byte	0
 4405 00c3 12       		.uleb128 0x12
 4406 00c4 28       		.uleb128 0x28
 4407 00c5 00       		.byte	0
 4408 00c6 03       		.uleb128 0x3
 4409 00c7 0E       		.uleb128 0xe
 4410 00c8 1C       		.uleb128 0x1c
 4411 00c9 0B       		.uleb128 0xb
 4412 00ca 00       		.byte	0
 4413 00cb 00       		.byte	0
 4414 00cc 13       		.uleb128 0x13
 4415 00cd 28       		.uleb128 0x28
 4416 00ce 00       		.byte	0
 4417 00cf 03       		.uleb128 0x3
 4418 00d0 0E       		.uleb128 0xe
 4419 00d1 1C       		.uleb128 0x1c
 4420 00d2 06       		.uleb128 0x6
 4421 00d3 00       		.byte	0
 4422 00d4 00       		.byte	0
 4423 00d5 14       		.uleb128 0x14
 4424 00d6 15       		.uleb128 0x15
 4425 00d7 01       		.byte	0x1
 4426 00d8 27       		.uleb128 0x27
 4427 00d9 19       		.uleb128 0x19
 4428 00da 01       		.uleb128 0x1
 4429 00db 13       		.uleb128 0x13
 4430 00dc 00       		.byte	0
 4431 00dd 00       		.byte	0
 4432 00de 15       		.uleb128 0x15
 4433 00df 05       		.uleb128 0x5
 4434 00e0 00       		.byte	0
 4435 00e1 49       		.uleb128 0x49
 4436 00e2 13       		.uleb128 0x13
 4437 00e3 00       		.byte	0
 4438 00e4 00       		.byte	0
 4439 00e5 16       		.uleb128 0x16
 4440 00e6 15       		.uleb128 0x15
 4441 00e7 01       		.byte	0x1
 4442 00e8 27       		.uleb128 0x27
 4443 00e9 19       		.uleb128 0x19
 4444 00ea 49       		.uleb128 0x49
 4445 00eb 13       		.uleb128 0x13
 4446 00ec 01       		.uleb128 0x1
 4447 00ed 13       		.uleb128 0x13
 4448 00ee 00       		.byte	0
 4449 00ef 00       		.byte	0
 4450 00f0 17       		.uleb128 0x17
 4451 00f1 13       		.uleb128 0x13
 4452 00f2 01       		.byte	0x1
 4453 00f3 03       		.uleb128 0x3
 4454 00f4 0E       		.uleb128 0xe
 4455 00f5 0B       		.uleb128 0xb
 4456 00f6 0B       		.uleb128 0xb
 4457 00f7 3A       		.uleb128 0x3a
 4458 00f8 0B       		.uleb128 0xb
 4459 00f9 3B       		.uleb128 0x3b
ARM GAS  C:\Users\guill\AppData\Local\Temp\cclz5xua.s 			page 108


 4460 00fa 05       		.uleb128 0x5
 4461 00fb 01       		.uleb128 0x1
 4462 00fc 13       		.uleb128 0x13
 4463 00fd 00       		.byte	0
 4464 00fe 00       		.byte	0
 4465 00ff 18       		.uleb128 0x18
 4466 0100 0D       		.uleb128 0xd
 4467 0101 00       		.byte	0
 4468 0102 03       		.uleb128 0x3
 4469 0103 0E       		.uleb128 0xe
 4470 0104 3A       		.uleb128 0x3a
 4471 0105 0B       		.uleb128 0xb
 4472 0106 3B       		.uleb128 0x3b
 4473 0107 05       		.uleb128 0x5
 4474 0108 49       		.uleb128 0x49
 4475 0109 13       		.uleb128 0x13
 4476 010a 38       		.uleb128 0x38
 4477 010b 0B       		.uleb128 0xb
 4478 010c 00       		.byte	0
 4479 010d 00       		.byte	0
 4480 010e 19       		.uleb128 0x19
 4481 010f 13       		.uleb128 0x13
 4482 0110 01       		.byte	0x1
 4483 0111 03       		.uleb128 0x3
 4484 0112 0E       		.uleb128 0xe
 4485 0113 0B       		.uleb128 0xb
 4486 0114 0B       		.uleb128 0xb
 4487 0115 3A       		.uleb128 0x3a
 4488 0116 0B       		.uleb128 0xb
 4489 0117 3B       		.uleb128 0x3b
 4490 0118 0B       		.uleb128 0xb
 4491 0119 01       		.uleb128 0x1
 4492 011a 13       		.uleb128 0x13
 4493 011b 00       		.byte	0
 4494 011c 00       		.byte	0
 4495 011d 1A       		.uleb128 0x1a
 4496 011e 04       		.uleb128 0x4
 4497 011f 01       		.byte	0x1
 4498 0120 03       		.uleb128 0x3
 4499 0121 0E       		.uleb128 0xe
 4500 0122 0B       		.uleb128 0xb
 4501 0123 0B       		.uleb128 0xb
 4502 0124 49       		.uleb128 0x49
 4503 0125 13       		.uleb128 0x13
 4504 0126 3A       		.uleb128 0x3a
 4505 0127 0B       		.uleb128 0xb
 4506 0128 3B       		.uleb128 0x3b
 4507 0129 0B       		.uleb128 0xb
 4508 012a 01       		.uleb128 0x1
 4509 012b 13       		.uleb128 0x13
 4510 012c 00       		.byte	0
 4511 012d 00       		.byte	0
 4512 012e 1B       		.uleb128 0x1b
 4513 012f 28       		.uleb128 0x28
 4514 0130 00       		.byte	0
 4515 0131 03       		.uleb128 0x3
 4516 0132 08       		.uleb128 0x8
ARM GAS  C:\Users\guill\AppData\Local\Temp\cclz5xua.s 			page 109


 4517 0133 1C       		.uleb128 0x1c
 4518 0134 0B       		.uleb128 0xb
 4519 0135 00       		.byte	0
 4520 0136 00       		.byte	0
 4521 0137 1C       		.uleb128 0x1c
 4522 0138 2E       		.uleb128 0x2e
 4523 0139 01       		.byte	0x1
 4524 013a 03       		.uleb128 0x3
 4525 013b 0E       		.uleb128 0xe
 4526 013c 3A       		.uleb128 0x3a
 4527 013d 0B       		.uleb128 0xb
 4528 013e 3B       		.uleb128 0x3b
 4529 013f 05       		.uleb128 0x5
 4530 0140 27       		.uleb128 0x27
 4531 0141 19       		.uleb128 0x19
 4532 0142 20       		.uleb128 0x20
 4533 0143 0B       		.uleb128 0xb
 4534 0144 01       		.uleb128 0x1
 4535 0145 13       		.uleb128 0x13
 4536 0146 00       		.byte	0
 4537 0147 00       		.byte	0
 4538 0148 1D       		.uleb128 0x1d
 4539 0149 05       		.uleb128 0x5
 4540 014a 00       		.byte	0
 4541 014b 03       		.uleb128 0x3
 4542 014c 0E       		.uleb128 0xe
 4543 014d 3A       		.uleb128 0x3a
 4544 014e 0B       		.uleb128 0xb
 4545 014f 3B       		.uleb128 0x3b
 4546 0150 05       		.uleb128 0x5
 4547 0151 49       		.uleb128 0x49
 4548 0152 13       		.uleb128 0x13
 4549 0153 00       		.byte	0
 4550 0154 00       		.byte	0
 4551 0155 1E       		.uleb128 0x1e
 4552 0156 2E       		.uleb128 0x2e
 4553 0157 01       		.byte	0x1
 4554 0158 3F       		.uleb128 0x3f
 4555 0159 19       		.uleb128 0x19
 4556 015a 03       		.uleb128 0x3
 4557 015b 0E       		.uleb128 0xe
 4558 015c 3A       		.uleb128 0x3a
 4559 015d 0B       		.uleb128 0xb
 4560 015e 3B       		.uleb128 0x3b
 4561 015f 0B       		.uleb128 0xb
 4562 0160 27       		.uleb128 0x27
 4563 0161 19       		.uleb128 0x19
 4564 0162 11       		.uleb128 0x11
 4565 0163 01       		.uleb128 0x1
 4566 0164 12       		.uleb128 0x12
 4567 0165 06       		.uleb128 0x6
 4568 0166 40       		.uleb128 0x40
 4569 0167 18       		.uleb128 0x18
 4570 0168 9742     		.uleb128 0x2117
 4571 016a 19       		.uleb128 0x19
 4572 016b 01       		.uleb128 0x1
 4573 016c 13       		.uleb128 0x13
ARM GAS  C:\Users\guill\AppData\Local\Temp\cclz5xua.s 			page 110


 4574 016d 00       		.byte	0
 4575 016e 00       		.byte	0
 4576 016f 1F       		.uleb128 0x1f
 4577 0170 05       		.uleb128 0x5
 4578 0171 00       		.byte	0
 4579 0172 03       		.uleb128 0x3
 4580 0173 0E       		.uleb128 0xe
 4581 0174 3A       		.uleb128 0x3a
 4582 0175 0B       		.uleb128 0xb
 4583 0176 3B       		.uleb128 0x3b
 4584 0177 0B       		.uleb128 0xb
 4585 0178 49       		.uleb128 0x49
 4586 0179 13       		.uleb128 0x13
 4587 017a 02       		.uleb128 0x2
 4588 017b 17       		.uleb128 0x17
 4589 017c 00       		.byte	0
 4590 017d 00       		.byte	0
 4591 017e 20       		.uleb128 0x20
 4592 017f 05       		.uleb128 0x5
 4593 0180 00       		.byte	0
 4594 0181 03       		.uleb128 0x3
 4595 0182 08       		.uleb128 0x8
 4596 0183 3A       		.uleb128 0x3a
 4597 0184 0B       		.uleb128 0xb
 4598 0185 3B       		.uleb128 0x3b
 4599 0186 0B       		.uleb128 0xb
 4600 0187 49       		.uleb128 0x49
 4601 0188 13       		.uleb128 0x13
 4602 0189 02       		.uleb128 0x2
 4603 018a 17       		.uleb128 0x17
 4604 018b 00       		.byte	0
 4605 018c 00       		.byte	0
 4606 018d 21       		.uleb128 0x21
 4607 018e 0B       		.uleb128 0xb
 4608 018f 01       		.byte	0x1
 4609 0190 11       		.uleb128 0x11
 4610 0191 01       		.uleb128 0x1
 4611 0192 12       		.uleb128 0x12
 4612 0193 06       		.uleb128 0x6
 4613 0194 01       		.uleb128 0x1
 4614 0195 13       		.uleb128 0x13
 4615 0196 00       		.byte	0
 4616 0197 00       		.byte	0
 4617 0198 22       		.uleb128 0x22
 4618 0199 34       		.uleb128 0x34
 4619 019a 00       		.byte	0
 4620 019b 03       		.uleb128 0x3
 4621 019c 08       		.uleb128 0x8
 4622 019d 3A       		.uleb128 0x3a
 4623 019e 0B       		.uleb128 0xb
 4624 019f 3B       		.uleb128 0x3b
 4625 01a0 0B       		.uleb128 0xb
 4626 01a1 49       		.uleb128 0x49
 4627 01a2 13       		.uleb128 0x13
 4628 01a3 02       		.uleb128 0x2
 4629 01a4 17       		.uleb128 0x17
 4630 01a5 00       		.byte	0
ARM GAS  C:\Users\guill\AppData\Local\Temp\cclz5xua.s 			page 111


 4631 01a6 00       		.byte	0
 4632 01a7 23       		.uleb128 0x23
 4633 01a8 898201   		.uleb128 0x4109
 4634 01ab 01       		.byte	0x1
 4635 01ac 11       		.uleb128 0x11
 4636 01ad 01       		.uleb128 0x1
 4637 01ae 31       		.uleb128 0x31
 4638 01af 13       		.uleb128 0x13
 4639 01b0 01       		.uleb128 0x1
 4640 01b1 13       		.uleb128 0x13
 4641 01b2 00       		.byte	0
 4642 01b3 00       		.byte	0
 4643 01b4 24       		.uleb128 0x24
 4644 01b5 8A8201   		.uleb128 0x410a
 4645 01b8 00       		.byte	0
 4646 01b9 02       		.uleb128 0x2
 4647 01ba 18       		.uleb128 0x18
 4648 01bb 9142     		.uleb128 0x2111
 4649 01bd 18       		.uleb128 0x18
 4650 01be 00       		.byte	0
 4651 01bf 00       		.byte	0
 4652 01c0 25       		.uleb128 0x25
 4653 01c1 898201   		.uleb128 0x4109
 4654 01c4 01       		.byte	0x1
 4655 01c5 11       		.uleb128 0x11
 4656 01c6 01       		.uleb128 0x1
 4657 01c7 31       		.uleb128 0x31
 4658 01c8 13       		.uleb128 0x13
 4659 01c9 00       		.byte	0
 4660 01ca 00       		.byte	0
 4661 01cb 26       		.uleb128 0x26
 4662 01cc 34       		.uleb128 0x34
 4663 01cd 00       		.byte	0
 4664 01ce 03       		.uleb128 0x3
 4665 01cf 0E       		.uleb128 0xe
 4666 01d0 3A       		.uleb128 0x3a
 4667 01d1 0B       		.uleb128 0xb
 4668 01d2 3B       		.uleb128 0x3b
 4669 01d3 0B       		.uleb128 0xb
 4670 01d4 49       		.uleb128 0x49
 4671 01d5 13       		.uleb128 0x13
 4672 01d6 02       		.uleb128 0x2
 4673 01d7 18       		.uleb128 0x18
 4674 01d8 00       		.byte	0
 4675 01d9 00       		.byte	0
 4676 01da 27       		.uleb128 0x27
 4677 01db 2E       		.uleb128 0x2e
 4678 01dc 01       		.byte	0x1
 4679 01dd 3F       		.uleb128 0x3f
 4680 01de 19       		.uleb128 0x19
 4681 01df 03       		.uleb128 0x3
 4682 01e0 0E       		.uleb128 0xe
 4683 01e1 3A       		.uleb128 0x3a
 4684 01e2 0B       		.uleb128 0xb
 4685 01e3 3B       		.uleb128 0x3b
 4686 01e4 0B       		.uleb128 0xb
 4687 01e5 27       		.uleb128 0x27
ARM GAS  C:\Users\guill\AppData\Local\Temp\cclz5xua.s 			page 112


 4688 01e6 19       		.uleb128 0x19
 4689 01e7 49       		.uleb128 0x49
 4690 01e8 13       		.uleb128 0x13
 4691 01e9 11       		.uleb128 0x11
 4692 01ea 01       		.uleb128 0x1
 4693 01eb 12       		.uleb128 0x12
 4694 01ec 06       		.uleb128 0x6
 4695 01ed 40       		.uleb128 0x40
 4696 01ee 18       		.uleb128 0x18
 4697 01ef 9742     		.uleb128 0x2117
 4698 01f1 19       		.uleb128 0x19
 4699 01f2 01       		.uleb128 0x1
 4700 01f3 13       		.uleb128 0x13
 4701 01f4 00       		.byte	0
 4702 01f5 00       		.byte	0
 4703 01f6 28       		.uleb128 0x28
 4704 01f7 898201   		.uleb128 0x4109
 4705 01fa 00       		.byte	0
 4706 01fb 11       		.uleb128 0x11
 4707 01fc 01       		.uleb128 0x1
 4708 01fd 31       		.uleb128 0x31
 4709 01fe 13       		.uleb128 0x13
 4710 01ff 00       		.byte	0
 4711 0200 00       		.byte	0
 4712 0201 29       		.uleb128 0x29
 4713 0202 2E       		.uleb128 0x2e
 4714 0203 01       		.byte	0x1
 4715 0204 3F       		.uleb128 0x3f
 4716 0205 19       		.uleb128 0x19
 4717 0206 03       		.uleb128 0x3
 4718 0207 0E       		.uleb128 0xe
 4719 0208 3A       		.uleb128 0x3a
 4720 0209 0B       		.uleb128 0xb
 4721 020a 3B       		.uleb128 0x3b
 4722 020b 05       		.uleb128 0x5
 4723 020c 27       		.uleb128 0x27
 4724 020d 19       		.uleb128 0x19
 4725 020e 49       		.uleb128 0x49
 4726 020f 13       		.uleb128 0x13
 4727 0210 11       		.uleb128 0x11
 4728 0211 01       		.uleb128 0x1
 4729 0212 12       		.uleb128 0x12
 4730 0213 06       		.uleb128 0x6
 4731 0214 40       		.uleb128 0x40
 4732 0215 18       		.uleb128 0x18
 4733 0216 9742     		.uleb128 0x2117
 4734 0218 19       		.uleb128 0x19
 4735 0219 01       		.uleb128 0x1
 4736 021a 13       		.uleb128 0x13
 4737 021b 00       		.byte	0
 4738 021c 00       		.byte	0
 4739 021d 2A       		.uleb128 0x2a
 4740 021e 05       		.uleb128 0x5
 4741 021f 00       		.byte	0
 4742 0220 03       		.uleb128 0x3
 4743 0221 08       		.uleb128 0x8
 4744 0222 3A       		.uleb128 0x3a
ARM GAS  C:\Users\guill\AppData\Local\Temp\cclz5xua.s 			page 113


 4745 0223 0B       		.uleb128 0xb
 4746 0224 3B       		.uleb128 0x3b
 4747 0225 05       		.uleb128 0x5
 4748 0226 49       		.uleb128 0x49
 4749 0227 13       		.uleb128 0x13
 4750 0228 02       		.uleb128 0x2
 4751 0229 17       		.uleb128 0x17
 4752 022a 00       		.byte	0
 4753 022b 00       		.byte	0
 4754 022c 2B       		.uleb128 0x2b
 4755 022d 05       		.uleb128 0x5
 4756 022e 00       		.byte	0
 4757 022f 03       		.uleb128 0x3
 4758 0230 0E       		.uleb128 0xe
 4759 0231 3A       		.uleb128 0x3a
 4760 0232 0B       		.uleb128 0xb
 4761 0233 3B       		.uleb128 0x3b
 4762 0234 05       		.uleb128 0x5
 4763 0235 49       		.uleb128 0x49
 4764 0236 13       		.uleb128 0x13
 4765 0237 02       		.uleb128 0x2
 4766 0238 17       		.uleb128 0x17
 4767 0239 00       		.byte	0
 4768 023a 00       		.byte	0
 4769 023b 2C       		.uleb128 0x2c
 4770 023c 0B       		.uleb128 0xb
 4771 023d 01       		.byte	0x1
 4772 023e 11       		.uleb128 0x11
 4773 023f 01       		.uleb128 0x1
 4774 0240 12       		.uleb128 0x12
 4775 0241 06       		.uleb128 0x6
 4776 0242 00       		.byte	0
 4777 0243 00       		.byte	0
 4778 0244 2D       		.uleb128 0x2d
 4779 0245 34       		.uleb128 0x34
 4780 0246 00       		.byte	0
 4781 0247 03       		.uleb128 0x3
 4782 0248 0E       		.uleb128 0xe
 4783 0249 3A       		.uleb128 0x3a
 4784 024a 0B       		.uleb128 0xb
 4785 024b 3B       		.uleb128 0x3b
 4786 024c 05       		.uleb128 0x5
 4787 024d 49       		.uleb128 0x49
 4788 024e 13       		.uleb128 0x13
 4789 024f 02       		.uleb128 0x2
 4790 0250 18       		.uleb128 0x18
 4791 0251 00       		.byte	0
 4792 0252 00       		.byte	0
 4793 0253 2E       		.uleb128 0x2e
 4794 0254 2E       		.uleb128 0x2e
 4795 0255 01       		.byte	0x1
 4796 0256 3F       		.uleb128 0x3f
 4797 0257 19       		.uleb128 0x19
 4798 0258 03       		.uleb128 0x3
 4799 0259 0E       		.uleb128 0xe
 4800 025a 3A       		.uleb128 0x3a
 4801 025b 0B       		.uleb128 0xb
ARM GAS  C:\Users\guill\AppData\Local\Temp\cclz5xua.s 			page 114


 4802 025c 3B       		.uleb128 0x3b
 4803 025d 05       		.uleb128 0x5
 4804 025e 49       		.uleb128 0x49
 4805 025f 13       		.uleb128 0x13
 4806 0260 11       		.uleb128 0x11
 4807 0261 01       		.uleb128 0x1
 4808 0262 12       		.uleb128 0x12
 4809 0263 06       		.uleb128 0x6
 4810 0264 40       		.uleb128 0x40
 4811 0265 18       		.uleb128 0x18
 4812 0266 9742     		.uleb128 0x2117
 4813 0268 19       		.uleb128 0x19
 4814 0269 01       		.uleb128 0x1
 4815 026a 13       		.uleb128 0x13
 4816 026b 00       		.byte	0
 4817 026c 00       		.byte	0
 4818 026d 2F       		.uleb128 0x2f
 4819 026e 34       		.uleb128 0x34
 4820 026f 00       		.byte	0
 4821 0270 03       		.uleb128 0x3
 4822 0271 0E       		.uleb128 0xe
 4823 0272 3A       		.uleb128 0x3a
 4824 0273 0B       		.uleb128 0xb
 4825 0274 3B       		.uleb128 0x3b
 4826 0275 0B       		.uleb128 0xb
 4827 0276 49       		.uleb128 0x49
 4828 0277 13       		.uleb128 0x13
 4829 0278 02       		.uleb128 0x2
 4830 0279 17       		.uleb128 0x17
 4831 027a 00       		.byte	0
 4832 027b 00       		.byte	0
 4833 027c 30       		.uleb128 0x30
 4834 027d 1D       		.uleb128 0x1d
 4835 027e 01       		.byte	0x1
 4836 027f 31       		.uleb128 0x31
 4837 0280 13       		.uleb128 0x13
 4838 0281 11       		.uleb128 0x11
 4839 0282 01       		.uleb128 0x1
 4840 0283 12       		.uleb128 0x12
 4841 0284 06       		.uleb128 0x6
 4842 0285 58       		.uleb128 0x58
 4843 0286 0B       		.uleb128 0xb
 4844 0287 59       		.uleb128 0x59
 4845 0288 0B       		.uleb128 0xb
 4846 0289 01       		.uleb128 0x1
 4847 028a 13       		.uleb128 0x13
 4848 028b 00       		.byte	0
 4849 028c 00       		.byte	0
 4850 028d 31       		.uleb128 0x31
 4851 028e 05       		.uleb128 0x5
 4852 028f 00       		.byte	0
 4853 0290 31       		.uleb128 0x31
 4854 0291 13       		.uleb128 0x13
 4855 0292 02       		.uleb128 0x2
 4856 0293 17       		.uleb128 0x17
 4857 0294 00       		.byte	0
 4858 0295 00       		.byte	0
ARM GAS  C:\Users\guill\AppData\Local\Temp\cclz5xua.s 			page 115


 4859 0296 32       		.uleb128 0x32
 4860 0297 34       		.uleb128 0x34
 4861 0298 00       		.byte	0
 4862 0299 03       		.uleb128 0x3
 4863 029a 0E       		.uleb128 0xe
 4864 029b 3A       		.uleb128 0x3a
 4865 029c 0B       		.uleb128 0xb
 4866 029d 3B       		.uleb128 0x3b
 4867 029e 05       		.uleb128 0x5
 4868 029f 49       		.uleb128 0x49
 4869 02a0 13       		.uleb128 0x13
 4870 02a1 02       		.uleb128 0x2
 4871 02a2 17       		.uleb128 0x17
 4872 02a3 00       		.byte	0
 4873 02a4 00       		.byte	0
 4874 02a5 33       		.uleb128 0x33
 4875 02a6 34       		.uleb128 0x34
 4876 02a7 00       		.byte	0
 4877 02a8 03       		.uleb128 0x3
 4878 02a9 08       		.uleb128 0x8
 4879 02aa 3A       		.uleb128 0x3a
 4880 02ab 0B       		.uleb128 0xb
 4881 02ac 3B       		.uleb128 0x3b
 4882 02ad 05       		.uleb128 0x5
 4883 02ae 49       		.uleb128 0x49
 4884 02af 13       		.uleb128 0x13
 4885 02b0 02       		.uleb128 0x2
 4886 02b1 17       		.uleb128 0x17
 4887 02b2 00       		.byte	0
 4888 02b3 00       		.byte	0
 4889 02b4 34       		.uleb128 0x34
 4890 02b5 34       		.uleb128 0x34
 4891 02b6 00       		.byte	0
 4892 02b7 03       		.uleb128 0x3
 4893 02b8 0E       		.uleb128 0xe
 4894 02b9 3A       		.uleb128 0x3a
 4895 02ba 0B       		.uleb128 0xb
 4896 02bb 3B       		.uleb128 0x3b
 4897 02bc 0B       		.uleb128 0xb
 4898 02bd 49       		.uleb128 0x49
 4899 02be 13       		.uleb128 0x13
 4900 02bf 3F       		.uleb128 0x3f
 4901 02c0 19       		.uleb128 0x19
 4902 02c1 3C       		.uleb128 0x3c
 4903 02c2 19       		.uleb128 0x19
 4904 02c3 00       		.byte	0
 4905 02c4 00       		.byte	0
 4906 02c5 35       		.uleb128 0x35
 4907 02c6 34       		.uleb128 0x34
 4908 02c7 00       		.byte	0
 4909 02c8 03       		.uleb128 0x3
 4910 02c9 0E       		.uleb128 0xe
 4911 02ca 3A       		.uleb128 0x3a
 4912 02cb 0B       		.uleb128 0xb
 4913 02cc 3B       		.uleb128 0x3b
 4914 02cd 0B       		.uleb128 0xb
 4915 02ce 49       		.uleb128 0x49
ARM GAS  C:\Users\guill\AppData\Local\Temp\cclz5xua.s 			page 116


 4916 02cf 13       		.uleb128 0x13
 4917 02d0 3F       		.uleb128 0x3f
 4918 02d1 19       		.uleb128 0x19
 4919 02d2 02       		.uleb128 0x2
 4920 02d3 18       		.uleb128 0x18
 4921 02d4 00       		.byte	0
 4922 02d5 00       		.byte	0
 4923 02d6 36       		.uleb128 0x36
 4924 02d7 2E       		.uleb128 0x2e
 4925 02d8 00       		.byte	0
 4926 02d9 3F       		.uleb128 0x3f
 4927 02da 19       		.uleb128 0x19
 4928 02db 3C       		.uleb128 0x3c
 4929 02dc 19       		.uleb128 0x19
 4930 02dd 6E       		.uleb128 0x6e
 4931 02de 0E       		.uleb128 0xe
 4932 02df 03       		.uleb128 0x3
 4933 02e0 0E       		.uleb128 0xe
 4934 02e1 3A       		.uleb128 0x3a
 4935 02e2 0B       		.uleb128 0xb
 4936 02e3 3B       		.uleb128 0x3b
 4937 02e4 05       		.uleb128 0x5
 4938 02e5 00       		.byte	0
 4939 02e6 00       		.byte	0
 4940 02e7 37       		.uleb128 0x37
 4941 02e8 2E       		.uleb128 0x2e
 4942 02e9 00       		.byte	0
 4943 02ea 3F       		.uleb128 0x3f
 4944 02eb 19       		.uleb128 0x19
 4945 02ec 3C       		.uleb128 0x3c
 4946 02ed 19       		.uleb128 0x19
 4947 02ee 6E       		.uleb128 0x6e
 4948 02ef 0E       		.uleb128 0xe
 4949 02f0 03       		.uleb128 0x3
 4950 02f1 0E       		.uleb128 0xe
 4951 02f2 00       		.byte	0
 4952 02f3 00       		.byte	0
 4953 02f4 38       		.uleb128 0x38
 4954 02f5 2E       		.uleb128 0x2e
 4955 02f6 00       		.byte	0
 4956 02f7 3F       		.uleb128 0x3f
 4957 02f8 19       		.uleb128 0x19
 4958 02f9 3C       		.uleb128 0x3c
 4959 02fa 19       		.uleb128 0x19
 4960 02fb 6E       		.uleb128 0x6e
 4961 02fc 0E       		.uleb128 0xe
 4962 02fd 03       		.uleb128 0x3
 4963 02fe 0E       		.uleb128 0xe
 4964 02ff 3A       		.uleb128 0x3a
 4965 0300 0B       		.uleb128 0xb
 4966 0301 3B       		.uleb128 0x3b
 4967 0302 0B       		.uleb128 0xb
 4968 0303 00       		.byte	0
 4969 0304 00       		.byte	0
 4970 0305 00       		.byte	0
 4971              		.section	.debug_loc,"",%progbits
 4972              	.Ldebug_loc0:
ARM GAS  C:\Users\guill\AppData\Local\Temp\cclz5xua.s 			page 117


 4973              	.LLST0:
 4974 0000 00000000 		.4byte	.LVL0
 4975 0004 16000000 		.4byte	.LVL2
 4976 0008 0100     		.2byte	0x1
 4977 000a 50       		.byte	0x50
 4978 000b 16000000 		.4byte	.LVL2
 4979 000f 42000000 		.4byte	.LVL10
 4980 0013 0100     		.2byte	0x1
 4981 0015 56       		.byte	0x56
 4982 0016 42000000 		.4byte	.LVL10
 4983 001a 50000000 		.4byte	.LFE589
 4984 001e 0400     		.2byte	0x4
 4985 0020 F3       		.byte	0xf3
 4986 0021 01       		.uleb128 0x1
 4987 0022 50       		.byte	0x50
 4988 0023 9F       		.byte	0x9f
 4989 0024 00000000 		.4byte	0
 4990 0028 00000000 		.4byte	0
 4991              	.LLST1:
 4992 002c 00000000 		.4byte	.LVL0
 4993 0030 0C000000 		.4byte	.LVL1
 4994 0034 0100     		.2byte	0x1
 4995 0036 51       		.byte	0x51
 4996 0037 0C000000 		.4byte	.LVL1
 4997 003b 50000000 		.4byte	.LFE589
 4998 003f 0400     		.2byte	0x4
 4999 0041 F3       		.byte	0xf3
 5000 0042 01       		.uleb128 0x1
 5001 0043 51       		.byte	0x51
 5002 0044 9F       		.byte	0x9f
 5003 0045 00000000 		.4byte	0
 5004 0049 00000000 		.4byte	0
 5005              	.LLST2:
 5006 004d 1A000000 		.4byte	.LVL3
 5007 0051 1E000000 		.4byte	.LVL4
 5008 0055 0200     		.2byte	0x2
 5009 0057 30       		.byte	0x30
 5010 0058 9F       		.byte	0x9f
 5011 0059 1E000000 		.4byte	.LVL4
 5012 005d 42000000 		.4byte	.LVL9
 5013 0061 0100     		.2byte	0x1
 5014 0063 54       		.byte	0x54
 5015 0064 00000000 		.4byte	0
 5016 0068 00000000 		.4byte	0
 5017              	.LLST3:
 5018 006c 00000000 		.4byte	.LVL11
 5019 0070 0E000000 		.4byte	.LVL12
 5020 0074 0100     		.2byte	0x1
 5021 0076 50       		.byte	0x50
 5022 0077 0E000000 		.4byte	.LVL12
 5023 007b 24000000 		.4byte	.LFE590
 5024 007f 0400     		.2byte	0x4
 5025 0081 F3       		.byte	0xf3
 5026 0082 01       		.uleb128 0x1
 5027 0083 50       		.byte	0x50
 5028 0084 9F       		.byte	0x9f
 5029 0085 00000000 		.4byte	0
ARM GAS  C:\Users\guill\AppData\Local\Temp\cclz5xua.s 			page 118


 5030 0089 00000000 		.4byte	0
 5031              	.LLST4:
 5032 008d 00000000 		.4byte	.LVL15
 5033 0091 18000000 		.4byte	.LVL17
 5034 0095 0100     		.2byte	0x1
 5035 0097 50       		.byte	0x50
 5036 0098 18000000 		.4byte	.LVL17
 5037 009c 50000000 		.4byte	.LFE591
 5038 00a0 0400     		.2byte	0x4
 5039 00a2 F3       		.byte	0xf3
 5040 00a3 01       		.uleb128 0x1
 5041 00a4 50       		.byte	0x50
 5042 00a5 9F       		.byte	0x9f
 5043 00a6 00000000 		.4byte	0
 5044 00aa 00000000 		.4byte	0
 5045              	.LLST5:
 5046 00ae 00000000 		.4byte	.LVL15
 5047 00b2 0C000000 		.4byte	.LVL16
 5048 00b6 0100     		.2byte	0x1
 5049 00b8 51       		.byte	0x51
 5050 00b9 0C000000 		.4byte	.LVL16
 5051 00bd 50000000 		.4byte	.LFE591
 5052 00c1 0400     		.2byte	0x4
 5053 00c3 F3       		.byte	0xf3
 5054 00c4 01       		.uleb128 0x1
 5055 00c5 51       		.byte	0x51
 5056 00c6 9F       		.byte	0x9f
 5057 00c7 00000000 		.4byte	0
 5058 00cb 00000000 		.4byte	0
 5059              	.LLST6:
 5060 00cf 00000000 		.4byte	.LVL22
 5061 00d3 0E000000 		.4byte	.LVL23
 5062 00d7 0100     		.2byte	0x1
 5063 00d9 50       		.byte	0x50
 5064 00da 0E000000 		.4byte	.LVL23
 5065 00de 24000000 		.4byte	.LFE592
 5066 00e2 0400     		.2byte	0x4
 5067 00e4 F3       		.byte	0xf3
 5068 00e5 01       		.uleb128 0x1
 5069 00e6 50       		.byte	0x50
 5070 00e7 9F       		.byte	0x9f
 5071 00e8 00000000 		.4byte	0
 5072 00ec 00000000 		.4byte	0
 5073              	.LLST7:
 5074 00f0 00000000 		.4byte	.LVL26
 5075 00f4 0A000000 		.4byte	.LVL27
 5076 00f8 0100     		.2byte	0x1
 5077 00fa 50       		.byte	0x50
 5078 00fb 0A000000 		.4byte	.LVL27
 5079 00ff 1E000000 		.4byte	.LVL29
 5080 0103 0400     		.2byte	0x4
 5081 0105 F3       		.byte	0xf3
 5082 0106 01       		.uleb128 0x1
 5083 0107 50       		.byte	0x50
 5084 0108 9F       		.byte	0x9f
 5085 0109 1E000000 		.4byte	.LVL29
 5086 010d 22000000 		.4byte	.LVL30
ARM GAS  C:\Users\guill\AppData\Local\Temp\cclz5xua.s 			page 119


 5087 0111 0100     		.2byte	0x1
 5088 0113 50       		.byte	0x50
 5089 0114 22000000 		.4byte	.LVL30
 5090 0118 3C000000 		.4byte	.LFE594
 5091 011c 0400     		.2byte	0x4
 5092 011e F3       		.byte	0xf3
 5093 011f 01       		.uleb128 0x1
 5094 0120 50       		.byte	0x50
 5095 0121 9F       		.byte	0x9f
 5096 0122 00000000 		.4byte	0
 5097 0126 00000000 		.4byte	0
 5098              	.LLST8:
 5099 012a 00000000 		.4byte	.LVL32
 5100 012e 0A000000 		.4byte	.LVL33
 5101 0132 0100     		.2byte	0x1
 5102 0134 50       		.byte	0x50
 5103 0135 0A000000 		.4byte	.LVL33
 5104 0139 20000000 		.4byte	.LVL35
 5105 013d 0400     		.2byte	0x4
 5106 013f F3       		.byte	0xf3
 5107 0140 01       		.uleb128 0x1
 5108 0141 50       		.byte	0x50
 5109 0142 9F       		.byte	0x9f
 5110 0143 20000000 		.4byte	.LVL35
 5111 0147 24000000 		.4byte	.LVL36
 5112 014b 0100     		.2byte	0x1
 5113 014d 50       		.byte	0x50
 5114 014e 24000000 		.4byte	.LVL36
 5115 0152 3C000000 		.4byte	.LFE595
 5116 0156 0400     		.2byte	0x4
 5117 0158 F3       		.byte	0xf3
 5118 0159 01       		.uleb128 0x1
 5119 015a 50       		.byte	0x50
 5120 015b 9F       		.byte	0x9f
 5121 015c 00000000 		.4byte	0
 5122 0160 00000000 		.4byte	0
 5123              	.LLST9:
 5124 0164 00000000 		.4byte	.LVL38
 5125 0168 0A000000 		.4byte	.LVL39
 5126 016c 0100     		.2byte	0x1
 5127 016e 50       		.byte	0x50
 5128 016f 0A000000 		.4byte	.LVL39
 5129 0173 20000000 		.4byte	.LVL41
 5130 0177 0400     		.2byte	0x4
 5131 0179 F3       		.byte	0xf3
 5132 017a 01       		.uleb128 0x1
 5133 017b 50       		.byte	0x50
 5134 017c 9F       		.byte	0x9f
 5135 017d 20000000 		.4byte	.LVL41
 5136 0181 24000000 		.4byte	.LVL42
 5137 0185 0100     		.2byte	0x1
 5138 0187 50       		.byte	0x50
 5139 0188 24000000 		.4byte	.LVL42
 5140 018c 3C000000 		.4byte	.LFE596
 5141 0190 0400     		.2byte	0x4
 5142 0192 F3       		.byte	0xf3
 5143 0193 01       		.uleb128 0x1
ARM GAS  C:\Users\guill\AppData\Local\Temp\cclz5xua.s 			page 120


 5144 0194 50       		.byte	0x50
 5145 0195 9F       		.byte	0x9f
 5146 0196 00000000 		.4byte	0
 5147 019a 00000000 		.4byte	0
 5148              	.LLST10:
 5149 019e 00000000 		.4byte	.LVL44
 5150 01a2 0A000000 		.4byte	.LVL45
 5151 01a6 0100     		.2byte	0x1
 5152 01a8 50       		.byte	0x50
 5153 01a9 0A000000 		.4byte	.LVL45
 5154 01ad 20000000 		.4byte	.LVL47
 5155 01b1 0400     		.2byte	0x4
 5156 01b3 F3       		.byte	0xf3
 5157 01b4 01       		.uleb128 0x1
 5158 01b5 50       		.byte	0x50
 5159 01b6 9F       		.byte	0x9f
 5160 01b7 20000000 		.4byte	.LVL47
 5161 01bb 24000000 		.4byte	.LVL48
 5162 01bf 0100     		.2byte	0x1
 5163 01c1 50       		.byte	0x50
 5164 01c2 24000000 		.4byte	.LVL48
 5165 01c6 3C000000 		.4byte	.LFE597
 5166 01ca 0400     		.2byte	0x4
 5167 01cc F3       		.byte	0xf3
 5168 01cd 01       		.uleb128 0x1
 5169 01ce 50       		.byte	0x50
 5170 01cf 9F       		.byte	0x9f
 5171 01d0 00000000 		.4byte	0
 5172 01d4 00000000 		.4byte	0
 5173              	.LLST11:
 5174 01d8 00000000 		.4byte	.LVL50
 5175 01dc 08000000 		.4byte	.LVL51
 5176 01e0 0100     		.2byte	0x1
 5177 01e2 50       		.byte	0x50
 5178 01e3 08000000 		.4byte	.LVL51
 5179 01e7 10000000 		.4byte	.LVL53
 5180 01eb 0400     		.2byte	0x4
 5181 01ed F3       		.byte	0xf3
 5182 01ee 01       		.uleb128 0x1
 5183 01ef 50       		.byte	0x50
 5184 01f0 9F       		.byte	0x9f
 5185 01f1 10000000 		.4byte	.LVL53
 5186 01f5 16000000 		.4byte	.LVL54
 5187 01f9 0100     		.2byte	0x1
 5188 01fb 50       		.byte	0x50
 5189 01fc 16000000 		.4byte	.LVL54
 5190 0200 1E000000 		.4byte	.LVL56
 5191 0204 0400     		.2byte	0x4
 5192 0206 F3       		.byte	0xf3
 5193 0207 01       		.uleb128 0x1
 5194 0208 50       		.byte	0x50
 5195 0209 9F       		.byte	0x9f
 5196 020a 1E000000 		.4byte	.LVL56
 5197 020e 20000000 		.4byte	.LVL57
 5198 0212 0100     		.2byte	0x1
 5199 0214 50       		.byte	0x50
 5200 0215 20000000 		.4byte	.LVL57
ARM GAS  C:\Users\guill\AppData\Local\Temp\cclz5xua.s 			page 121


 5201 0219 22000000 		.4byte	.LFE598
 5202 021d 0400     		.2byte	0x4
 5203 021f F3       		.byte	0xf3
 5204 0220 01       		.uleb128 0x1
 5205 0221 50       		.byte	0x50
 5206 0222 9F       		.byte	0x9f
 5207 0223 00000000 		.4byte	0
 5208 0227 00000000 		.4byte	0
 5209              	.LLST12:
 5210 022b 00000000 		.4byte	.LVL58
 5211 022f 0A000000 		.4byte	.LVL60
 5212 0233 0100     		.2byte	0x1
 5213 0235 50       		.byte	0x50
 5214 0236 0A000000 		.4byte	.LVL60
 5215 023a 22000000 		.4byte	.LFE600
 5216 023e 0400     		.2byte	0x4
 5217 0240 F3       		.byte	0xf3
 5218 0241 01       		.uleb128 0x1
 5219 0242 50       		.byte	0x50
 5220 0243 9F       		.byte	0x9f
 5221 0244 00000000 		.4byte	0
 5222 0248 00000000 		.4byte	0
 5223              	.LLST13:
 5224 024c 00000000 		.4byte	.LVL58
 5225 0250 08000000 		.4byte	.LVL59
 5226 0254 0100     		.2byte	0x1
 5227 0256 51       		.byte	0x51
 5228 0257 08000000 		.4byte	.LVL59
 5229 025b 22000000 		.4byte	.LFE600
 5230 025f 0400     		.2byte	0x4
 5231 0261 F3       		.byte	0xf3
 5232 0262 01       		.uleb128 0x1
 5233 0263 51       		.byte	0x51
 5234 0264 9F       		.byte	0x9f
 5235 0265 00000000 		.4byte	0
 5236 0269 00000000 		.4byte	0
 5237              	.LLST14:
 5238 026d 00000000 		.4byte	.LVL58
 5239 0271 0D000000 		.4byte	.LVL61-1
 5240 0275 0100     		.2byte	0x1
 5241 0277 52       		.byte	0x52
 5242 0278 0D000000 		.4byte	.LVL61-1
 5243 027c 22000000 		.4byte	.LFE600
 5244 0280 0400     		.2byte	0x4
 5245 0282 F3       		.byte	0xf3
 5246 0283 01       		.uleb128 0x1
 5247 0284 52       		.byte	0x52
 5248 0285 9F       		.byte	0x9f
 5249 0286 00000000 		.4byte	0
 5250 028a 00000000 		.4byte	0
 5251              	.LLST15:
 5252 028e 00000000 		.4byte	.LVL64
 5253 0292 0C000000 		.4byte	.LVL65
 5254 0296 0100     		.2byte	0x1
 5255 0298 50       		.byte	0x50
 5256 0299 0C000000 		.4byte	.LVL65
 5257 029d 3E000000 		.4byte	.LFE599
ARM GAS  C:\Users\guill\AppData\Local\Temp\cclz5xua.s 			page 122


 5258 02a1 0400     		.2byte	0x4
 5259 02a3 F3       		.byte	0xf3
 5260 02a4 01       		.uleb128 0x1
 5261 02a5 50       		.byte	0x50
 5262 02a6 9F       		.byte	0x9f
 5263 02a7 00000000 		.4byte	0
 5264 02ab 00000000 		.4byte	0
 5265              	.LLST16:
 5266 02af 00000000 		.4byte	.LVL70
 5267 02b3 16000000 		.4byte	.LVL71
 5268 02b7 0100     		.2byte	0x1
 5269 02b9 50       		.byte	0x50
 5270 02ba 16000000 		.4byte	.LVL71
 5271 02be 1A000000 		.4byte	.LVL72
 5272 02c2 0400     		.2byte	0x4
 5273 02c4 F3       		.byte	0xf3
 5274 02c5 01       		.uleb128 0x1
 5275 02c6 50       		.byte	0x50
 5276 02c7 9F       		.byte	0x9f
 5277 02c8 1A000000 		.4byte	.LVL72
 5278 02cc 20000000 		.4byte	.LVL73
 5279 02d0 0100     		.2byte	0x1
 5280 02d2 50       		.byte	0x50
 5281 02d3 20000000 		.4byte	.LVL73
 5282 02d7 22000000 		.4byte	.LVL74
 5283 02db 0400     		.2byte	0x4
 5284 02dd F3       		.byte	0xf3
 5285 02de 01       		.uleb128 0x1
 5286 02df 50       		.byte	0x50
 5287 02e0 9F       		.byte	0x9f
 5288 02e1 22000000 		.4byte	.LVL74
 5289 02e5 3C000000 		.4byte	.LVL77
 5290 02e9 0100     		.2byte	0x1
 5291 02eb 54       		.byte	0x54
 5292 02ec 00000000 		.4byte	0
 5293 02f0 00000000 		.4byte	0
 5294              	.LLST17:
 5295 02f4 00000000 		.4byte	.LVL70
 5296 02f8 28000000 		.4byte	.LVL75
 5297 02fc 0100     		.2byte	0x1
 5298 02fe 51       		.byte	0x51
 5299 02ff 28000000 		.4byte	.LVL75
 5300 0303 42000000 		.4byte	.LFE601
 5301 0307 0400     		.2byte	0x4
 5302 0309 F3       		.byte	0xf3
 5303 030a 01       		.uleb128 0x1
 5304 030b 51       		.byte	0x51
 5305 030c 9F       		.byte	0x9f
 5306 030d 00000000 		.4byte	0
 5307 0311 00000000 		.4byte	0
 5308              	.LLST18:
 5309 0315 00000000 		.4byte	.LVL80
 5310 0319 0B000000 		.4byte	.LVL82-1
 5311 031d 0100     		.2byte	0x1
 5312 031f 50       		.byte	0x50
 5313 0320 0B000000 		.4byte	.LVL82-1
 5314 0324 2C000000 		.4byte	.LVL87
ARM GAS  C:\Users\guill\AppData\Local\Temp\cclz5xua.s 			page 123


 5315 0328 0100     		.2byte	0x1
 5316 032a 54       		.byte	0x54
 5317 032b 2C000000 		.4byte	.LVL87
 5318 032f 94000000 		.4byte	.LVL100
 5319 0333 0400     		.2byte	0x4
 5320 0335 F3       		.byte	0xf3
 5321 0336 01       		.uleb128 0x1
 5322 0337 50       		.byte	0x50
 5323 0338 9F       		.byte	0x9f
 5324 0339 94000000 		.4byte	.LVL100
 5325 033d 96000000 		.4byte	.LVL101
 5326 0341 0100     		.2byte	0x1
 5327 0343 54       		.byte	0x54
 5328 0344 96000000 		.4byte	.LVL101
 5329 0348 A8000000 		.4byte	.LFE593
 5330 034c 0400     		.2byte	0x4
 5331 034e F3       		.byte	0xf3
 5332 034f 01       		.uleb128 0x1
 5333 0350 50       		.byte	0x50
 5334 0351 9F       		.byte	0x9f
 5335 0352 00000000 		.4byte	0
 5336 0356 00000000 		.4byte	0
 5337              	.LLST19:
 5338 035a 00000000 		.4byte	.LVL80
 5339 035e 08000000 		.4byte	.LVL81
 5340 0362 0100     		.2byte	0x1
 5341 0364 51       		.byte	0x51
 5342 0365 08000000 		.4byte	.LVL81
 5343 0369 0B000000 		.4byte	.LVL82-1
 5344 036d 0100     		.2byte	0x1
 5345 036f 52       		.byte	0x52
 5346 0370 0B000000 		.4byte	.LVL82-1
 5347 0374 A8000000 		.4byte	.LFE593
 5348 0378 0400     		.2byte	0x4
 5349 037a F3       		.byte	0xf3
 5350 037b 01       		.uleb128 0x1
 5351 037c 51       		.byte	0x51
 5352 037d 9F       		.byte	0x9f
 5353 037e 00000000 		.4byte	0
 5354 0382 00000000 		.4byte	0
 5355              	.LLST20:
 5356 0386 0C000000 		.4byte	.LVL82
 5357 038a 26000000 		.4byte	.LVL85
 5358 038e 0100     		.2byte	0x1
 5359 0390 50       		.byte	0x50
 5360 0391 26000000 		.4byte	.LVL85
 5361 0395 29000000 		.4byte	.LVL86-1
 5362 0399 0300     		.2byte	0x3
 5363 039b 70       		.byte	0x70
 5364 039c 4E       		.sleb128 -50
 5365 039d 9F       		.byte	0x9f
 5366 039e 94000000 		.4byte	.LVL100
 5367 03a2 96000000 		.4byte	.LVL101
 5368 03a6 0100     		.2byte	0x1
 5369 03a8 50       		.byte	0x50
 5370 03a9 00000000 		.4byte	0
 5371 03ad 00000000 		.4byte	0
ARM GAS  C:\Users\guill\AppData\Local\Temp\cclz5xua.s 			page 124


 5372              	.LLST21:
 5373 03b1 10000000 		.4byte	.LVL83
 5374 03b5 1A000000 		.4byte	.LVL84
 5375 03b9 0100     		.2byte	0x1
 5376 03bb 54       		.byte	0x54
 5377 03bc 00000000 		.4byte	0
 5378 03c0 00000000 		.4byte	0
 5379              	.LLST22:
 5380 03c4 00000000 		.4byte	.LVL102
 5381 03c8 07000000 		.4byte	.LVL103-1
 5382 03cc 0100     		.2byte	0x1
 5383 03ce 50       		.byte	0x50
 5384 03cf 07000000 		.4byte	.LVL103-1
 5385 03d3 44000000 		.4byte	.LVL115
 5386 03d7 0100     		.2byte	0x1
 5387 03d9 56       		.byte	0x56
 5388 03da 44000000 		.4byte	.LVL115
 5389 03de 46000000 		.4byte	.LFE603
 5390 03e2 0400     		.2byte	0x4
 5391 03e4 F3       		.byte	0xf3
 5392 03e5 01       		.uleb128 0x1
 5393 03e6 50       		.byte	0x50
 5394 03e7 9F       		.byte	0x9f
 5395 03e8 00000000 		.4byte	0
 5396 03ec 00000000 		.4byte	0
 5397              	.LLST23:
 5398 03f0 0C000000 		.4byte	.LVL104
 5399 03f4 12000000 		.4byte	.LVL105
 5400 03f8 0100     		.2byte	0x1
 5401 03fa 50       		.byte	0x50
 5402 03fb 38000000 		.4byte	.LVL112
 5403 03ff 3A000000 		.4byte	.LVL113
 5404 0403 0100     		.2byte	0x1
 5405 0405 50       		.byte	0x50
 5406 0406 00000000 		.4byte	0
 5407 040a 00000000 		.4byte	0
 5408              	.LLST24:
 5409 040e 16000000 		.4byte	.LVL106
 5410 0412 1A000000 		.4byte	.LVL107
 5411 0416 0200     		.2byte	0x2
 5412 0418 30       		.byte	0x30
 5413 0419 9F       		.byte	0x9f
 5414 041a 1A000000 		.4byte	.LVL107
 5415 041e 38000000 		.4byte	.LVL112
 5416 0422 0100     		.2byte	0x1
 5417 0424 54       		.byte	0x54
 5418 0425 3A000000 		.4byte	.LVL113
 5419 0429 44000000 		.4byte	.LVL114
 5420 042d 0100     		.2byte	0x1
 5421 042f 54       		.byte	0x54
 5422 0430 00000000 		.4byte	0
 5423 0434 00000000 		.4byte	0
 5424              		.section	.debug_aranges,"",%progbits
 5425 0000 8C000000 		.4byte	0x8c
 5426 0004 0200     		.2byte	0x2
 5427 0006 00000000 		.4byte	.Ldebug_info0
 5428 000a 04       		.byte	0x4
ARM GAS  C:\Users\guill\AppData\Local\Temp\cclz5xua.s 			page 125


 5429 000b 00       		.byte	0
 5430 000c 0000     		.2byte	0
 5431 000e 0000     		.2byte	0
 5432 0010 00000000 		.4byte	.LFB589
 5433 0014 50000000 		.4byte	.LFE589-.LFB589
 5434 0018 00000000 		.4byte	.LFB590
 5435 001c 24000000 		.4byte	.LFE590-.LFB590
 5436 0020 00000000 		.4byte	.LFB591
 5437 0024 50000000 		.4byte	.LFE591-.LFB591
 5438 0028 00000000 		.4byte	.LFB592
 5439 002c 24000000 		.4byte	.LFE592-.LFB592
 5440 0030 00000000 		.4byte	.LFB594
 5441 0034 3C000000 		.4byte	.LFE594-.LFB594
 5442 0038 00000000 		.4byte	.LFB595
 5443 003c 3C000000 		.4byte	.LFE595-.LFB595
 5444 0040 00000000 		.4byte	.LFB596
 5445 0044 3C000000 		.4byte	.LFE596-.LFB596
 5446 0048 00000000 		.4byte	.LFB597
 5447 004c 3C000000 		.4byte	.LFE597-.LFB597
 5448 0050 00000000 		.4byte	.LFB598
 5449 0054 22000000 		.4byte	.LFE598-.LFB598
 5450 0058 00000000 		.4byte	.LFB600
 5451 005c 22000000 		.4byte	.LFE600-.LFB600
 5452 0060 00000000 		.4byte	.LFB599
 5453 0064 3E000000 		.4byte	.LFE599-.LFB599
 5454 0068 00000000 		.4byte	.LFB601
 5455 006c 42000000 		.4byte	.LFE601-.LFB601
 5456 0070 00000000 		.4byte	.LFB602
 5457 0074 12000000 		.4byte	.LFE602-.LFB602
 5458 0078 00000000 		.4byte	.LFB593
 5459 007c A8000000 		.4byte	.LFE593-.LFB593
 5460 0080 00000000 		.4byte	.LFB603
 5461 0084 46000000 		.4byte	.LFE603-.LFB603
 5462 0088 00000000 		.4byte	0
 5463 008c 00000000 		.4byte	0
 5464              		.section	.debug_ranges,"",%progbits
 5465              	.Ldebug_ranges0:
 5466 0000 00000000 		.4byte	.LFB589
 5467 0004 50000000 		.4byte	.LFE589
 5468 0008 00000000 		.4byte	.LFB590
 5469 000c 24000000 		.4byte	.LFE590
 5470 0010 00000000 		.4byte	.LFB591
 5471 0014 50000000 		.4byte	.LFE591
 5472 0018 00000000 		.4byte	.LFB592
 5473 001c 24000000 		.4byte	.LFE592
 5474 0020 00000000 		.4byte	.LFB594
 5475 0024 3C000000 		.4byte	.LFE594
 5476 0028 00000000 		.4byte	.LFB595
 5477 002c 3C000000 		.4byte	.LFE595
 5478 0030 00000000 		.4byte	.LFB596
 5479 0034 3C000000 		.4byte	.LFE596
 5480 0038 00000000 		.4byte	.LFB597
 5481 003c 3C000000 		.4byte	.LFE597
 5482 0040 00000000 		.4byte	.LFB598
 5483 0044 22000000 		.4byte	.LFE598
 5484 0048 00000000 		.4byte	.LFB600
 5485 004c 22000000 		.4byte	.LFE600
ARM GAS  C:\Users\guill\AppData\Local\Temp\cclz5xua.s 			page 126


 5486 0050 00000000 		.4byte	.LFB599
 5487 0054 3E000000 		.4byte	.LFE599
 5488 0058 00000000 		.4byte	.LFB601
 5489 005c 42000000 		.4byte	.LFE601
 5490 0060 00000000 		.4byte	.LFB602
 5491 0064 12000000 		.4byte	.LFE602
 5492 0068 00000000 		.4byte	.LFB593
 5493 006c A8000000 		.4byte	.LFE593
 5494 0070 00000000 		.4byte	.LFB603
 5495 0074 46000000 		.4byte	.LFE603
 5496 0078 00000000 		.4byte	0
 5497 007c 00000000 		.4byte	0
 5498              		.section	.debug_line,"",%progbits
 5499              	.Ldebug_line0:
 5500 0000 83050000 		.section	.debug_str,"MS",%progbits,1
 5500      0200C503 
 5500      00000201 
 5500      FB0E0D00 
 5500      01010101 
 5501              	.LASF133:
 5502 0000 666C6173 		.ascii	"flashCtlMainWs1Freq\000"
 5502      6843746C 
 5502      4D61696E 
 5502      57733146 
 5502      72657100 
 5503              	.LASF291:
 5504 0014 64697265 		.ascii	"direction\000"
 5504      6374696F 
 5504      6E00
 5505              	.LASF24:
 5506 001e 52455345 		.ascii	"RESERVED\000"
 5506      52564544 
 5506      00
 5507              	.LASF267:
 5508 0027 73746F70 		.ascii	"stopInputMode\000"
 5508      496E7075 
 5508      744D6F64 
 5508      6500
 5509              	.LASF211:
 5510 0035 68696768 		.ascii	"highPhaseDutyCycle\000"
 5510      50686173 
 5510      65447574 
 5510      79437963 
 5510      6C6500
 5511              	.LASF319:
 5512 0048 63795F64 		.ascii	"cy_device\000"
 5512      65766963 
 5512      6500
 5513              	.LASF328:
 5514 0052 5F73686F 		.ascii	"_showControl\000"
 5514      77436F6E 
 5514      74726F6C 
 5514      00
 5515              	.LASF4:
 5516 005f 73686F72 		.ascii	"short int\000"
 5516      7420696E 
 5516      7400
ARM GAS  C:\Users\guill\AppData\Local\Temp\cclz5xua.s 			page 127


 5517              	.LASF160:
 5518 0069 63707573 		.ascii	"cpussCm0ClockCtlOffset\000"
 5518      73436D30 
 5518      436C6F63 
 5518      6B43746C 
 5518      4F666673 
 5519              	.LASF119:
 5520 0080 70657269 		.ascii	"periClockNr\000"
 5520      436C6F63 
 5520      6B4E7200 
 5521              	.LASF216:
 5522 008c 6D617374 		.ascii	"masterStatus\000"
 5522      65725374 
 5522      61747573 
 5522      00
 5523              	.LASF342:
 5524 0099 7374726C 		.ascii	"strlen\000"
 5524      656E00
 5525              	.LASF237:
 5526 00a0 74785374 		.ascii	"txStatus\000"
 5526      61747573 
 5526      00
 5527              	.LASF93:
 5528 00a9 75646242 		.ascii	"udbBase\000"
 5528      61736500 
 5529              	.LASF23:
 5530 00b1 434D445F 		.ascii	"CMD_RESP_STATUS\000"
 5530      52455350 
 5530      5F535441 
 5530      54555300 
 5531              	.LASF81:
 5532 00c1 494E5452 		.ascii	"INTR_TX_MASK\000"
 5532      5F54585F 
 5532      4D41534B 
 5532      00
 5533              	.LASF92:
 5534 00ce 70657269 		.ascii	"periBase\000"
 5534      42617365 
 5534      00
 5535              	.LASF195:
 5536 00d7 43595F53 		.ascii	"CY_SCB_I2C_READ_XFER\000"
 5536      43425F49 
 5536      32435F52 
 5536      4541445F 
 5536      58464552 
 5537              	.LASF271:
 5538 00ec 63795F73 		.ascii	"cy_stc_tcpwm_counter_config_t\000"
 5538      74635F74 
 5538      6370776D 
 5538      5F636F75 
 5538      6E746572 
 5539              	.LASF168:
 5540 010a 63707573 		.ascii	"cpussCm0NmiCtlOffset\000"
 5540      73436D30 
 5540      4E6D6943 
 5540      746C4F66 
 5540      66736574 
ARM GAS  C:\Users\guill\AppData\Local\Temp\cclz5xua.s 			page 128


 5541              	.LASF333:
 5542 011f 5F6C6364 		.ascii	"_lcdAddr\000"
 5542      41646472 
 5542      00
 5543              	.LASF138:
 5544 0128 64774368 		.ascii	"dwChSize\000"
 5544      53697A65 
 5544      00
 5545              	.LASF181:
 5546 0131 43595F53 		.ascii	"CY_SCB_I2C_BAD_PARAM\000"
 5546      43425F49 
 5546      32435F42 
 5546      41445F50 
 5546      4152414D 
 5547              	.LASF42:
 5548 0146 54585F46 		.ascii	"TX_FIFO_STATUS\000"
 5548      49464F5F 
 5548      53544154 
 5548      555300
 5549              	.LASF223:
 5550 0155 736C6176 		.ascii	"slaveStatus\000"
 5550      65537461 
 5550      74757300 
 5551              	.LASF325:
 5552 0161 54696D65 		.ascii	"Timer_Echo_config\000"
 5552      725F4563 
 5552      686F5F63 
 5552      6F6E6669 
 5552      6700
 5553              	.LASF199:
 5554 0173 63795F63 		.ascii	"cy_cb_scb_i2c_handle_events_t\000"
 5554      625F7363 
 5554      625F6932 
 5554      635F6861 
 5554      6E646C65 
 5555              	.LASF221:
 5556 0191 6D617374 		.ascii	"masterBufferIdx\000"
 5556      65724275 
 5556      66666572 
 5556      49647800 
 5557              	.LASF57:
 5558 01a1 494E5452 		.ascii	"INTR_CAUSE\000"
 5558      5F434155 
 5558      534500
 5559              	.LASF120:
 5560 01ac 736D6966 		.ascii	"smifDeviceNr\000"
 5560      44657669 
 5560      63654E72 
 5560      00
 5561              	.LASF150:
 5562 01b9 70657269 		.ascii	"periDivCmdPaTypeSelPos\000"
 5562      44697643 
 5562      6D645061 
 5562      54797065 
 5562      53656C50 
 5563              	.LASF266:
 5564 01d0 73746172 		.ascii	"startInput\000"
ARM GAS  C:\Users\guill\AppData\Local\Temp\cclz5xua.s 			page 129


 5564      74496E70 
 5564      757400
 5565              	.LASF47:
 5566 01db 52585F46 		.ascii	"RX_FIFO_CTRL\000"
 5566      49464F5F 
 5566      4354524C 
 5566      00
 5567              	.LASF250:
 5568 01e8 63795F73 		.ascii	"cy_stc_scb_uart_context_t\000"
 5568      74635F73 
 5568      63625F75 
 5568      6172745F 
 5568      636F6E74 
 5569              	.LASF90:
 5570 0202 63707573 		.ascii	"cpussBase\000"
 5570      73426173 
 5570      6500
 5571              	.LASF229:
 5572 020c 736C6176 		.ascii	"slaveRxBuffer\000"
 5572      65527842 
 5572      75666665 
 5572      7200
 5573              	.LASF114:
 5574 021a 63707573 		.ascii	"cpussFmIrq\000"
 5574      73466D49 
 5574      727100
 5575              	.LASF75:
 5576 0225 494E5452 		.ascii	"INTR_S_SET\000"
 5576      5F535F53 
 5576      455400
 5577              	.LASF264:
 5578 0230 72656C6F 		.ascii	"reloadInput\000"
 5578      6164496E 
 5578      70757400 
 5579              	.LASF80:
 5580 023c 494E5452 		.ascii	"INTR_TX_SET\000"
 5580      5F54585F 
 5580      53455400 
 5581              	.LASF87:
 5582 0248 494E5452 		.ascii	"INTR_RX_MASKED\000"
 5582      5F52585F 
 5582      4D41534B 
 5582      454400
 5583              	.LASF196:
 5584 0257 43595F53 		.ascii	"CY_SCB_I2C_ACK\000"
 5584      43425F49 
 5584      32435F41 
 5584      434B00
 5585              	.LASF121:
 5586 0266 70617373 		.ascii	"passSarChannels\000"
 5586      53617243 
 5586      68616E6E 
 5586      656C7300 
 5587              	.LASF240:
 5588 0276 72785269 		.ascii	"rxRingBufSize\000"
 5588      6E674275 
 5588      6653697A 
ARM GAS  C:\Users\guill\AppData\Local\Temp\cclz5xua.s 			page 130


 5588      6500
 5589              	.LASF273:
 5590 0284 70776D4D 		.ascii	"pwmMode\000"
 5590      6F646500 
 5591              	.LASF146:
 5592 028c 70657269 		.ascii	"periTrGrSize\000"
 5592      54724772 
 5592      53697A65 
 5592      00
 5593              	.LASF345:
 5594 0299 433A5C55 		.ascii	"C:\\Users\\guill\\Escritorio\\CSE121\\Lab4.4.cydsn\000"
 5594      73657273 
 5594      5C677569 
 5594      6C6C5C45 
 5594      73637269 
 5595              	.LASF149:
 5596 02c7 70657269 		.ascii	"periDivCmdPaDivSelPos\000"
 5596      44697643 
 5596      6D645061 
 5596      44697653 
 5596      656C506F 
 5597              	.LASF126:
 5598 02dd 63727970 		.ascii	"cryptoMemSize\000"
 5598      746F4D65 
 5598      6D53697A 
 5598      6500
 5599              	.LASF294:
 5600 02eb 6D6F6465 		.ascii	"mode\000"
 5600      00
 5601              	.LASF172:
 5602 02f0 63707573 		.ascii	"cpussRam1Ctl0\000"
 5602      7352616D 
 5602      3143746C 
 5602      3000
 5603              	.LASF191:
 5604 02fe 43595F53 		.ascii	"CY_SCB_I2C_MASTER\000"
 5604      43425F49 
 5604      32435F4D 
 5604      41535445 
 5604      5200
 5605              	.LASF174:
 5606 0310 69706353 		.ascii	"ipcStructSize\000"
 5606      74727563 
 5606      7453697A 
 5606      6500
 5607              	.LASF197:
 5608 031e 43595F53 		.ascii	"CY_SCB_I2C_NAK\000"
 5608      43425F49 
 5608      32435F4E 
 5608      414B00
 5609              	.LASF200:
 5610 032d 63795F63 		.ascii	"cy_cb_scb_i2c_handle_addr_t\000"
 5610      625F7363 
 5610      625F6932 
 5610      635F6861 
 5610      6E646C65 
 5611              	.LASF257:
ARM GAS  C:\Users\guill\AppData\Local\Temp\cclz5xua.s 			page 131


 5612 0349 636F6D70 		.ascii	"compare0\000"
 5612      61726530 
 5612      00
 5613              	.LASF258:
 5614 0352 636F6D70 		.ascii	"compare1\000"
 5614      61726531 
 5614      00
 5615              	.LASF108:
 5616 035b 70726F74 		.ascii	"protVersion\000"
 5616      56657273 
 5616      696F6E00 
 5617              	.LASF214:
 5618 0367 63795F73 		.ascii	"cy_stc_scb_i2c_context\000"
 5618      74635F73 
 5618      63625F69 
 5618      32635F63 
 5618      6F6E7465 
 5619              	.LASF30:
 5620 037e 55415254 		.ascii	"UART_RX_CTRL\000"
 5620      5F52585F 
 5620      4354524C 
 5620      00
 5621              	.LASF170:
 5622 038b 63707573 		.ascii	"cpussRomCtl\000"
 5622      73526F6D 
 5622      43746C00 
 5623              	.LASF272:
 5624 0397 63795F73 		.ascii	"cy_stc_tcpwm_pwm_config\000"
 5624      74635F74 
 5624      6370776D 
 5624      5F70776D 
 5624      5F636F6E 
 5625              	.LASF148:
 5626 03af 70657269 		.ascii	"periDivCmdTypeSelPos\000"
 5626      44697643 
 5626      6D645479 
 5626      70655365 
 5626      6C506F73 
 5627              	.LASF165:
 5628 03c4 63707573 		.ascii	"cpussTrimRamCtlOffset\000"
 5628      73547269 
 5628      6D52616D 
 5628      43746C4F 
 5628      66667365 
 5629              	.LASF89:
 5630 03da 43795343 		.ascii	"CySCB_Type\000"
 5630      425F5479 
 5630      706500
 5631              	.LASF312:
 5632 03e5 4C43445F 		.ascii	"LCD_Clear\000"
 5632      436C6561 
 5632      7200
 5633              	.LASF38:
 5634 03ef 4932435F 		.ascii	"I2C_CFG\000"
 5634      43464700 
 5635              	.LASF225:
 5636 03f7 736C6176 		.ascii	"slaveTxBuffer\000"
ARM GAS  C:\Users\guill\AppData\Local\Temp\cclz5xua.s 			page 132


 5636      65547842 
 5636      75666665 
 5636      7200
 5637              	.LASF296:
 5638 0405 73656E64 		.ascii	"send\000"
 5638      00
 5639              	.LASF335:
 5640 040a 5F636F6C 		.ascii	"_cols\000"
 5640      7300
 5641              	.LASF242:
 5642 0410 72785269 		.ascii	"rxRingBufTail\000"
 5642      6E674275 
 5642      66546169 
 5642      6C00
 5643              	.LASF53:
 5644 041e 52585F46 		.ascii	"RX_FIFO_RD_SILENT\000"
 5644      49464F5F 
 5644      52445F53 
 5644      494C454E 
 5644      5400
 5645              	.LASF227:
 5646 0430 736C6176 		.ascii	"slaveTxBufferIdx\000"
 5646      65547842 
 5646      75666665 
 5646      72496478 
 5646      00
 5647              	.LASF19:
 5648 0441 75696E74 		.ascii	"uint32_t\000"
 5648      33325F74 
 5648      00
 5649              	.LASF278:
 5650 044a 656E6162 		.ascii	"enablePeriodSwap\000"
 5650      6C655065 
 5650      72696F64 
 5650      53776170 
 5650      00
 5651              	.LASF70:
 5652 045b 494E5452 		.ascii	"INTR_M_SET\000"
 5652      5F4D5F53 
 5652      455400
 5653              	.LASF158:
 5654 0466 6770696F 		.ascii	"gpioPrtCfgOutOffset\000"
 5654      50727443 
 5654      66674F75 
 5654      744F6666 
 5654      73657400 
 5655              	.LASF208:
 5656 047a 656E6162 		.ascii	"enableWakeFromSleep\000"
 5656      6C655761 
 5656      6B654672 
 5656      6F6D536C 
 5656      65657000 
 5657              	.LASF177:
 5658 048e 666C6F61 		.ascii	"float\000"
 5658      7400
 5659              	.LASF101:
 5660 0494 63727970 		.ascii	"cryptoVersion\000"
ARM GAS  C:\Users\guill\AppData\Local\Temp\cclz5xua.s 			page 133


 5660      746F5665 
 5660      7273696F 
 5660      6E00
 5661              	.LASF72:
 5662 04a2 494E5452 		.ascii	"INTR_M_MASKED\000"
 5662      5F4D5F4D 
 5662      41534B45 
 5662      4400
 5663              	.LASF130:
 5664 04b0 666C6173 		.ascii	"flashProgramDelay\000"
 5664      6850726F 
 5664      6772616D 
 5664      44656C61 
 5664      7900
 5665              	.LASF347:
 5666 04c2 62617365 		.ascii	"base\000"
 5666      00
 5667              	.LASF338:
 5668 04c7 43795F53 		.ascii	"Cy_SysLib_Delay\000"
 5668      79734C69 
 5668      625F4465 
 5668      6C617900 
 5669              	.LASF236:
 5670 04d7 63795F73 		.ascii	"cy_stc_scb_uart_context\000"
 5670      74635F73 
 5670      63625F75 
 5670      6172745F 
 5670      636F6E74 
 5671              	.LASF36:
 5672 04ef 4932435F 		.ascii	"I2C_M_CMD\000"
 5672      4D5F434D 
 5672      4400
 5673              	.LASF17:
 5674 04f9 696E7431 		.ascii	"int16_t\000"
 5674      365F7400 
 5675              	.LASF326:
 5676 0501 50574D5F 		.ascii	"PWM_Trigger_config\000"
 5676      54726967 
 5676      6765725F 
 5676      636F6E66 
 5676      696700
 5677              	.LASF157:
 5678 0514 6770696F 		.ascii	"gpioPrtCfgInOffset\000"
 5678      50727443 
 5678      6667496E 
 5678      4F666673 
 5678      657400
 5679              	.LASF11:
 5680 0527 6C6F6E67 		.ascii	"long long unsigned int\000"
 5680      206C6F6E 
 5680      6720756E 
 5680      7369676E 
 5680      65642069 
 5681              	.LASF154:
 5682 053e 70657269 		.ascii	"periDiv24_5CtlOffset\000"
 5682      44697632 
 5682      345F3543 
ARM GAS  C:\Users\guill\AppData\Local\Temp\cclz5xua.s 			page 134


 5682      746C4F66 
 5682      66736574 
 5683              	.LASF159:
 5684 0553 6770696F 		.ascii	"gpioPrtCfgSioOffset\000"
 5684      50727443 
 5684      66675369 
 5684      6F4F6666 
 5684      73657400 
 5685              	.LASF113:
 5686 0567 63707573 		.ascii	"cpussIpc0Irq\000"
 5686      73497063 
 5686      30497271 
 5686      00
 5687              	.LASF289:
 5688 0574 426C7565 		.ascii	"Blue\000"
 5688      00
 5689              	.LASF337:
 5690 0579 43795F53 		.ascii	"Cy_SCB_I2C_MasterWriteByte\000"
 5690      43425F49 
 5690      32435F4D 
 5690      61737465 
 5690      72577269 
 5691              	.LASF5:
 5692 0594 5F5F7569 		.ascii	"__uint16_t\000"
 5692      6E743136 
 5692      5F7400
 5693              	.LASF226:
 5694 059f 736C6176 		.ascii	"slaveTxBufferSize\000"
 5694      65547842 
 5694      75666665 
 5694      7253697A 
 5694      6500
 5695              	.LASF15:
 5696 05b1 63686172 		.ascii	"char\000"
 5696      00
 5697              	.LASF224:
 5698 05b6 736C6176 		.ascii	"slaveRdBufEmpty\000"
 5698      65526442 
 5698      7566456D 
 5698      70747900 
 5699              	.LASF280:
 5700 05c6 696E7665 		.ascii	"invertPWMOutN\000"
 5700      72745057 
 5700      4D4F7574 
 5700      4E00
 5701              	.LASF265:
 5702 05d4 73746172 		.ascii	"startInputMode\000"
 5702      74496E70 
 5702      75744D6F 
 5702      646500
 5703              	.LASF292:
 5704 05e3 4C656674 		.ascii	"Left\000"
 5704      00
 5705              	.LASF261:
 5706 05e8 63617074 		.ascii	"captureInputMode\000"
 5706      75726549 
 5706      6E707574 
ARM GAS  C:\Users\guill\AppData\Local\Temp\cclz5xua.s 			page 135


 5706      4D6F6465 
 5706      00
 5707              	.LASF29:
 5708 05f9 55415254 		.ascii	"UART_TX_CTRL\000"
 5708      5F54585F 
 5708      4354524C 
 5708      00
 5709              	.LASF298:
 5710 0606 76616C75 		.ascii	"value\000"
 5710      6500
 5711              	.LASF131:
 5712 060c 666C6173 		.ascii	"flashEraseDelay\000"
 5712      68457261 
 5712      73654465 
 5712      6C617900 
 5713              	.LASF238:
 5714 061c 72785374 		.ascii	"rxStatus\000"
 5714      61747573 
 5714      00
 5715              	.LASF243:
 5716 0625 72784275 		.ascii	"rxBuf\000"
 5716      6600
 5717              	.LASF290:
 5718 062b 636F6C6F 		.ascii	"color\000"
 5718      7200
 5719              	.LASF135:
 5720 0631 666C6173 		.ascii	"flashCtlMainWs3Freq\000"
 5720      6843746C 
 5720      4D61696E 
 5720      57733346 
 5720      72657100 
 5721              	.LASF117:
 5722 0645 73727373 		.ascii	"srssNumPll\000"
 5722      4E756D50 
 5722      6C6C00
 5723              	.LASF284:
 5724 0650 6B696C6C 		.ascii	"killInputMode\000"
 5724      496E7075 
 5724      744D6F64 
 5724      6500
 5725              	.LASF64:
 5726 065e 494E5452 		.ascii	"INTR_SPI_EC\000"
 5726      5F535049 
 5726      5F454300 
 5727              	.LASF310:
 5728 066a 4C43445F 		.ascii	"LCD_SetColor\000"
 5728      53657443 
 5728      6F6C6F72 
 5728      00
 5729              	.LASF128:
 5730 0677 666C6173 		.ascii	"flashPipeRequired\000"
 5730      68506970 
 5730      65526571 
 5730      75697265 
 5730      6400
 5731              	.LASF232:
 5732 0689 63624576 		.ascii	"cbEvents\000"
ARM GAS  C:\Users\guill\AppData\Local\Temp\cclz5xua.s 			page 136


 5732      656E7473 
 5732      00
 5733              	.LASF179:
 5734 0692 5F426F6F 		.ascii	"_Bool\000"
 5734      6C00
 5735              	.LASF50:
 5736 0698 52585F4D 		.ascii	"RX_MATCH\000"
 5736      41544348 
 5736      00
 5737              	.LASF182:
 5738 06a1 43595F53 		.ascii	"CY_SCB_I2C_MASTER_NOT_READY\000"
 5738      43425F49 
 5738      32435F4D 
 5738      41535445 
 5738      525F4E4F 
 5739              	.LASF251:
 5740 06bd 63795F73 		.ascii	"cy_stc_tcpwm_counter_config\000"
 5740      74635F74 
 5740      6370776D 
 5740      5F636F75 
 5740      6E746572 
 5741              	.LASF186:
 5742 06d9 43595F53 		.ascii	"CY_SCB_I2C_MASTER_MANUAL_ARB_LOST\000"
 5742      43425F49 
 5742      32435F4D 
 5742      41535445 
 5742      525F4D41 
 5743              	.LASF132:
 5744 06fb 666C6173 		.ascii	"flashCtlMainWs0Freq\000"
 5744      6843746C 
 5744      4D61696E 
 5744      57733046 
 5744      72657100 
 5745              	.LASF283:
 5746 070f 73776170 		.ascii	"swapInput\000"
 5746      496E7075 
 5746      7400
 5747              	.LASF202:
 5748 0719 75736552 		.ascii	"useRxFifo\000"
 5748      78466966 
 5748      6F00
 5749              	.LASF344:
 5750 0723 44524630 		.ascii	"DRF0554.c\000"
 5750      3535342E 
 5750      6300
 5751              	.LASF96:
 5752 072d 6770696F 		.ascii	"gpioBase\000"
 5752      42617365 
 5752      00
 5753              	.LASF59:
 5754 0736 494E5452 		.ascii	"INTR_I2C_EC\000"
 5754      5F493243 
 5754      5F454300 
 5755              	.LASF274:
 5756 0742 70776D41 		.ascii	"pwmAlignment\000"
 5756      6C69676E 
 5756      6D656E74 
ARM GAS  C:\Users\guill\AppData\Local\Temp\cclz5xua.s 			page 137


 5756      00
 5757              	.LASF77:
 5758 074f 494E5452 		.ascii	"INTR_S_MASKED\000"
 5758      5F535F4D 
 5758      41534B45 
 5758      4400
 5759              	.LASF167:
 5760 075d 63707573 		.ascii	"cpussSysTickCtlOffset\000"
 5760      73537973 
 5760      5469636B 
 5760      43746C4F 
 5760      66667365 
 5761              	.LASF123:
 5762 0773 75646250 		.ascii	"udbPresent\000"
 5762      72657365 
 5762      6E7400
 5763              	.LASF141:
 5764 077e 64775374 		.ascii	"dwStatusChIdxPos\000"
 5764      61747573 
 5764      43684964 
 5764      78506F73 
 5764      00
 5765              	.LASF206:
 5766 078f 61636365 		.ascii	"acceptAddrInFifo\000"
 5766      70744164 
 5766      6472496E 
 5766      4669666F 
 5766      00
 5767              	.LASF307:
 5768 07a0 4C43445F 		.ascii	"LCD_SetRGB\000"
 5768      53657452 
 5768      474200
 5769              	.LASF323:
 5770 07ab 4932435F 		.ascii	"I2C_config\000"
 5770      636F6E66 
 5770      696700
 5771              	.LASF222:
 5772 07b6 6D617374 		.ascii	"masterNumBytes\000"
 5772      65724E75 
 5772      6D427974 
 5772      657300
 5773              	.LASF112:
 5774 07c5 63707573 		.ascii	"cpussFlashPaSize\000"
 5774      73466C61 
 5774      73685061 
 5774      53697A65 
 5774      00
 5775              	.LASF262:
 5776 07d6 63617074 		.ascii	"captureInput\000"
 5776      75726549 
 5776      6E707574 
 5776      00
 5777              	.LASF91:
 5778 07e3 666C6173 		.ascii	"flashcBase\000"
 5778      68634261 
 5778      736500
 5779              	.LASF193:
ARM GAS  C:\Users\guill\AppData\Local\Temp\cclz5xua.s 			page 138


 5780 07ee 63795F65 		.ascii	"cy_en_scb_i2c_mode_t\000"
 5780      6E5F7363 
 5780      625F6932 
 5780      635F6D6F 
 5780      64655F74 
 5781              	.LASF88:
 5782 0803 43795343 		.ascii	"CySCB_V1_Type\000"
 5782      425F5631 
 5782      5F547970 
 5782      6500
 5783              	.LASF188:
 5784 0811 43595F53 		.ascii	"CY_SCB_I2C_MASTER_MANUAL_ABORT_START\000"
 5784      43425F49 
 5784      32435F4D 
 5784      41535445 
 5784      525F4D41 
 5785              	.LASF190:
 5786 0836 43595F53 		.ascii	"CY_SCB_I2C_SLAVE\000"
 5786      43425F49 
 5786      32435F53 
 5786      4C415645 
 5786      00
 5787              	.LASF76:
 5788 0847 494E5452 		.ascii	"INTR_S_MASK\000"
 5788      5F535F4D 
 5788      41534B00 
 5789              	.LASF124:
 5790 0853 73797350 		.ascii	"sysPmSimoPresent\000"
 5790      6D53696D 
 5790      6F507265 
 5790      73656E74 
 5790      00
 5791              	.LASF220:
 5792 0864 6D617374 		.ascii	"masterBufferSize\000"
 5792      65724275 
 5792      66666572 
 5792      53697A65 
 5792      00
 5793              	.LASF180:
 5794 0875 43595F53 		.ascii	"CY_SCB_I2C_SUCCESS\000"
 5794      43425F49 
 5794      32435F53 
 5794      55434345 
 5794      535300
 5795              	.LASF62:
 5796 0888 494E5452 		.ascii	"INTR_I2C_EC_MASKED\000"
 5796      5F493243 
 5796      5F45435F 
 5796      4D41534B 
 5796      454400
 5797              	.LASF253:
 5798 089b 636C6F63 		.ascii	"clockPrescaler\000"
 5798      6B507265 
 5798      7363616C 
 5798      657200
 5799              	.LASF207:
 5800 08aa 61636B47 		.ascii	"ackGeneralAddr\000"
ARM GAS  C:\Users\guill\AppData\Local\Temp\cclz5xua.s 			page 139


 5800      656E6572 
 5800      616C4164 
 5800      647200
 5801              	.LASF295:
 5802 08b9 64617461 		.ascii	"data\000"
 5802      00
 5803              	.LASF245:
 5804 08be 72784275 		.ascii	"rxBufIdx\000"
 5804      66496478 
 5804      00
 5805              	.LASF12:
 5806 08c7 756E7369 		.ascii	"unsigned int\000"
 5806      676E6564 
 5806      20696E74 
 5806      00
 5807              	.LASF249:
 5808 08d4 696E6974 		.ascii	"initKey\000"
 5808      4B657900 
 5809              	.LASF142:
 5810 08dc 64775374 		.ascii	"dwStatusChIdxMsk\000"
 5810      61747573 
 5810      43684964 
 5810      784D736B 
 5810      00
 5811              	.LASF16:
 5812 08ed 75696E74 		.ascii	"uint8_t\000"
 5812      385F7400 
 5813              	.LASF213:
 5814 08f5 63795F73 		.ascii	"cy_stc_scb_i2c_config\000"
 5814      74635F73 
 5814      63625F69 
 5814      32635F63 
 5814      6F6E6669 
 5815              	.LASF228:
 5816 090b 736C6176 		.ascii	"slaveTxBufferCnt\000"
 5816      65547842 
 5816      75666665 
 5816      72436E74 
 5816      00
 5817              	.LASF97:
 5818 091c 70617373 		.ascii	"passBase\000"
 5818      42617365 
 5818      00
 5819              	.LASF147:
 5820 0925 70657269 		.ascii	"periDivCmdDivSelMsk\000"
 5820      44697643 
 5820      6D644469 
 5820      7653656C 
 5820      4D736B00 
 5821              	.LASF322:
 5822 0939 50574D5F 		.ascii	"PWM_Green_config\000"
 5822      47726565 
 5822      6E5F636F 
 5822      6E666967 
 5822      00
 5823              	.LASF155:
 5824 094a 6770696F 		.ascii	"gpioPrtIntrCfgOffset\000"
ARM GAS  C:\Users\guill\AppData\Local\Temp\cclz5xua.s 			page 140


 5824      50727449 
 5824      6E747243 
 5824      66674F66 
 5824      66736574 
 5825              	.LASF153:
 5826 095f 70657269 		.ascii	"periDiv16_5CtlOffset\000"
 5826      44697631 
 5826      365F3543 
 5826      746C4F66 
 5826      66736574 
 5827              	.LASF212:
 5828 0974 63795F73 		.ascii	"cy_stc_scb_i2c_config_t\000"
 5828      74635F73 
 5828      63625F69 
 5828      32635F63 
 5828      6F6E6669 
 5829              	.LASF235:
 5830 098c 63795F63 		.ascii	"cy_cb_scb_uart_handle_events_t\000"
 5830      625F7363 
 5830      625F7561 
 5830      72745F68 
 5830      616E646C 
 5831              	.LASF171:
 5832 09ab 63707573 		.ascii	"cpussRam0Ctl0\000"
 5832      7352616D 
 5832      3043746C 
 5832      3000
 5833              	.LASF10:
 5834 09b9 6C6F6E67 		.ascii	"long long int\000"
 5834      206C6F6E 
 5834      6720696E 
 5834      7400
 5835              	.LASF98:
 5836 09c7 69706342 		.ascii	"ipcBase\000"
 5836      61736500 
 5837              	.LASF139:
 5838 09cf 64774368 		.ascii	"dwChCtlPrioPos\000"
 5838      43746C50 
 5838      72696F50 
 5838      6F7300
 5839              	.LASF301:
 5840 09de 77726974 		.ascii	"write\000"
 5840      6500
 5841              	.LASF99:
 5842 09e4 63727970 		.ascii	"cryptoBase\000"
 5842      746F4261 
 5842      736500
 5843              	.LASF275:
 5844 09ef 64656164 		.ascii	"deadTimeClocks\000"
 5844      54696D65 
 5844      436C6F63 
 5844      6B7300
 5845              	.LASF203:
 5846 09fe 75736554 		.ascii	"useTxFifo\000"
 5846      78466966 
 5846      6F00
 5847              	.LASF282:
ARM GAS  C:\Users\guill\AppData\Local\Temp\cclz5xua.s 			page 141


 5848 0a08 73776170 		.ascii	"swapInputMode\000"
 5848      496E7075 
 5848      744D6F64 
 5848      6500
 5849              	.LASF340:
 5850 0a16 43795F53 		.ascii	"Cy_SCB_I2C_MasterSendStop\000"
 5850      43425F49 
 5850      32435F4D 
 5850      61737465 
 5850      7253656E 
 5851              	.LASF210:
 5852 0a30 6C6F7750 		.ascii	"lowPhaseDutyCycle\000"
 5852      68617365 
 5852      44757479 
 5852      4379636C 
 5852      6500
 5853              	.LASF129:
 5854 0a42 666C6173 		.ascii	"flashWriteDelay\000"
 5854      68577269 
 5854      74654465 
 5854      6C617900 
 5855              	.LASF343:
 5856 0a52 474E5520 		.ascii	"GNU C11 5.4.1 20160609 (release) [ARM/embedded-5-br"
 5856      43313120 
 5856      352E342E 
 5856      31203230 
 5856      31363036 
 5857 0a85 616E6368 		.ascii	"anch revision 237715] -mcpu=cortex-m0plus -mthumb -"
 5857      20726576 
 5857      6973696F 
 5857      6E203233 
 5857      37373135 
 5858 0ab8 67202D4F 		.ascii	"g -Og -ffunction-sections -ffat-lto-objects\000"
 5858      67202D66 
 5858      66756E63 
 5858      74696F6E 
 5858      2D736563 
 5859              	.LASF315:
 5860 0ae4 636F6E74 		.ascii	"context\000"
 5860      65787400 
 5861              	.LASF276:
 5862 0aec 70657269 		.ascii	"period0\000"
 5862      6F643000 
 5863              	.LASF277:
 5864 0af4 70657269 		.ascii	"period1\000"
 5864      6F643100 
 5865              	.LASF3:
 5866 0afc 5F5F696E 		.ascii	"__int16_t\000"
 5866      7431365F 
 5866      7400
 5867              	.LASF32:
 5868 0b06 55415254 		.ascii	"UART_FLOW_CTRL\000"
 5868      5F464C4F 
 5868      575F4354 
 5868      524C00
 5869              	.LASF334:
 5870 0b15 5F524742 		.ascii	"_RGBAddr\000"
ARM GAS  C:\Users\guill\AppData\Local\Temp\cclz5xua.s 			page 142


 5870      41646472 
 5870      00
 5871              	.LASF279:
 5872 0b1e 696E7665 		.ascii	"invertPWMOut\000"
 5872      72745057 
 5872      4D4F7574 
 5872      00
 5873              	.LASF95:
 5874 0b2b 6873696F 		.ascii	"hsiomBase\000"
 5874      6D426173 
 5874      6500
 5875              	.LASF218:
 5876 0b35 6D617374 		.ascii	"masterRdDir\000"
 5876      65725264 
 5876      44697200 
 5877              	.LASF348:
 5878 0b41 6D656D73 		.ascii	"memset\000"
 5878      657400
 5879              	.LASF145:
 5880 0b48 70657269 		.ascii	"periTrGrOffset\000"
 5880      54724772 
 5880      4F666673 
 5880      657400
 5881              	.LASF115:
 5882 0b57 63707573 		.ascii	"cpussNotConnectedIrq\000"
 5882      734E6F74 
 5882      436F6E6E 
 5882      65637465 
 5882      64497271 
 5883              	.LASF317:
 5884 0b6c 4C43445F 		.ascii	"LCD_Print\000"
 5884      5072696E 
 5884      7400
 5885              	.LASF241:
 5886 0b76 72785269 		.ascii	"rxRingBufHead\000"
 5886      6E674275 
 5886      66486561 
 5886      6400
 5887              	.LASF111:
 5888 0b84 63707573 		.ascii	"cpussDwChNr\000"
 5888      73447743 
 5888      684E7200 
 5889              	.LASF263:
 5890 0b90 72656C6F 		.ascii	"reloadInputMode\000"
 5890      6164496E 
 5890      7075744D 
 5890      6F646500 
 5891              	.LASF318:
 5892 0ba0 73697A65 		.ascii	"size\000"
 5892      00
 5893              	.LASF336:
 5894 0ba5 5F726F77 		.ascii	"_rows\000"
 5894      7300
 5895              	.LASF247:
 5896 0bab 74784275 		.ascii	"txBufSize\000"
 5896      6653697A 
 5896      6500
ARM GAS  C:\Users\guill\AppData\Local\Temp\cclz5xua.s 			page 143


 5897              	.LASF297:
 5898 0bb5 636F6D6D 		.ascii	"command\000"
 5898      616E6400 
 5899              	.LASF109:
 5900 0bbd 63707573 		.ascii	"cpussIpcNr\000"
 5900      73497063 
 5900      4E7200
 5901              	.LASF162:
 5902 0bc8 63707573 		.ascii	"cpussCm4StatusOffset\000"
 5902      73436D34 
 5902      53746174 
 5902      75734F66 
 5902      66736574 
 5903              	.LASF198:
 5904 0bdd 63795F65 		.ascii	"cy_en_scb_i2c_command_t\000"
 5904      6E5F7363 
 5904      625F6932 
 5904      635F636F 
 5904      6D6D616E 
 5905              	.LASF231:
 5906 0bf5 736C6176 		.ascii	"slaveRxBufferIdx\000"
 5906      65527842 
 5906      75666665 
 5906      72496478 
 5906      00
 5907              	.LASF173:
 5908 0c06 63707573 		.ascii	"cpussRam2Ctl0\000"
 5908      7352616D 
 5908      3243746C 
 5908      3000
 5909              	.LASF217:
 5910 0c14 6D617374 		.ascii	"masterPause\000"
 5910      65725061 
 5910      75736500 
 5911              	.LASF346:
 5912 0c20 43795F53 		.ascii	"Cy_SCB_I2C_Enable\000"
 5912      43425F49 
 5912      32435F45 
 5912      6E61626C 
 5912      6500
 5913              	.LASF84:
 5914 0c32 494E5452 		.ascii	"INTR_RX\000"
 5914      5F525800 
 5915              	.LASF246:
 5916 0c3a 74784275 		.ascii	"txBuf\000"
 5916      6600
 5917              	.LASF183:
 5918 0c40 43595F53 		.ascii	"CY_SCB_I2C_MASTER_MANUAL_TIMEOUT\000"
 5918      43425F49 
 5918      32435F4D 
 5918      41535445 
 5918      525F4D41 
 5919              	.LASF299:
 5920 0c61 73657452 		.ascii	"setReg\000"
 5920      656700
 5921              	.LASF230:
 5922 0c68 736C6176 		.ascii	"slaveRxBufferSize\000"
ARM GAS  C:\Users\guill\AppData\Local\Temp\cclz5xua.s 			page 144


 5922      65527842 
 5922      75666665 
 5922      7253697A 
 5922      6500
 5923              	.LASF332:
 5924 0c7a 5F637572 		.ascii	"_currLine\000"
 5924      724C696E 
 5924      6500
 5925              	.LASF308:
 5926 0c84 67726565 		.ascii	"green\000"
 5926      6E00
 5927              	.LASF6:
 5928 0c8a 73686F72 		.ascii	"short unsigned int\000"
 5928      7420756E 
 5928      7369676E 
 5928      65642069 
 5928      6E7400
 5929              	.LASF209:
 5930 0c9d 656E6162 		.ascii	"enableDigitalFilter\000"
 5930      6C654469 
 5930      67697461 
 5930      6C46696C 
 5930      74657200 
 5931              	.LASF239:
 5932 0cb1 72785269 		.ascii	"rxRingBuf\000"
 5932      6E674275 
 5932      6600
 5933              	.LASF13:
 5934 0cbb 6C6F6E67 		.ascii	"long double\000"
 5934      20646F75 
 5934      626C6500 
 5935              	.LASF321:
 5936 0cc7 50574D5F 		.ascii	"PWM_Blue_config\000"
 5936      426C7565 
 5936      5F636F6E 
 5936      66696700 
 5937              	.LASF18:
 5938 0cd7 75696E74 		.ascii	"uint16_t\000"
 5938      31365F74 
 5938      00
 5939              	.LASF61:
 5940 0ce0 494E5452 		.ascii	"INTR_I2C_EC_MASK\000"
 5940      5F493243 
 5940      5F45435F 
 5940      4D41534B 
 5940      00
 5941              	.LASF286:
 5942 0cf1 63795F73 		.ascii	"cy_stc_tcpwm_pwm_config_t\000"
 5942      74635F74 
 5942      6370776D 
 5942      5F70776D 
 5942      5F636F6E 
 5943              	.LASF254:
 5944 0d0b 72756E4D 		.ascii	"runMode\000"
 5944      6F646500 
 5945              	.LASF144:
 5946 0d13 70657269 		.ascii	"periTrCmdGrSelMsk\000"
ARM GAS  C:\Users\guill\AppData\Local\Temp\cclz5xua.s 			page 145


 5946      5472436D 
 5946      64477253 
 5946      656C4D73 
 5946      6B00
 5947              	.LASF184:
 5948 0d25 43595F53 		.ascii	"CY_SCB_I2C_MASTER_MANUAL_ADDR_NAK\000"
 5948      43425F49 
 5948      32435F4D 
 5948      41535445 
 5948      525F4D41 
 5949              	.LASF219:
 5950 0d47 6D617374 		.ascii	"masterBuffer\000"
 5950      65724275 
 5950      66666572 
 5950      00
 5951              	.LASF118:
 5952 0d54 73727373 		.ascii	"srssNumHfroot\000"
 5952      4E756D48 
 5952      66726F6F 
 5952      7400
 5953              	.LASF187:
 5954 0d62 43595F53 		.ascii	"CY_SCB_I2C_MASTER_MANUAL_BUS_ERR\000"
 5954      43425F49 
 5954      32435F4D 
 5954      41535445 
 5954      525F4D41 
 5955              	.LASF102:
 5956 0d83 64775665 		.ascii	"dwVersion\000"
 5956      7273696F 
 5956      6E00
 5957              	.LASF66:
 5958 0d8d 494E5452 		.ascii	"INTR_SPI_EC_MASK\000"
 5958      5F535049 
 5958      5F45435F 
 5958      4D41534B 
 5958      00
 5959              	.LASF143:
 5960 0d9e 70657269 		.ascii	"periTrCmdOffset\000"
 5960      5472436D 
 5960      644F6666 
 5960      73657400 
 5961              	.LASF233:
 5962 0dae 63624164 		.ascii	"cbAddr\000"
 5962      647200
 5963              	.LASF14:
 5964 0db5 73697A65 		.ascii	"sizetype\000"
 5964      74797065 
 5964      00
 5965              	.LASF37:
 5966 0dbe 4932435F 		.ascii	"I2C_S_CMD\000"
 5966      535F434D 
 5966      4400
 5967              	.LASF169:
 5968 0dc8 63707573 		.ascii	"cpussCm4NmiCtlOffset\000"
 5968      73436D34 
 5968      4E6D6943 
 5968      746C4F66 
ARM GAS  C:\Users\guill\AppData\Local\Temp\cclz5xua.s 			page 146


 5968      66736574 
 5969              	.LASF256:
 5970 0ddd 636F6D70 		.ascii	"compareOrCapture\000"
 5970      6172654F 
 5970      72436170 
 5970      74757265 
 5970      00
 5971              	.LASF151:
 5972 0dee 70657269 		.ascii	"periDiv8CtlOffset\000"
 5972      44697638 
 5972      43746C4F 
 5972      66667365 
 5972      7400
 5973              	.LASF33:
 5974 0e00 52455345 		.ascii	"RESERVED2\000"
 5974      52564544 
 5974      3200
 5975              	.LASF39:
 5976 0e0a 52455345 		.ascii	"RESERVED3\000"
 5976      52564544 
 5976      3300
 5977              	.LASF43:
 5978 0e14 52455345 		.ascii	"RESERVED4\000"
 5978      52564544 
 5978      3400
 5979              	.LASF45:
 5980 0e1e 52455345 		.ascii	"RESERVED5\000"
 5980      52564544 
 5980      3500
 5981              	.LASF49:
 5982 0e28 52455345 		.ascii	"RESERVED6\000"
 5982      52564544 
 5982      3600
 5983              	.LASF51:
 5984 0e32 52455345 		.ascii	"RESERVED7\000"
 5984      52564544 
 5984      3700
 5985              	.LASF54:
 5986 0e3c 52455345 		.ascii	"RESERVED8\000"
 5986      52564544 
 5986      3800
 5987              	.LASF56:
 5988 0e46 52455345 		.ascii	"RESERVED9\000"
 5988      52564544 
 5988      3900
 5989              	.LASF152:
 5990 0e50 70657269 		.ascii	"periDiv16CtlOffset\000"
 5990      44697631 
 5990      3643746C 
 5990      4F666673 
 5990      657400
 5991              	.LASF192:
 5992 0e63 43595F53 		.ascii	"CY_SCB_I2C_MASTER_SLAVE\000"
 5992      43425F49 
 5992      32435F4D 
 5992      41535445 
 5992      525F534C 
ARM GAS  C:\Users\guill\AppData\Local\Temp\cclz5xua.s 			page 147


 5993              	.LASF260:
 5994 0e7b 696E7465 		.ascii	"interruptSources\000"
 5994      72727570 
 5994      74536F75 
 5994      72636573 
 5994      00
 5995              	.LASF259:
 5996 0e8c 656E6162 		.ascii	"enableCompareSwap\000"
 5996      6C65436F 
 5996      6D706172 
 5996      65537761 
 5996      7000
 5997              	.LASF7:
 5998 0e9e 6C6F6E67 		.ascii	"long int\000"
 5998      20696E74 
 5998      00
 5999              	.LASF305:
 6000 0ea7 4C43445F 		.ascii	"LCD_Autoscroll\000"
 6000      4175746F 
 6000      7363726F 
 6000      6C6C00
 6001              	.LASF100:
 6002 0eb6 63707573 		.ascii	"cpussVersion\000"
 6002      73566572 
 6002      73696F6E 
 6002      00
 6003              	.LASF35:
 6004 0ec3 4932435F 		.ascii	"I2C_STATUS\000"
 6004      53544154 
 6004      555300
 6005              	.LASF269:
 6006 0ece 636F756E 		.ascii	"countInputMode\000"
 6006      74496E70 
 6006      75744D6F 
 6006      646500
 6007              	.LASF104:
 6008 0edd 6770696F 		.ascii	"gpioVersion\000"
 6008      56657273 
 6008      696F6E00 
 6009              	.LASF82:
 6010 0ee9 494E5452 		.ascii	"INTR_TX_MASKED\000"
 6010      5F54585F 
 6010      4D41534B 
 6010      454400
 6011              	.LASF103:
 6012 0ef8 666C6173 		.ascii	"flashcVersion\000"
 6012      68635665 
 6012      7273696F 
 6012      6E00
 6013              	.LASF125:
 6014 0f06 70726F74 		.ascii	"protBusMasterMask\000"
 6014      4275734D 
 6014      61737465 
 6014      724D6173 
 6014      6B00
 6015              	.LASF94:
 6016 0f18 70726F74 		.ascii	"protBase\000"
ARM GAS  C:\Users\guill\AppData\Local\Temp\cclz5xua.s 			page 148


 6016      42617365 
 6016      00
 6017              	.LASF255:
 6018 0f21 636F756E 		.ascii	"countDirection\000"
 6018      74446972 
 6018      65637469 
 6018      6F6E00
 6019              	.LASF185:
 6020 0f30 43595F53 		.ascii	"CY_SCB_I2C_MASTER_MANUAL_NAK\000"
 6020      43425F49 
 6020      32435F4D 
 6020      41535445 
 6020      525F4D41 
 6021              	.LASF309:
 6022 0f4d 626C7565 		.ascii	"blue\000"
 6022      00
 6023              	.LASF79:
 6024 0f52 494E5452 		.ascii	"INTR_TX\000"
 6024      5F545800 
 6025              	.LASF31:
 6026 0f5a 55415254 		.ascii	"UART_RX_STATUS\000"
 6026      5F52585F 
 6026      53544154 
 6026      555300
 6027              	.LASF304:
 6028 0f69 4C43445F 		.ascii	"LCD_Cursor\000"
 6028      43757273 
 6028      6F7200
 6029              	.LASF248:
 6030 0f74 74784C65 		.ascii	"txLeftToTransmit\000"
 6030      6674546F 
 6030      5472616E 
 6030      736D6974 
 6030      00
 6031              	.LASF313:
 6032 0f85 4C43445F 		.ascii	"LCD_Start\000"
 6032      53746172 
 6032      7400
 6033              	.LASF293:
 6034 0f8f 52696768 		.ascii	"Right\000"
 6034      7400
 6035              	.LASF164:
 6036 0f95 63707573 		.ascii	"cpussCm4PwrCtlOffset\000"
 6036      73436D34 
 6036      50777243 
 6036      746C4F66 
 6036      66736574 
 6037              	.LASF2:
 6038 0faa 5F5F7569 		.ascii	"__uint8_t\000"
 6038      6E74385F 
 6038      7400
 6039              	.LASF41:
 6040 0fb4 54585F46 		.ascii	"TX_FIFO_CTRL\000"
 6040      49464F5F 
 6040      4354524C 
 6040      00
 6041              	.LASF194:
ARM GAS  C:\Users\guill\AppData\Local\Temp\cclz5xua.s 			page 149


 6042 0fc1 43595F53 		.ascii	"CY_SCB_I2C_WRITE_XFER\000"
 6042      43425F49 
 6042      32435F57 
 6042      52495445 
 6042      5F584645 
 6043              	.LASF67:
 6044 0fd7 494E5452 		.ascii	"INTR_SPI_EC_MASKED\000"
 6044      5F535049 
 6044      5F45435F 
 6044      4D41534B 
 6044      454400
 6045              	.LASF339:
 6046 0fea 43795F53 		.ascii	"Cy_SCB_I2C_MasterSendStart\000"
 6046      43425F49 
 6046      32435F4D 
 6046      61737465 
 6046      7253656E 
 6047              	.LASF25:
 6048 1005 5350495F 		.ascii	"SPI_CTRL\000"
 6048      4354524C 
 6048      00
 6049              	.LASF161:
 6050 100e 63707573 		.ascii	"cpussCm4ClockCtlOffset\000"
 6050      73436D34 
 6050      436C6F63 
 6050      6B43746C 
 6050      4F666673 
 6051              	.LASF46:
 6052 1025 52585F43 		.ascii	"RX_CTRL\000"
 6052      54524C00 
 6053              	.LASF285:
 6054 102d 6B696C6C 		.ascii	"killInput\000"
 6054      496E7075 
 6054      7400
 6055              	.LASF166:
 6056 1037 63707573 		.ascii	"cpussTrimRomCtlOffset\000"
 6056      73547269 
 6056      6D526F6D 
 6056      43746C4F 
 6056      66667365 
 6057              	.LASF189:
 6058 104d 63795F65 		.ascii	"cy_en_scb_i2c_status_t\000"
 6058      6E5F7363 
 6058      625F6932 
 6058      635F7374 
 6058      61747573 
 6059              	.LASF288:
 6060 1064 47726565 		.ascii	"Green\000"
 6060      6E00
 6061              	.LASF34:
 6062 106a 4932435F 		.ascii	"I2C_CTRL\000"
 6062      4354524C 
 6062      00
 6063              	.LASF105:
 6064 1073 6873696F 		.ascii	"hsiomVersion\000"
 6064      6D566572 
 6064      73696F6E 
ARM GAS  C:\Users\guill\AppData\Local\Temp\cclz5xua.s 			page 150


 6064      00
 6065              	.LASF9:
 6066 1080 6C6F6E67 		.ascii	"long unsigned int\000"
 6066      20756E73 
 6066      69676E65 
 6066      6420696E 
 6066      7400
 6067              	.LASF69:
 6068 1092 494E5452 		.ascii	"INTR_M\000"
 6068      5F4D00
 6069              	.LASF314:
 6070 1099 6D617374 		.ascii	"master\000"
 6070      657200
 6071              	.LASF74:
 6072 10a0 494E5452 		.ascii	"INTR_S\000"
 6072      5F5300
 6073              	.LASF205:
 6074 10a7 736C6176 		.ascii	"slaveAddressMask\000"
 6074      65416464 
 6074      72657373 
 6074      4D61736B 
 6074      00
 6075              	.LASF71:
 6076 10b8 494E5452 		.ascii	"INTR_M_MASK\000"
 6076      5F4D5F4D 
 6076      41534B00 
 6077              	.LASF311:
 6078 10c4 4C43445F 		.ascii	"LCD_SetCursor\000"
 6078      53657443 
 6078      7572736F 
 6078      7200
 6079              	.LASF215:
 6080 10d2 73746174 		.ascii	"state\000"
 6080      6500
 6081              	.LASF329:
 6082 10d8 5F73686F 		.ascii	"_showMode\000"
 6082      774D6F64 
 6082      6500
 6083              	.LASF163:
 6084 10e2 63707573 		.ascii	"cpussCm0StatusOffset\000"
 6084      73436D30 
 6084      53746174 
 6084      75734F66 
 6084      66736574 
 6085              	.LASF204:
 6086 10f7 736C6176 		.ascii	"slaveAddress\000"
 6086      65416464 
 6086      72657373 
 6086      00
 6087              	.LASF26:
 6088 1104 5350495F 		.ascii	"SPI_STATUS\000"
 6088      53544154 
 6088      555300
 6089              	.LASF1:
 6090 110f 756E7369 		.ascii	"unsigned char\000"
 6090      676E6564 
 6090      20636861 
ARM GAS  C:\Users\guill\AppData\Local\Temp\cclz5xua.s 			page 151


 6090      7200
 6091              	.LASF8:
 6092 111d 5F5F7569 		.ascii	"__uint32_t\000"
 6092      6E743332 
 6092      5F7400
 6093              	.LASF175:
 6094 1128 6970634C 		.ascii	"ipcLockStatusOffset\000"
 6094      6F636B53 
 6094      74617475 
 6094      734F6666 
 6094      73657400 
 6095              	.LASF324:
 6096 113c 4932435F 		.ascii	"I2C_context\000"
 6096      636F6E74 
 6096      65787400 
 6097              	.LASF270:
 6098 1148 636F756E 		.ascii	"countInput\000"
 6098      74496E70 
 6098      757400
 6099              	.LASF156:
 6100 1153 6770696F 		.ascii	"gpioPrtCfgOffset\000"
 6100      50727443 
 6100      66674F66 
 6100      66736574 
 6100      00
 6101              	.LASF268:
 6102 1164 73746F70 		.ascii	"stopInput\000"
 6102      496E7075 
 6102      7400
 6103              	.LASF58:
 6104 116e 52455345 		.ascii	"RESERVED10\000"
 6104      52564544 
 6104      313000
 6105              	.LASF60:
 6106 1179 52455345 		.ascii	"RESERVED11\000"
 6106      52564544 
 6106      313100
 6107              	.LASF63:
 6108 1184 52455345 		.ascii	"RESERVED12\000"
 6108      52564544 
 6108      313200
 6109              	.LASF65:
 6110 118f 52455345 		.ascii	"RESERVED13\000"
 6110      52564544 
 6110      313300
 6111              	.LASF68:
 6112 119a 52455345 		.ascii	"RESERVED14\000"
 6112      52564544 
 6112      313400
 6113              	.LASF73:
 6114 11a5 52455345 		.ascii	"RESERVED15\000"
 6114      52564544 
 6114      313500
 6115              	.LASF78:
 6116 11b0 52455345 		.ascii	"RESERVED16\000"
 6116      52564544 
 6116      313600
ARM GAS  C:\Users\guill\AppData\Local\Temp\cclz5xua.s 			page 152


 6117              	.LASF83:
 6118 11bb 52455345 		.ascii	"RESERVED17\000"
 6118      52564544 
 6118      313700
 6119              	.LASF48:
 6120 11c6 52585F46 		.ascii	"RX_FIFO_STATUS\000"
 6120      49464F5F 
 6120      53544154 
 6120      555300
 6121              	.LASF327:
 6122 11d5 5F73686F 		.ascii	"_showFunction\000"
 6122      7746756E 
 6122      6374696F 
 6122      6E00
 6123              	.LASF300:
 6124 11e3 61646472 		.ascii	"addr\000"
 6124      00
 6125              	.LASF281:
 6126 11e8 6B696C6C 		.ascii	"killMode\000"
 6126      4D6F6465 
 6126      00
 6127              	.LASF44:
 6128 11f1 54585F46 		.ascii	"TX_FIFO_WR\000"
 6128      49464F5F 
 6128      575200
 6129              	.LASF302:
 6130 11fc 4C43445F 		.ascii	"LCD_Display\000"
 6130      44697370 
 6130      6C617900 
 6131              	.LASF316:
 6132 1208 696E6974 		.ascii	"init_status\000"
 6132      5F737461 
 6132      74757300 
 6133              	.LASF127:
 6134 1214 666C6173 		.ascii	"flashRwwRequired\000"
 6134      68527777 
 6134      52657175 
 6134      69726564 
 6134      00
 6135              	.LASF40:
 6136 1225 54585F43 		.ascii	"TX_CTRL\000"
 6136      54524C00 
 6137              	.LASF122:
 6138 122d 65704D6F 		.ascii	"epMonitorNr\000"
 6138      6E69746F 
 6138      724E7200 
 6139              	.LASF320:
 6140 1239 55415254 		.ascii	"UART_context\000"
 6140      5F636F6E 
 6140      74657874 
 6140      00
 6141              	.LASF341:
 6142 1246 43795F53 		.ascii	"Cy_SCB_I2C_Init\000"
 6142      43425F49 
 6142      32435F49 
 6142      6E697400 
 6143              	.LASF306:
ARM GAS  C:\Users\guill\AppData\Local\Temp\cclz5xua.s 			page 153


 6144 1256 4C43445F 		.ascii	"LCD_Scroll\000"
 6144      5363726F 
 6144      6C6C00
 6145              	.LASF0:
 6146 1261 7369676E 		.ascii	"signed char\000"
 6146      65642063 
 6146      68617200 
 6147              	.LASF252:
 6148 126d 70657269 		.ascii	"period\000"
 6148      6F6400
 6149              	.LASF137:
 6150 1274 64774368 		.ascii	"dwChOffset\000"
 6150      4F666673 
 6150      657400
 6151              	.LASF28:
 6152 127f 55415254 		.ascii	"UART_CTRL\000"
 6152      5F435452 
 6152      4C00
 6153              	.LASF110:
 6154 1289 63707573 		.ascii	"cpussIpcIrqNr\000"
 6154      73497063 
 6154      4972714E 
 6154      7200
 6155              	.LASF86:
 6156 1297 494E5452 		.ascii	"INTR_RX_MASK\000"
 6156      5F52585F 
 6156      4D41534B 
 6156      00
 6157              	.LASF140:
 6158 12a4 64774368 		.ascii	"dwChCtlPreemptablePos\000"
 6158      43746C50 
 6158      7265656D 
 6158      70746162 
 6158      6C65506F 
 6159              	.LASF287:
 6160 12ba 57686974 		.ascii	"White\000"
 6160      6500
 6161              	.LASF22:
 6162 12c0 434D445F 		.ascii	"CMD_RESP_CTRL\000"
 6162      52455350 
 6162      5F435452 
 6162      4C00
 6163              	.LASF176:
 6164 12ce 63795F73 		.ascii	"cy_stc_device_t\000"
 6164      74635F64 
 6164      65766963 
 6164      655F7400 
 6165              	.LASF201:
 6166 12de 6932634D 		.ascii	"i2cMode\000"
 6166      6F646500 
 6167              	.LASF331:
 6168 12e6 5F6E756D 		.ascii	"_numLines\000"
 6168      4C696E65 
 6168      7300
 6169              	.LASF107:
 6170 12f0 70657269 		.ascii	"periVersion\000"
 6170      56657273 
ARM GAS  C:\Users\guill\AppData\Local\Temp\cclz5xua.s 			page 154


 6170      696F6E00 
 6171              	.LASF178:
 6172 12fc 646F7562 		.ascii	"double\000"
 6172      6C6500
 6173              	.LASF330:
 6174 1303 5F696E69 		.ascii	"_initialized\000"
 6174      7469616C 
 6174      697A6564 
 6174      00
 6175              	.LASF134:
 6176 1310 666C6173 		.ascii	"flashCtlMainWs2Freq\000"
 6176      6843746C 
 6176      4D61696E 
 6176      57733246 
 6176      72657100 
 6177              	.LASF85:
 6178 1324 494E5452 		.ascii	"INTR_RX_SET\000"
 6178      5F52585F 
 6178      53455400 
 6179              	.LASF27:
 6180 1330 52455345 		.ascii	"RESERVED1\000"
 6180      52564544 
 6180      3100
 6181              	.LASF116:
 6182 133a 73727373 		.ascii	"srssNumClkpath\000"
 6182      4E756D43 
 6182      6C6B7061 
 6182      746800
 6183              	.LASF21:
 6184 1349 53544154 		.ascii	"STATUS\000"
 6184      555300
 6185              	.LASF234:
 6186 1350 63795F73 		.ascii	"cy_stc_scb_i2c_context_t\000"
 6186      74635F73 
 6186      63625F69 
 6186      32635F63 
 6186      6F6E7465 
 6187              	.LASF136:
 6188 1369 666C6173 		.ascii	"flashCtlMainWs4Freq\000"
 6188      6843746C 
 6188      4D61696E 
 6188      57733446 
 6188      72657100 
 6189              	.LASF303:
 6190 137d 4C43445F 		.ascii	"LCD_Blink\000"
 6190      426C696E 
 6190      6B00
 6191              	.LASF52:
 6192 1387 52585F46 		.ascii	"RX_FIFO_RD\000"
 6192      49464F5F 
 6192      524400
 6193              	.LASF55:
 6194 1392 455A5F44 		.ascii	"EZ_DATA\000"
 6194      41544100 
 6195              	.LASF106:
 6196 139a 69706356 		.ascii	"ipcVersion\000"
 6196      65727369 
ARM GAS  C:\Users\guill\AppData\Local\Temp\cclz5xua.s 			page 155


 6196      6F6E00
 6197              	.LASF244:
 6198 13a5 72784275 		.ascii	"rxBufSize\000"
 6198      6653697A 
 6198      6500
 6199              	.LASF20:
 6200 13af 4354524C 		.ascii	"CTRL\000"
 6200      00
 6201              		.ident	"GCC: (GNU Tools for ARM Embedded Processors) 5.4.1 20160609 (release) [ARM/embedded-5-bran
