ARM GAS  C:\Users\guill\AppData\Local\Temp\ccAVXgUz.s 			page 1


   1              		.syntax unified
   2              		.cpu cortex-m4
   3              		.eabi_attribute 27, 1
   4              		.fpu fpv4-sp-d16
   5              		.eabi_attribute 20, 1
   6              		.eabi_attribute 21, 1
   7              		.eabi_attribute 23, 3
   8              		.eabi_attribute 24, 1
   9              		.eabi_attribute 25, 1
  10              		.eabi_attribute 26, 1
  11              		.eabi_attribute 30, 1
  12              		.eabi_attribute 34, 1
  13              		.eabi_attribute 18, 4
  14              		.thumb
  15              		.syntax unified
  16              		.file	"main_cm4.c"
  17              		.text
  18              	.Ltext0:
  19              		.cfi_sections	.debug_frame
  20              		.global	__aeabi_f2d
  21              		.section	.text.main,"ax",%progbits
  22              		.align	2
  23              		.global	main
  24              		.thumb
  25              		.thumb_func
  26              		.type	main, %function
  27              	main:
  28              	.LFB509:
  29              		.file 1 "main_cm4.c"
   1:main_cm4.c    **** #include "project.h"
   2:main_cm4.c    **** #include "ADXL.h"
   3:main_cm4.c    **** #include "DRF0554.h"
   4:main_cm4.c    **** #include <stdio.h>
   5:main_cm4.c    **** 
   6:main_cm4.c    **** float x,y,z;
   7:main_cm4.c    **** 
   8:main_cm4.c    **** int main(void)
   9:main_cm4.c    **** {    
  30              		.loc 1 9 0
  31              		.cfi_startproc
  32              		@ args = 0, pretend = 0, frame = 24
  33              		@ frame_needed = 0, uses_anonymous_args = 0
  34 0000 70B5     		push	{r4, r5, r6, lr}
  35              		.cfi_def_cfa_offset 16
  36              		.cfi_offset 4, -16
  37              		.cfi_offset 5, -12
  38              		.cfi_offset 6, -8
  39              		.cfi_offset 14, -4
  40 0002 86B0     		sub	sp, sp, #24
  41              		.cfi_def_cfa_offset 40
  42              	.LBB4:
  43              	.LBB5:
  44              		.file 2 "Generated_Source\\PSoC6\\pdl\\cmsis/include/cmsis_gcc.h"
   1:Generated_Source\PSoC6\pdl\cmsis/include/cmsis_gcc.h **** /**************************************************************************//**
   2:Generated_Source\PSoC6\pdl\cmsis/include/cmsis_gcc.h ****  * @file     cmsis_gcc.h
   3:Generated_Source\PSoC6\pdl\cmsis/include/cmsis_gcc.h ****  * @brief    CMSIS compiler GCC header file
   4:Generated_Source\PSoC6\pdl\cmsis/include/cmsis_gcc.h ****  * @version  V5.0.3
ARM GAS  C:\Users\guill\AppData\Local\Temp\ccAVXgUz.s 			page 2


   5:Generated_Source\PSoC6\pdl\cmsis/include/cmsis_gcc.h ****  * @date     16. January 2018
   6:Generated_Source\PSoC6\pdl\cmsis/include/cmsis_gcc.h ****  ******************************************************************************/
   7:Generated_Source\PSoC6\pdl\cmsis/include/cmsis_gcc.h **** /*
   8:Generated_Source\PSoC6\pdl\cmsis/include/cmsis_gcc.h ****  * Copyright (c) 2009-2017 ARM Limited. All rights reserved.
   9:Generated_Source\PSoC6\pdl\cmsis/include/cmsis_gcc.h ****  *
  10:Generated_Source\PSoC6\pdl\cmsis/include/cmsis_gcc.h ****  * SPDX-License-Identifier: Apache-2.0
  11:Generated_Source\PSoC6\pdl\cmsis/include/cmsis_gcc.h ****  *
  12:Generated_Source\PSoC6\pdl\cmsis/include/cmsis_gcc.h ****  * Licensed under the Apache License, Version 2.0 (the License); you may
  13:Generated_Source\PSoC6\pdl\cmsis/include/cmsis_gcc.h ****  * not use this file except in compliance with the License.
  14:Generated_Source\PSoC6\pdl\cmsis/include/cmsis_gcc.h ****  * You may obtain a copy of the License at
  15:Generated_Source\PSoC6\pdl\cmsis/include/cmsis_gcc.h ****  *
  16:Generated_Source\PSoC6\pdl\cmsis/include/cmsis_gcc.h ****  * www.apache.org/licenses/LICENSE-2.0
  17:Generated_Source\PSoC6\pdl\cmsis/include/cmsis_gcc.h ****  *
  18:Generated_Source\PSoC6\pdl\cmsis/include/cmsis_gcc.h ****  * Unless required by applicable law or agreed to in writing, software
  19:Generated_Source\PSoC6\pdl\cmsis/include/cmsis_gcc.h ****  * distributed under the License is distributed on an AS IS BASIS, WITHOUT
  20:Generated_Source\PSoC6\pdl\cmsis/include/cmsis_gcc.h ****  * WARRANTIES OR CONDITIONS OF ANY KIND, either express or implied.
  21:Generated_Source\PSoC6\pdl\cmsis/include/cmsis_gcc.h ****  * See the License for the specific language governing permissions and
  22:Generated_Source\PSoC6\pdl\cmsis/include/cmsis_gcc.h ****  * limitations under the License.
  23:Generated_Source\PSoC6\pdl\cmsis/include/cmsis_gcc.h ****  */
  24:Generated_Source\PSoC6\pdl\cmsis/include/cmsis_gcc.h **** 
  25:Generated_Source\PSoC6\pdl\cmsis/include/cmsis_gcc.h **** #ifndef __CMSIS_GCC_H
  26:Generated_Source\PSoC6\pdl\cmsis/include/cmsis_gcc.h **** #define __CMSIS_GCC_H
  27:Generated_Source\PSoC6\pdl\cmsis/include/cmsis_gcc.h **** 
  28:Generated_Source\PSoC6\pdl\cmsis/include/cmsis_gcc.h **** /* ignore some GCC warnings */
  29:Generated_Source\PSoC6\pdl\cmsis/include/cmsis_gcc.h **** #pragma GCC diagnostic push
  30:Generated_Source\PSoC6\pdl\cmsis/include/cmsis_gcc.h **** #pragma GCC diagnostic ignored "-Wsign-conversion"
  31:Generated_Source\PSoC6\pdl\cmsis/include/cmsis_gcc.h **** #pragma GCC diagnostic ignored "-Wconversion"
  32:Generated_Source\PSoC6\pdl\cmsis/include/cmsis_gcc.h **** #pragma GCC diagnostic ignored "-Wunused-parameter"
  33:Generated_Source\PSoC6\pdl\cmsis/include/cmsis_gcc.h **** 
  34:Generated_Source\PSoC6\pdl\cmsis/include/cmsis_gcc.h **** /* Fallback for __has_builtin */
  35:Generated_Source\PSoC6\pdl\cmsis/include/cmsis_gcc.h **** #ifndef __has_builtin
  36:Generated_Source\PSoC6\pdl\cmsis/include/cmsis_gcc.h ****   #define __has_builtin(x) (0)
  37:Generated_Source\PSoC6\pdl\cmsis/include/cmsis_gcc.h **** #endif
  38:Generated_Source\PSoC6\pdl\cmsis/include/cmsis_gcc.h **** 
  39:Generated_Source\PSoC6\pdl\cmsis/include/cmsis_gcc.h **** /* CMSIS compiler specific defines */
  40:Generated_Source\PSoC6\pdl\cmsis/include/cmsis_gcc.h **** #ifndef   __ASM
  41:Generated_Source\PSoC6\pdl\cmsis/include/cmsis_gcc.h ****   #define __ASM                                  __asm
  42:Generated_Source\PSoC6\pdl\cmsis/include/cmsis_gcc.h **** #endif
  43:Generated_Source\PSoC6\pdl\cmsis/include/cmsis_gcc.h **** #ifndef   __INLINE
  44:Generated_Source\PSoC6\pdl\cmsis/include/cmsis_gcc.h ****   #define __INLINE                               inline
  45:Generated_Source\PSoC6\pdl\cmsis/include/cmsis_gcc.h **** #endif
  46:Generated_Source\PSoC6\pdl\cmsis/include/cmsis_gcc.h **** #ifndef   __STATIC_INLINE
  47:Generated_Source\PSoC6\pdl\cmsis/include/cmsis_gcc.h ****   #define __STATIC_INLINE                        static inline
  48:Generated_Source\PSoC6\pdl\cmsis/include/cmsis_gcc.h **** #endif
  49:Generated_Source\PSoC6\pdl\cmsis/include/cmsis_gcc.h **** #ifndef   __STATIC_FORCEINLINE                 
  50:Generated_Source\PSoC6\pdl\cmsis/include/cmsis_gcc.h ****   #define __STATIC_FORCEINLINE                   __attribute__((always_inline)) static inline
  51:Generated_Source\PSoC6\pdl\cmsis/include/cmsis_gcc.h **** #endif                                           
  52:Generated_Source\PSoC6\pdl\cmsis/include/cmsis_gcc.h **** #ifndef   __NO_RETURN
  53:Generated_Source\PSoC6\pdl\cmsis/include/cmsis_gcc.h ****   #define __NO_RETURN                            __attribute__((__noreturn__))
  54:Generated_Source\PSoC6\pdl\cmsis/include/cmsis_gcc.h **** #endif
  55:Generated_Source\PSoC6\pdl\cmsis/include/cmsis_gcc.h **** #ifndef   __USED
  56:Generated_Source\PSoC6\pdl\cmsis/include/cmsis_gcc.h ****   #define __USED                                 __attribute__((used))
  57:Generated_Source\PSoC6\pdl\cmsis/include/cmsis_gcc.h **** #endif
  58:Generated_Source\PSoC6\pdl\cmsis/include/cmsis_gcc.h **** #ifndef   __WEAK
  59:Generated_Source\PSoC6\pdl\cmsis/include/cmsis_gcc.h ****   #define __WEAK                                 __attribute__((weak))
  60:Generated_Source\PSoC6\pdl\cmsis/include/cmsis_gcc.h **** #endif
  61:Generated_Source\PSoC6\pdl\cmsis/include/cmsis_gcc.h **** #ifndef   __PACKED
ARM GAS  C:\Users\guill\AppData\Local\Temp\ccAVXgUz.s 			page 3


  62:Generated_Source\PSoC6\pdl\cmsis/include/cmsis_gcc.h ****   #define __PACKED                               __attribute__((packed, aligned(1)))
  63:Generated_Source\PSoC6\pdl\cmsis/include/cmsis_gcc.h **** #endif
  64:Generated_Source\PSoC6\pdl\cmsis/include/cmsis_gcc.h **** #ifndef   __PACKED_STRUCT
  65:Generated_Source\PSoC6\pdl\cmsis/include/cmsis_gcc.h ****   #define __PACKED_STRUCT                        struct __attribute__((packed, aligned(1)))
  66:Generated_Source\PSoC6\pdl\cmsis/include/cmsis_gcc.h **** #endif
  67:Generated_Source\PSoC6\pdl\cmsis/include/cmsis_gcc.h **** #ifndef   __PACKED_UNION
  68:Generated_Source\PSoC6\pdl\cmsis/include/cmsis_gcc.h ****   #define __PACKED_UNION                         union __attribute__((packed, aligned(1)))
  69:Generated_Source\PSoC6\pdl\cmsis/include/cmsis_gcc.h **** #endif
  70:Generated_Source\PSoC6\pdl\cmsis/include/cmsis_gcc.h **** #ifndef   __UNALIGNED_UINT32        /* deprecated */
  71:Generated_Source\PSoC6\pdl\cmsis/include/cmsis_gcc.h ****   #pragma GCC diagnostic push
  72:Generated_Source\PSoC6\pdl\cmsis/include/cmsis_gcc.h ****   #pragma GCC diagnostic ignored "-Wpacked"
  73:Generated_Source\PSoC6\pdl\cmsis/include/cmsis_gcc.h ****   #pragma GCC diagnostic ignored "-Wattributes"
  74:Generated_Source\PSoC6\pdl\cmsis/include/cmsis_gcc.h ****   struct __attribute__((packed)) T_UINT32 { uint32_t v; };
  75:Generated_Source\PSoC6\pdl\cmsis/include/cmsis_gcc.h ****   #pragma GCC diagnostic pop
  76:Generated_Source\PSoC6\pdl\cmsis/include/cmsis_gcc.h ****   #define __UNALIGNED_UINT32(x)                  (((struct T_UINT32 *)(x))->v)
  77:Generated_Source\PSoC6\pdl\cmsis/include/cmsis_gcc.h **** #endif
  78:Generated_Source\PSoC6\pdl\cmsis/include/cmsis_gcc.h **** #ifndef   __UNALIGNED_UINT16_WRITE
  79:Generated_Source\PSoC6\pdl\cmsis/include/cmsis_gcc.h ****   #pragma GCC diagnostic push
  80:Generated_Source\PSoC6\pdl\cmsis/include/cmsis_gcc.h ****   #pragma GCC diagnostic ignored "-Wpacked"
  81:Generated_Source\PSoC6\pdl\cmsis/include/cmsis_gcc.h ****   #pragma GCC diagnostic ignored "-Wattributes"
  82:Generated_Source\PSoC6\pdl\cmsis/include/cmsis_gcc.h ****   __PACKED_STRUCT T_UINT16_WRITE { uint16_t v; };
  83:Generated_Source\PSoC6\pdl\cmsis/include/cmsis_gcc.h ****   #pragma GCC diagnostic pop
  84:Generated_Source\PSoC6\pdl\cmsis/include/cmsis_gcc.h ****   #define __UNALIGNED_UINT16_WRITE(addr, val)    (void)((((struct T_UINT16_WRITE *)(void *)(addr))-
  85:Generated_Source\PSoC6\pdl\cmsis/include/cmsis_gcc.h **** #endif
  86:Generated_Source\PSoC6\pdl\cmsis/include/cmsis_gcc.h **** #ifndef   __UNALIGNED_UINT16_READ
  87:Generated_Source\PSoC6\pdl\cmsis/include/cmsis_gcc.h ****   #pragma GCC diagnostic push
  88:Generated_Source\PSoC6\pdl\cmsis/include/cmsis_gcc.h ****   #pragma GCC diagnostic ignored "-Wpacked"
  89:Generated_Source\PSoC6\pdl\cmsis/include/cmsis_gcc.h ****   #pragma GCC diagnostic ignored "-Wattributes"
  90:Generated_Source\PSoC6\pdl\cmsis/include/cmsis_gcc.h ****   __PACKED_STRUCT T_UINT16_READ { uint16_t v; };
  91:Generated_Source\PSoC6\pdl\cmsis/include/cmsis_gcc.h ****   #pragma GCC diagnostic pop
  92:Generated_Source\PSoC6\pdl\cmsis/include/cmsis_gcc.h ****   #define __UNALIGNED_UINT16_READ(addr)          (((const struct T_UINT16_READ *)(const void *)(add
  93:Generated_Source\PSoC6\pdl\cmsis/include/cmsis_gcc.h **** #endif
  94:Generated_Source\PSoC6\pdl\cmsis/include/cmsis_gcc.h **** #ifndef   __UNALIGNED_UINT32_WRITE
  95:Generated_Source\PSoC6\pdl\cmsis/include/cmsis_gcc.h ****   #pragma GCC diagnostic push
  96:Generated_Source\PSoC6\pdl\cmsis/include/cmsis_gcc.h ****   #pragma GCC diagnostic ignored "-Wpacked"
  97:Generated_Source\PSoC6\pdl\cmsis/include/cmsis_gcc.h ****   #pragma GCC diagnostic ignored "-Wattributes"
  98:Generated_Source\PSoC6\pdl\cmsis/include/cmsis_gcc.h ****   __PACKED_STRUCT T_UINT32_WRITE { uint32_t v; };
  99:Generated_Source\PSoC6\pdl\cmsis/include/cmsis_gcc.h ****   #pragma GCC diagnostic pop
 100:Generated_Source\PSoC6\pdl\cmsis/include/cmsis_gcc.h ****   #define __UNALIGNED_UINT32_WRITE(addr, val)    (void)((((struct T_UINT32_WRITE *)(void *)(addr))-
 101:Generated_Source\PSoC6\pdl\cmsis/include/cmsis_gcc.h **** #endif
 102:Generated_Source\PSoC6\pdl\cmsis/include/cmsis_gcc.h **** #ifndef   __UNALIGNED_UINT32_READ
 103:Generated_Source\PSoC6\pdl\cmsis/include/cmsis_gcc.h ****   #pragma GCC diagnostic push
 104:Generated_Source\PSoC6\pdl\cmsis/include/cmsis_gcc.h ****   #pragma GCC diagnostic ignored "-Wpacked"
 105:Generated_Source\PSoC6\pdl\cmsis/include/cmsis_gcc.h ****   #pragma GCC diagnostic ignored "-Wattributes"
 106:Generated_Source\PSoC6\pdl\cmsis/include/cmsis_gcc.h ****   __PACKED_STRUCT T_UINT32_READ { uint32_t v; };
 107:Generated_Source\PSoC6\pdl\cmsis/include/cmsis_gcc.h ****   #pragma GCC diagnostic pop
 108:Generated_Source\PSoC6\pdl\cmsis/include/cmsis_gcc.h ****   #define __UNALIGNED_UINT32_READ(addr)          (((const struct T_UINT32_READ *)(const void *)(add
 109:Generated_Source\PSoC6\pdl\cmsis/include/cmsis_gcc.h **** #endif
 110:Generated_Source\PSoC6\pdl\cmsis/include/cmsis_gcc.h **** #ifndef   __ALIGNED
 111:Generated_Source\PSoC6\pdl\cmsis/include/cmsis_gcc.h ****   #define __ALIGNED(x)                           __attribute__((aligned(x)))
 112:Generated_Source\PSoC6\pdl\cmsis/include/cmsis_gcc.h **** #endif
 113:Generated_Source\PSoC6\pdl\cmsis/include/cmsis_gcc.h **** #ifndef   __RESTRICT
 114:Generated_Source\PSoC6\pdl\cmsis/include/cmsis_gcc.h ****   #define __RESTRICT                             __restrict
 115:Generated_Source\PSoC6\pdl\cmsis/include/cmsis_gcc.h **** #endif
 116:Generated_Source\PSoC6\pdl\cmsis/include/cmsis_gcc.h **** 
 117:Generated_Source\PSoC6\pdl\cmsis/include/cmsis_gcc.h **** 
 118:Generated_Source\PSoC6\pdl\cmsis/include/cmsis_gcc.h **** /* ###########################  Core Function Access  ########################### */
ARM GAS  C:\Users\guill\AppData\Local\Temp\ccAVXgUz.s 			page 4


 119:Generated_Source\PSoC6\pdl\cmsis/include/cmsis_gcc.h **** /** \ingroup  CMSIS_Core_FunctionInterface
 120:Generated_Source\PSoC6\pdl\cmsis/include/cmsis_gcc.h ****     \defgroup CMSIS_Core_RegAccFunctions CMSIS Core Register Access Functions
 121:Generated_Source\PSoC6\pdl\cmsis/include/cmsis_gcc.h ****   @{
 122:Generated_Source\PSoC6\pdl\cmsis/include/cmsis_gcc.h ****  */
 123:Generated_Source\PSoC6\pdl\cmsis/include/cmsis_gcc.h **** 
 124:Generated_Source\PSoC6\pdl\cmsis/include/cmsis_gcc.h **** /**
 125:Generated_Source\PSoC6\pdl\cmsis/include/cmsis_gcc.h ****   \brief   Enable IRQ Interrupts
 126:Generated_Source\PSoC6\pdl\cmsis/include/cmsis_gcc.h ****   \details Enables IRQ interrupts by clearing the I-bit in the CPSR.
 127:Generated_Source\PSoC6\pdl\cmsis/include/cmsis_gcc.h ****            Can only be executed in Privileged modes.
 128:Generated_Source\PSoC6\pdl\cmsis/include/cmsis_gcc.h ****  */
 129:Generated_Source\PSoC6\pdl\cmsis/include/cmsis_gcc.h **** __STATIC_FORCEINLINE void __enable_irq(void)
 130:Generated_Source\PSoC6\pdl\cmsis/include/cmsis_gcc.h **** {
 131:Generated_Source\PSoC6\pdl\cmsis/include/cmsis_gcc.h ****   __ASM volatile ("cpsie i" : : : "memory");
  45              		.loc 2 131 0
  46              		.syntax unified
  47              	@ 131 "Generated_Source\PSoC6\pdl\cmsis/include/cmsis_gcc.h" 1
  48 0004 62B6     		cpsie i
  49              	@ 0 "" 2
  50              		.thumb
  51              		.syntax unified
  52              	.LBE5:
  53              	.LBE4:
  10:main_cm4.c    ****     __enable_irq(); /* Enable global interrupts. */
  11:main_cm4.c    ****     
  12:main_cm4.c    ****     UART_Start();
  54              		.loc 1 12 0
  55 0006 FFF7FEFF 		bl	UART_Start
  56              	.LVL0:
  13:main_cm4.c    ****     I2C_ADXL_Start();
  57              		.loc 1 13 0
  58 000a FFF7FEFF 		bl	I2C_ADXL_Start
  59              	.LVL1:
  14:main_cm4.c    ****     ADXL343_init();
  60              		.loc 1 14 0
  61 000e FFF7FEFF 		bl	ADXL343_init
  62              	.LVL2:
  15:main_cm4.c    ****     LCD_Start(I2C_ADXL_HW, &I2C_ADXL_context);
  63              		.loc 1 15 0
  64 0012 3049     		ldr	r1, .L4
  65 0014 3048     		ldr	r0, .L4+4
  66 0016 FFF7FEFF 		bl	LCD_Start
  67              	.LVL3:
  16:main_cm4.c    ****     
  17:main_cm4.c    ****     LCD_SetColor(Blue); 
  68              		.loc 1 17 0
  69 001a 0320     		movs	r0, #3
  70 001c FFF7FEFF 		bl	LCD_SetColor
  71              	.LVL4:
  18:main_cm4.c    ****     ADXL343_setRange(ADXL343_RANGE_16_G);
  72              		.loc 1 18 0
  73 0020 0320     		movs	r0, #3
  74 0022 FFF7FEFF 		bl	ADXL343_setRange
  75              	.LVL5:
  76              	.L2:
  19:main_cm4.c    ****     sensors_event_t event;
  20:main_cm4.c    ****     char buf1[5];
  21:main_cm4.c    ****     //char buf2[5];
ARM GAS  C:\Users\guill\AppData\Local\Temp\ccAVXgUz.s 			page 5


  22:main_cm4.c    ****     //char buf3[5];
  23:main_cm4.c    **** 
  24:main_cm4.c    ****     
  25:main_cm4.c    ****     for(;;){
  26:main_cm4.c    ****         ADXL343_getEvent(&event);
  77              		.loc 1 26 0 discriminator 1
  78 0026 03A8     		add	r0, sp, #12
  79 0028 FFF7FEFF 		bl	ADXL343_getEvent
  80              	.LVL6:
  27:main_cm4.c    ****         
  28:main_cm4.c    ****         x=event.acceleration.x;
  81              		.loc 1 28 0 discriminator 1
  82 002c 0398     		ldr	r0, [sp, #12]	@ float
  83 002e 2B4E     		ldr	r6, .L4+8
  84 0030 3060     		str	r0, [r6]	@ float
  29:main_cm4.c    ****         y=event.acceleration.y;
  85              		.loc 1 29 0 discriminator 1
  86 0032 2B4D     		ldr	r5, .L4+12
  87 0034 049B     		ldr	r3, [sp, #16]	@ float
  88 0036 2B60     		str	r3, [r5]	@ float
  30:main_cm4.c    ****         z=event.acceleration.z;
  89              		.loc 1 30 0 discriminator 1
  90 0038 2A4C     		ldr	r4, .L4+16
  91 003a 059B     		ldr	r3, [sp, #20]	@ float
  92 003c 2360     		str	r3, [r4]	@ float
  31:main_cm4.c    ****     
  32:main_cm4.c    ****         printf("X: %f\r\n",event.acceleration.x);
  93              		.loc 1 32 0 discriminator 1
  94 003e FFF7FEFF 		bl	__aeabi_f2d
  95              	.LVL7:
  96 0042 0246     		mov	r2, r0
  97 0044 0B46     		mov	r3, r1
  98 0046 2848     		ldr	r0, .L4+20
  99 0048 FFF7FEFF 		bl	printf
 100              	.LVL8:
  33:main_cm4.c    ****         printf("Y: %f\r\n",event.acceleration.y);
 101              		.loc 1 33 0 discriminator 1
 102 004c 0498     		ldr	r0, [sp, #16]	@ float
 103 004e FFF7FEFF 		bl	__aeabi_f2d
 104              	.LVL9:
 105 0052 0246     		mov	r2, r0
 106 0054 0B46     		mov	r3, r1
 107 0056 2548     		ldr	r0, .L4+24
 108 0058 FFF7FEFF 		bl	printf
 109              	.LVL10:
  34:main_cm4.c    ****         printf("Z: %f\r\n",event.acceleration.z);
 110              		.loc 1 34 0 discriminator 1
 111 005c 0598     		ldr	r0, [sp, #20]	@ float
 112 005e FFF7FEFF 		bl	__aeabi_f2d
 113              	.LVL11:
 114 0062 0246     		mov	r2, r0
 115 0064 0B46     		mov	r3, r1
 116 0066 2248     		ldr	r0, .L4+28
 117 0068 FFF7FEFF 		bl	printf
 118              	.LVL12:
  35:main_cm4.c    ****         
  36:main_cm4.c    ****         LCD_SetCursor(0,0);
ARM GAS  C:\Users\guill\AppData\Local\Temp\ccAVXgUz.s 			page 6


 119              		.loc 1 36 0 discriminator 1
 120 006c 0021     		movs	r1, #0
 121 006e 0846     		mov	r0, r1
 122 0070 FFF7FEFF 		bl	LCD_SetCursor
 123              	.LVL13:
  37:main_cm4.c    ****         sprintf(buf1, "X:%.2f", x) ; // Convert to string
 124              		.loc 1 37 0 discriminator 1
 125 0074 3068     		ldr	r0, [r6]	@ float
 126 0076 FFF7FEFF 		bl	__aeabi_f2d
 127              	.LVL14:
 128 007a 0246     		mov	r2, r0
 129 007c 0B46     		mov	r3, r1
 130 007e 1D49     		ldr	r1, .L4+32
 131 0080 01A8     		add	r0, sp, #4
 132 0082 FFF7FEFF 		bl	sprintf
 133              	.LVL15:
  38:main_cm4.c    ****         LCD_Print(buf1);    
 134              		.loc 1 38 0 discriminator 1
 135 0086 01A8     		add	r0, sp, #4
 136 0088 FFF7FEFF 		bl	LCD_Print
 137              	.LVL16:
  39:main_cm4.c    ****         sprintf(buf1, "Y:%.2f", y) ; // Convert to string
 138              		.loc 1 39 0 discriminator 1
 139 008c 2868     		ldr	r0, [r5]	@ float
 140 008e FFF7FEFF 		bl	__aeabi_f2d
 141              	.LVL17:
 142 0092 0246     		mov	r2, r0
 143 0094 0B46     		mov	r3, r1
 144 0096 1849     		ldr	r1, .L4+36
 145 0098 01A8     		add	r0, sp, #4
 146 009a FFF7FEFF 		bl	sprintf
 147              	.LVL18:
  40:main_cm4.c    ****         LCD_SetCursor(8,0);
 148              		.loc 1 40 0 discriminator 1
 149 009e 0021     		movs	r1, #0
 150 00a0 0820     		movs	r0, #8
 151 00a2 FFF7FEFF 		bl	LCD_SetCursor
 152              	.LVL19:
  41:main_cm4.c    ****         LCD_Print(buf1);
 153              		.loc 1 41 0 discriminator 1
 154 00a6 01A8     		add	r0, sp, #4
 155 00a8 FFF7FEFF 		bl	LCD_Print
 156              	.LVL20:
  42:main_cm4.c    ****         sprintf(buf1, "Z:%.2f", z) ; // Convert to string
 157              		.loc 1 42 0 discriminator 1
 158 00ac 2068     		ldr	r0, [r4]	@ float
 159 00ae FFF7FEFF 		bl	__aeabi_f2d
 160              	.LVL21:
 161 00b2 0246     		mov	r2, r0
 162 00b4 0B46     		mov	r3, r1
 163 00b6 1149     		ldr	r1, .L4+40
 164 00b8 01A8     		add	r0, sp, #4
 165 00ba FFF7FEFF 		bl	sprintf
 166              	.LVL22:
  43:main_cm4.c    ****         LCD_SetCursor(0,1);
 167              		.loc 1 43 0 discriminator 1
 168 00be 0121     		movs	r1, #1
ARM GAS  C:\Users\guill\AppData\Local\Temp\ccAVXgUz.s 			page 7


 169 00c0 0020     		movs	r0, #0
 170 00c2 FFF7FEFF 		bl	LCD_SetCursor
 171              	.LVL23:
  44:main_cm4.c    ****         LCD_Print(buf1);
 172              		.loc 1 44 0 discriminator 1
 173 00c6 01A8     		add	r0, sp, #4
 174 00c8 FFF7FEFF 		bl	LCD_Print
 175              	.LVL24:
  45:main_cm4.c    ****         
  46:main_cm4.c    ****         CyDelay(50) ;      
 176              		.loc 1 46 0 discriminator 1
 177 00cc 3220     		movs	r0, #50
 178 00ce FFF7FEFF 		bl	Cy_SysLib_Delay
 179              	.LVL25:
 180 00d2 A8E7     		b	.L2
 181              	.L5:
 182              		.align	2
 183              	.L4:
 184 00d4 00000000 		.word	I2C_ADXL_context
 185 00d8 00006740 		.word	1080492032
 186 00dc 00000000 		.word	x
 187 00e0 00000000 		.word	y
 188 00e4 00000000 		.word	z
 189 00e8 00000000 		.word	.LC0
 190 00ec 08000000 		.word	.LC1
 191 00f0 10000000 		.word	.LC2
 192 00f4 18000000 		.word	.LC3
 193 00f8 20000000 		.word	.LC4
 194 00fc 28000000 		.word	.LC5
 195              		.cfi_endproc
 196              	.LFE509:
 197              		.size	main, .-main
 198              		.comm	z,4,4
 199              		.comm	y,4,4
 200              		.comm	x,4,4
 201              		.comm	_buff,6,4
 202              		.section	.rodata.str1.4,"aMS",%progbits,1
 203              		.align	2
 204              	.LC0:
 205 0000 583A2025 		.ascii	"X: %f\015\012\000"
 205      660D0A00 
 206              	.LC1:
 207 0008 593A2025 		.ascii	"Y: %f\015\012\000"
 207      660D0A00 
 208              	.LC2:
 209 0010 5A3A2025 		.ascii	"Z: %f\015\012\000"
 209      660D0A00 
 210              	.LC3:
 211 0018 583A252E 		.ascii	"X:%.2f\000"
 211      326600
 212 001f 00       		.space	1
 213              	.LC4:
 214 0020 593A252E 		.ascii	"Y:%.2f\000"
 214      326600
 215 0027 00       		.space	1
 216              	.LC5:
 217 0028 5A3A252E 		.ascii	"Z:%.2f\000"
ARM GAS  C:\Users\guill\AppData\Local\Temp\ccAVXgUz.s 			page 8


 217      326600
 218              		.text
 219              	.Letext0:
 220              		.file 3 "c:\\program files (x86)\\cypress\\psoc creator\\4.4\\psoc creator\\import\\gnu\\arm\\5.4.
 221              		.file 4 "c:\\program files (x86)\\cypress\\psoc creator\\4.4\\psoc creator\\import\\gnu\\arm\\5.4.
 222              		.file 5 "Generated_Source\\PSoC6\\pdl\\devices/psoc6/include/ip/cyip_scb.h"
 223              		.file 6 "Generated_Source\\PSoC6\\pdl\\devices/psoc6/include/psoc6_01_config.h"
 224              		.file 7 "Generated_Source\\PSoC6\\pdl\\drivers/peripheral/device/cy_device.h"
 225              		.file 8 "Generated_Source\\PSoC6\\pdl\\drivers/peripheral/scb/cy_scb_i2c.h"
 226              		.file 9 "Generated_Source\\PSoC6\\pdl\\drivers/peripheral/scb/cy_scb_uart.h"
 227              		.file 10 "ADXL.h"
 228              		.file 11 "Generated_Source\\PSoC6\\pdl\\cmsis/include/core_cm4.h"
 229              		.file 12 "Generated_Source\\PSoC6/UART.h"
 230              		.file 13 "Generated_Source\\PSoC6/I2C_ADXL.h"
 231              		.file 14 "DRF0554.h"
 232              		.file 15 "c:\\program files (x86)\\cypress\\psoc creator\\4.4\\psoc creator\\import\\gnu\\arm\\5.4
 233              		.file 16 "Generated_Source\\PSoC6\\pdl\\drivers/peripheral/syslib/cy_syslib.h"